gvkey	gvkey_old	conm	tic	cusip	cik	sic	naics	LINKPRIM	LIID	LINKTYPE	LPERMNO	LPERMCO	LINKDT	LINKENDDT	ticker
1004	1004	AAR CORP	AIR	000361105	1750	5080	423860.0	P	01	LU	54594	20000	1972-04-24	E	air
1045	1045	AMERICAN AIRLINES GROUP INC	AAL	02376R102	6201	4512	481111.0	P	04	LC	21020	20010	2013-12-09	E	aal
1045	1045	AMERICAN AIRLINES GROUP INC	AAL	02376R102	6201	4512	481111.0	C	00X	LC	21020	20010	1950-01-01	1962-01-30	aal
1045	1045	AMERICAN AIRLINES GROUP INC	AAL	02376R102	6201	4512	481111.0	P	01	LC	21020	20010	1962-01-31	2012-01-04	aal
1050	1050	CECO ENVIRONMENTAL CORP	CECO	125141101	3197	3564	333413.0	P	01	LC	11499	176	1980-11-28	E	cece
1072	1072	AVX CORP	AVX	002444107	859163	3670	334416.0	C	01	LC	56899	25544	1973-03-30	1990-01-18	
1072	1072	AVX CORP	AVX	002444107	859163	3670	334416.0	C	01	LC	81912	30930	1995-08-15	2020-03-27	
1072	1072	AVX CORP	AVX	002444107	859163	3670	334416.0	C	00X	LC	56899	25544	1973-01-01	1973-03-29	
1075	1075	PINNACLE WEST CAPITAL CORP	PNW	723484101	764622	4911	2211.0	P	01	LU	27991	21409	1962-01-31	E	pnw
1076	1076	PROG HOLDINGS INC	PRG	74319R101	1808834	6141	522220.0	P	01	LC	10517	5674	2010-12-01	E	prg
1076	1076	PROG HOLDINGS INC	PRG	74319R101	1808834	6141	522220.0	P	01	LC	10517	5674	1982-11-04	1992-12-31	prg
1076	1076	PROG HOLDINGS INC	PRG	74319R101	1808834	6141	522220.0	J	02	LC	78049	5674	2010-12-01	2010-12-10	prg
1076	1076	PROG HOLDINGS INC	PRG	74319R101	1808834	6141	522220.0	N	02	LC	78049	5674	1992-11-03	1992-12-31	prg
1076	1076	PROG HOLDINGS INC	PRG	74319R101	1808834	6141	522220.0	P	02	LC	78049	5674	1993-01-01	2010-11-30	prg
1076	1076	PROG HOLDINGS INC	PRG	74319R101	1808834	6141	522220.0	J	01	LC	10517	5674	1993-01-01	2010-11-30	prg
1078	1078	ABBOTT LABORATORIES	ABT	002824100	1800	3845	334510.0	C	00X	LC	20482	20017	1950-01-01	1962-01-30	abt
1078	1078	ABBOTT LABORATORIES	ABT	002824100	1800	3845	334510.0	P	01	LC	20482	20017	1962-01-31	E	abt
1094	1094	ACETO CORP	ACETQ	004446100	2034	5160	424690.0	P	01	LC	10656	37	1972-12-14	2019-10-02	
1104	1104	ACME UNITED CORP	ACU	004816104	2098	3420	332215.0	P	01	LU	60038	370	1972-12-14	E	acu
1117	1117	BK TECHNOLOGIES CORP	BKTI	05587G203	2186	3663	334220.0	P	02	LC	10779	65	1978-10-03	2003-05-07	bkti
1117	1117	BK TECHNOLOGIES CORP	BKTI	05587G203	2186	3663	334220.0	P	02	LC	10779	65	2005-10-14	E	bkti
1119	1119	ADAMS DIVERSIFIED EQUITY FD	ADX	006212104	2230	6726	525990.0	C	00X	LU	10065	20023	1982-01-01	1982-01-28	adx
1119	1119	ADAMS DIVERSIFIED EQUITY FD	ADX	006212104	2230	6726	525990.0	P	01	LU	10065	20023	1982-01-29	E	adx
1161	1161	ADVANCED MICRO DEVICES	AMD	007903107	2488	3674	334413.0	P	01	LU	61241	211	1972-12-14	E	amd
1166	1166	ASM INTERNATIONAL NV	ASMIY	N07045102	351483	3559	333242.0	P	90	LC	11077	374	1981-05-12	2015-08-20	
1186	1186	AGNICO EAGLE MINES LTD	AEM	008474108	2809	1040	212220.0	P	01	LC	78223	26174	1982-11-01	E	aem
1209	1209	AIR PRODUCTS & CHEMICALS INC	APD	009158106	2969	2810	325120.0	P	01	LC	28222	20030	1962-01-31	E	apd
1230	1230	ALASKA AIR GROUP INC	ALK	011659109	766421	4512	481111.0	P	01	LU	28804	20035	1966-01-31	E	alk
1254	1254	MATSON INC	MATX	57686G105	3453	4400	483113.0	P	01	LU	11691	157	1972-12-14	E	matx
1257	1257	ALEXANDER'S INC	ALX	014752109	3499	6798	531120.0	P	01	LU	49330	20041	1969-10-07	E	alx
1263	1263	ALGOMA STEEL GROUP INC	ASTL	015658107	1860805	3312	331110.0	P	07	LC	22182	58827	2021-10-20	E	astl
1263	1263	ALGOMA STEEL GROUP INC	ASTL	015658107	1860805	3312	331110.0	P	07	LC	22182	58827	2021-10-20	E	astlw
1263	1263	ALGOMA STEEL GROUP INC	ASTL	015658107	1860805	3312	331110.0	P	01	LC	81765	28041	1995-07-14	2000-11-30	astl
1263	1263	ALGOMA STEEL GROUP INC	ASTL	015658107	1860805	3312	331110.0	P	01	LC	81765	28041	1995-07-14	2000-11-30	astlw
1266	1266	ALICO INC	ALCO	016230104	3545	100	111310.0	P	01	LU	11790	153	1972-12-14	E	alco
1300	1300	HONEYWELL INTERNATIONAL INC	HON	438516106	773840	9997	999977.0	P	01	LC	10145	22168	1962-01-31	E	hon
1300	1300	HONEYWELL INTERNATIONAL INC	HON	438516106	773840	9997	999977.0	C	00X	LC	10145	22168	1950-01-01	1962-01-30	hon
1327	1327	SKYWORKS SOLUTIONS INC	SWKS	83088M102	4127	3674	334413.0	P	01	LU	45911	20058	1968-03-13	E	swks
1380	1380	HESS CORP	HES	42809H107	4447	1311	2111.0	P	01	LC	28484	20064	1964-03-31	E	hes
1393	1393	U-HAUL HOLDING CO	UHAL	023586100	4457	7510	532120.0	P	01	LU	81073	30020	1994-11-03	E	uhal
1393	1393	U-HAUL HOLDING CO	UHAL	023586100	4457	7510	532120.0	J	05	LC	23505	30020	2022-11-10	E	uhal
1410	1410	ABM INDUSTRIES INC	ABM	000957100	771497	7340	561720.0	P	01	LU	47730	20068	1969-02-13	E	abm
1414	1414	PRIMERICA INC	PRI	74164M108	1475922	6311	524113.0	P	02	LC	93330	53383	2010-04-01	E	pri
1414	1414	PRIMERICA INC	PRI	74164M108	1475922	6311	524113.0	P	01	LC	10241	22177	1962-01-31	1988-12-15	pri
1414	1414	PRIMERICA INC	PRI	74164M108	1475922	6311	524113.0	C	00X	LC	10241	22177	1950-01-01	1962-01-30	pri
1439	1439	US ECOLOGY INC	ECOL	91734M103	1783400	4955	562211.0	P	01	LC	12758	7019	1984-05-09	2022-05-31	
1440	1440	AMERICAN ELECTRIC POWER CO	AEP	025537101	4904	4911	2211.0	C	00X	LC	24109	20077	1951-01-01	1962-01-30	aep
1440	1440	AMERICAN ELECTRIC POWER CO	AEP	025537101	4904	4911	2211.0	C	00X	LC	24109	20077	1951-01-01	1962-01-30	aeppz
1440	1440	AMERICAN ELECTRIC POWER CO	AEP	025537101	4904	4911	2211.0	P	01	LC	24109	20077	1962-01-31	E	aep
1440	1440	AMERICAN ELECTRIC POWER CO	AEP	025537101	4904	4911	2211.0	P	01	LC	24109	20077	1962-01-31	E	aeppz
1447	1447	AMERICAN EXPRESS CO	AXP	025816109	4962	6141	522210.0	C	01	LU	59176	90	1972-12-14	E	axp
1449	1449	AFLAC INC	AFL	001055102	4977	6321	524114.0	P	01	LU	57904	92	1973-08-23	E	afl
1487	1487	AMERICAN INTERNATIONAL GROUP	AIG	026874784	5272	6331	524126.0	P	01	LC	66800	137	1972-12-14	E	aig
1487	1487	AMERICAN INTERNATIONAL GROUP	AIG	026874784	5272	6331	524126.0	P	01	LC	66800	137	1972-12-14	E	aig-pa
1559	1559	AMERICAN SHARED HSPTL SERV	AMS	029595105	744825	8090	621999.0	P	01	LU	13769	7119	1984-07-03	E	ams
1562	1562	LOGILITY SPPLY CHAIN SOL INC	LGTY	029683109	713425	7372	513210.0	P	01	LU	13777	5828	1983-02-28	E	amswa
1585	1585	AMERICAN VANGUARD CORP	AVD	030371108	5981	2870	325320.0	P	01	LU	11144	9002	1987-03-02	E	avd
1598	1598	AMETEK INC	AME	031100100	1037868	3823	334513.0	P	01	LC	10460	20188	1962-01-31	1997-07-31	ame
1598	1598	AMETEK INC	AME	031100100	1037868	3823	334513.0	C	00X	LC	10460	20188	1950-01-01	1962-01-30	ame
1598	1598	AMETEK INC	AME	031100100	1037868	3823	334513.0	P	01	LC	85257	32054	1997-08-08	E	ame
1602	1602	AMGEN INC	AMGN	031162100	318154	2836	325414.0	P	01	LU	14008	216	1983-06-17	E	amgn
1613	1613	AMPCO-PITTSBURGH CORP	AP	032037103	6176	3312	331110.0	C	00X	LU	18075	20192	1960-01-01	1965-12-30	ap
1613	1613	AMPCO-PITTSBURGH CORP	AP	032037103	6176	3312	331110.0	C	00X	LU	18075	20192	1960-01-01	1965-12-30	ap-wt
1613	1613	AMPCO-PITTSBURGH CORP	AP	032037103	6176	3312	331110.0	P	01	LU	18075	20192	1965-12-31	E	ap
1613	1613	AMPCO-PITTSBURGH CORP	AP	032037103	6176	3312	331110.0	P	01	LU	18075	20192	1965-12-31	E	ap-wt
1632	1632	ANALOG DEVICES INC	ADI	032654105	6281	3674	334413.0	P	01	LC	60871	282	1972-12-14	E	adi
1633	1633	ANALOGIC CORP	ALOG	032657207	6284	3845	334510.0	C	01	LU	14198	173	1972-12-14	2018-06-29	
1659	1659	ANDERSONS INC	ANDE	034164103	821026	5150	424510.0	P	01	LU	83112	14382	1996-02-20	E	ande
1661	1661	NABORS INDUSTRIES LTD	NBR	G6359F137	1163739	1381	213111.0	P	01	LC	29102	20201	1968-01-31	E	nbr
1661	1661	NABORS INDUSTRIES LTD	NBR	G6359F137	1163739	1381	213111.0	P	01	LC	29102	20201	1968-01-31	E	nbrwf
1678	1678	APA CORP	APA	03743Q108	1841666	1311	2111.0	P	01	LC	39490	20204	1964-01-31	E	apa
1686	1686	APOGEE ENTERPRISES INC	APOG	037598109	6845	3442	332321.0	P	01	LU	14526	317	1973-01-31	E	apog
1690	1690	APPLE INC	AAPL	037833100	320193	3663	334220.0	P	01	LU	14593	7	1980-12-12	E	aapl
1704	1704	APPLIED MATERIALS INC	AMAT	038222105	6951	3559	333242.0	P	01	LU	14702	194	1972-12-14	E	amat
1706	1706	ENERPAC TOOL GROUP CORP	EPAC	292765104	6955	3533	333132.0	P	01	LC	11581	323	1987-08-05	E	epac
1712	1712	TRECORA RESOURCES	TREC	894648104	7039	2911	324110.0	C	01	LU	14761	352	1976-01-30	2022-06-30	
1712	1712	TRECORA RESOURCES	TREC	894648104	7039	2911	324110.0	C	00X	LC	14761	352	1976-01-01	1976-01-29	
1722	1722	ARCHER-DANIELS-MIDLAND CO	ADM	039483102	7084	2070	31122.0	C	00X	LC	10516	20207	1949-07-01	1962-01-30	adm
1722	1722	ARCHER-DANIELS-MIDLAND CO	ADM	039483102	7084	2070	31122.0	P	01	LC	10516	20207	1962-01-31	E	adm
1743	1743	ARCBEST CORP	ARCB	03937C105	894405	4213	484122.0	C	02	LC	48004	24975	1969-03-18	1988-07-25	arcb
1743	1743	ARCBEST CORP	ARCB	03937C105	894405	4213	484122.0	C	02	LC	77595	11512	1992-05-13	E	arcb
1773	1773	ARROW ELECTRONICS INC	ARW	042735100	7536	5065	423690.0	P	01	LU	29209	20217	1966-04-29	E	arw
1794	1794	ASHLAND INC	ASH	044186104	1674862	2820	3252.0	P	01	LC	24272	20222	1962-01-31	E	ash
1820	1820	ASTRONOVA INC	ALOT	04638F108	8146	3577	334118.0	P	01	LU	15537	5225	1981-12-08	E	alot
1823	1823	ASTRONICS CORP	ATRO	046433108	8063	3640	336320.0	P	01	LU	15457	397	1978-11-30	E	atro
1823	1823	ASTRONICS CORP	ATRO	046433108	8063	3640	336320.0	P	01	LU	15457	397	1978-11-30	E	atrob
1823	1823	ASTRONICS CORP	ATRO	046433108	8063	3640	336320.0	C	00X	LU	15457	397	1974-01-01	1978-11-29	atro
1823	1823	ASTRONICS CORP	ATRO	046433108	8063	3640	336320.0	C	00X	LU	15457	397	1974-01-01	1978-11-29	atrob
1864	1864	REX AMERICAN RESOURCES CORP	REX	761624105	744187	2860	325193.0	P	01	LU	68830	7135	1984-07-17	E	rex
1878	1878	AUTODESK INC	ADSK	052769106	769397	7370	519290.0	P	01	LU	85631	7623	1985-07-31	E	adsk
1891	1891	AUTOMATIC DATA PROCESSING	ADP	053015103	8670	7374	518210.0	P	01	LC	44644	20235	1967-06-26	E	adp
1906	1906	A V HOMES INC	AVHI.1	00234P102	39677	1531	236117.0	P	01	LU	16030	421	1981-07-31	2018-10-31	
1913	1913	AVERY DENNISON CORP	AVY	053611109	8818	2670	322220.0	P	01	LU	44601	20238	1967-06-20	E	avy
1919	1919	AVNET INC	AVT	053807103	8858	5065	423690.0	P	01	LU	27684	20239	1962-01-31	E	avt
1920	1920	AVON PRODUCTS	AVP	054303102	8868	2844	325620.0	P	01	LU	40416	20240	1964-04-20	2020-01-31	
1926	1926	AZZ INC	AZZ	002474104	8947	3470	33281.0	P	01	LU	16126	430	1973-03-30	E	azz
1926	1926	AZZ INC	AZZ	002474104	8947	3470	33281.0	C	00X	LU	16126	430	1973-03-01	1973-03-29	azz
1932	1932	BRITISH AMER TOBACCO PLC	BTI	110448107	1303523	2111	312230.0	P	90	LC	59504	20243	1976-12-21	E	bti
1932	1932	BRITISH AMER TOBACCO PLC	BTI	110448107	1303523	2111	312230.0	P	90	LC	59504	20243	1976-12-21	E	btaff
1949	1949	BRT APARTMENTS CORP	BRT	055645303	14846	6798	531110.0	P	01	LU	56856	20247	1973-05-23	E	brt
1968	1968	BADGER METER INC	BMI	056525108	9092	3824	334514.0	C	01	LU	53110	20250	1971-08-31	E	bmi
1979	1979	BALCHEM CORP  -CL B	BCPC	057665200	9326	2860	325199.0	C	01	LU	10318	8237	1986-06-03	E	bcpc
1982	1982	PROTECTIVE INSURANCE CORP	PTVCB	74368L203	9346	6331	524126.0	P	02	LC	10239	714	1993-09-01	2021-06-30	
1982	1982	PROTECTIVE INSURANCE CORP	PTVCB	74368L203	9346	6331	524126.0	P	01	LC	16417	714	1972-12-14	1993-08-31	
1982	1982	PROTECTIVE INSURANCE CORP	PTVCB	74368L203	9346	6331	524126.0	J	02	LC	10239	714	1986-05-09	1993-08-31	
1982	1982	PROTECTIVE INSURANCE CORP	PTVCB	74368L203	9346	6331	524126.0	J	01	LC	16417	714	1993-09-01	2021-06-30	
1988	1988	BALL CORP	BALL	058498106	9389	3411	332431.0	P	01	LU	57568	20257	1972-12-14	E	ball
2002	2002	POPULAR INC	BPOP	733174700	763901	6020	522110.0	P	01	LC	16513	623	1972-12-14	1990-12-31	bpop
2002	2002	POPULAR INC	BPOP	733174700	763901	6020	522110.0	P	01	LC	16513	623	1972-12-14	1990-12-31	bpopo
2002	2002	POPULAR INC	BPOP	733174700	763901	6020	522110.0	P	01	LC	16513	623	1972-12-14	1990-12-31	bpopm
2002	2002	POPULAR INC	BPOP	733174700	763901	6020	522110.0	P	01	LC	16505	475	1991-01-02	E	bpop
2002	2002	POPULAR INC	BPOP	733174700	763901	6020	522110.0	P	01	LC	16505	475	1991-01-02	E	bpopo
2002	2002	POPULAR INC	BPOP	733174700	763901	6020	522110.0	P	01	LC	16505	475	1991-01-02	E	bpopm
2005	2005	BANK OF HAWAII CORP	BOH	062540109	46195	6020	522110.0	C	01	LU	16548	589	1972-12-14	E	boh
2005	2005	BANK OF HAWAII CORP	BOH	062540109	46195	6020	522110.0	C	01	LU	16548	589	1972-12-14	E	boh-pa
2019	2019	BANK OF NEW YORK MELLON CORP	BK	064058100	1390777	6020	522110.0	P	01	LC	49656	20265	1969-12-04	E	bk
2049	2049	BARNES GROUP INC	B	067806109	9984	3490	332613.0	P	01	LU	39693	20270	1963-10-14	E	b
2055	2055	BARRICK GOLD CORP	GOLD	067901108	756894	1040	212221.0	P	01	LU	71298	20065	1985-02-01	E	gold
2086	2086	BAXTER INTERNATIONAL INC	BAX	071813109	10456	3841	339112.0	P	01	LC	27887	20277	1962-01-31	E	bax
2101	2101	APPLIED INDUSTRIAL TECH INC	AIT	03820C105	109563	5080	423830.0	P	02	LU	29612	20283	1962-07-02	E	ait
2111	2111	BECTON DICKINSON & CO	BDX	075887109	10795	3841	339112.0	P	01	LU	39642	20284	1963-09-25	E	bdx
2111	2111	BECTON DICKINSON & CO	BDX	075887109	10795	3841	339112.0	P	01	LU	39642	20284	1963-09-25	E	bdxb
2124	2124	BEL FUSE INC	BELFB	077347300	729580	3677	334416.0	J	03	LC	86242	6653	1998-07-10	1999-12-31	belfa
2124	2124	BEL FUSE INC	BELFB	077347300	729580	3677	334416.0	J	03	LC	86242	6653	1998-07-10	1999-12-31	belfb
2124	2124	BEL FUSE INC	BELFB	077347300	729580	3677	334416.0	J	01	LC	17444	6653	2000-01-01	E	belfa
2124	2124	BEL FUSE INC	BELFB	077347300	729580	3677	334416.0	J	01	LC	17444	6653	2000-01-01	E	belfb
2124	2124	BEL FUSE INC	BELFB	077347300	729580	3677	334416.0	P	01	LC	17444	6653	1983-12-06	1999-12-31	belfa
2124	2124	BEL FUSE INC	BELFB	077347300	729580	3677	334416.0	P	01	LC	17444	6653	1983-12-06	1999-12-31	belfb
2124	2124	BEL FUSE INC	BELFB	077347300	729580	3677	334416.0	P	03	LC	86242	6653	2000-01-01	E	belfa
2124	2124	BEL FUSE INC	BELFB	077347300	729580	3677	334416.0	P	03	LC	86242	6653	2000-01-01	E	belfb
2136	2136	VERIZON COMMUNICATIONS INC	VZ	92343V104	732712	4812	517312.0	P	01	LC	65875	20288	1983-11-30	E	vz
2137	2137	BCE INC	BCE	05534B760	718940	4813	517311.0	P	01	LC	29647	20245	1976-08-18	E	bce
2154	2154	BEMIS CO INC	BMS	081437105	11199	2670	326112.0	P	01	LU	43772	20292	1966-09-13	2019-06-28	
2184	2184	BEST BUY CO INC	BBY	086516101	764478	5731	449210.0	P	01	LU	85914	7506	1985-05-31	E	bby
2220	2220	BIO-RAD LABORATORIES INC	BIO	090572207	12208	3826	334516.0	N	02	LC	61508	655	1982-01-29	E	bio
2220	2220	BIO-RAD LABORATORIES INC	BIO	090572207	12208	3826	334516.0	N	02	LC	61508	655	1982-01-29	E	bio-b
2220	2220	BIO-RAD LABORATORIES INC	BIO	090572207	12208	3826	334516.0	P	01	LC	61516	655	1982-01-29	E	bio
2220	2220	BIO-RAD LABORATORIES INC	BIO	090572207	12208	3826	334516.0	P	01	LC	61516	655	1982-01-29	E	bio-b
2220	2220	BIO-RAD LABORATORIES INC	BIO	090572207	12208	3826	334516.0	P	01	LC	61508	655	1974-10-18	1982-01-28	bio
2220	2220	BIO-RAD LABORATORIES INC	BIO	090572207	12208	3826	334516.0	P	01	LC	61508	655	1974-10-18	1982-01-28	bio-b
2259	2259	BLACK HILLS CORP	BKH	092113109	1130464	4923	221210.0	P	01	LC	61946	511	1972-12-14	E	bkh
2269	2269	BLOCK H & R INC	HRB	093671105	12659	7200	541213.0	P	01	LU	49373	20309	1969-10-13	E	hrb
2270	2270	VALARIS LIMITED	VAL	G9460G101	314808	1381	213111.0	P	01	LC	62519	559	1980-02-28	2009-12-22	val
2270	2270	VALARIS LIMITED	VAL	G9460G101	314808	1381	213111.0	P	01	LC	62519	559	1980-02-28	2009-12-22	val-wt
2270	2270	VALARIS LIMITED	VAL	G9460G101	314808	1381	213111.0	P	01	LC	93159	53296	2012-05-22	2020-08-17	val
2270	2270	VALARIS LIMITED	VAL	G9460G101	314808	1381	213111.0	P	01	LC	93159	53296	2012-05-22	2020-08-17	val-wt
2270	2270	VALARIS LIMITED	VAL	G9460G101	314808	1381	213111.0	P	03	LC	21257	58272	2021-05-03	E	val
2270	2270	VALARIS LIMITED	VAL	G9460G101	314808	1381	213111.0	P	03	LC	21257	58272	2021-05-03	E	val-wt
2270	2270	VALARIS LIMITED	VAL	G9460G101	314808	1381	213111.0	P	01	LC	19661	53296	2009-12-23	2012-05-21	val
2270	2270	VALARIS LIMITED	VAL	G9460G101	314808	1381	213111.0	P	01	LC	19661	53296	2009-12-23	2012-05-21	val-wt
2285	2285	BOEING CO	BA	097023105	12927	3721	336411.0	P	01	LU	19561	20315	1962-01-31	E	ba
2285	2285	BOEING CO	BA	097023105	12927	3721	336411.0	C	00X	LU	19561	20315	1950-01-01	1962-01-30	ba
2312	2312	ROBERT HALF INC	RHI	770323103	315213	7363	561320.0	C	01	LU	52230	469	1971-04-15	E	rhi
2316	2316	HEXION INC	0141A	60899Z001	13239	2821	325211.0	P	01	LC	16571	20320	1962-01-31	1995-03-14	
2316	2316	HEXION INC	0141A	60899Z001	13239	2821	325211.0	C	00X	LC	16571	20320	1950-01-01	1962-01-30	
2337	2337	RESOLUTE FOREST PRODUCTS INC	RFP	76117W109	1393066	2621	322121.0	P	01	LC	66130	20325	1984-05-18	2009-04-15	rfp
2337	2337	RESOLUTE FOREST PRODUCTS INC	RFP	76117W109	1393066	2621	322121.0	P	05	LC	12437	20325	2010-12-20	2023-03-31	rfp
2352	2352	BRADY CORP	BRC	104674106	746598	3990	339950.0	P	01	LU	18973	7113	1984-06-28	E	brc
2369	2369	BROOKFIELD CORP	BN	11271J107	1001085	6200	523.0	C	01	LC	29807	20328	1979-09-29	1997-08-08	bam
2369	2369	BROOKFIELD CORP	BN	11271J107	1001085	6200	523.0	C	01	LC	29807	20328	1979-09-29	1997-08-08	bamgf
2369	2369	BROOKFIELD CORP	BN	11271J107	1001085	6200	523.0	C	01	LC	29807	20328	1979-09-29	1997-08-08	bxdif
2369	2369	BROOKFIELD CORP	BN	11271J107	1001085	6200	523.0	C	01	LC	29807	20328	1979-09-29	1997-08-08	bamh
2369	2369	BROOKFIELD CORP	BN	11271J107	1001085	6200	523.0	C	01	LC	29807	20328	1979-09-29	1997-08-08	bami
2369	2369	BROOKFIELD CORP	BN	11271J107	1001085	6200	523.0	C	01	LC	85259	32056	1997-08-09	E	bam
2369	2369	BROOKFIELD CORP	BN	11271J107	1001085	6200	523.0	C	01	LC	85259	32056	1997-08-09	E	bamgf
2369	2369	BROOKFIELD CORP	BN	11271J107	1001085	6200	523.0	C	01	LC	85259	32056	1997-08-09	E	bxdif
2369	2369	BROOKFIELD CORP	BN	11271J107	1001085	6200	523.0	C	01	LC	85259	32056	1997-08-09	E	bamh
2369	2369	BROOKFIELD CORP	BN	11271J107	1001085	6200	523.0	C	01	LC	85259	32056	1997-08-09	E	bami
2393	2393	BRIGGS & STRATTON	BGGSQ	109043109	14195	3510	333618.0	P	01	LU	17961	20330	1962-01-31	2021-01-07	
2393	2393	BRIGGS & STRATTON	BGGSQ	109043109	14195	3510	333618.0	C	00X	LU	17961	20330	1950-01-01	1962-01-30	
2403	2403	BRISTOL-MYERS SQUIBB CO	BMY	110122108	14272	2834	325412.0	P	01	LU	19393	20331	1962-01-31	E	bmy
2403	2403	BRISTOL-MYERS SQUIBB CO	BMY	110122108	14272	2834	325412.0	P	01	LU	19393	20331	1962-01-31	E	bmymp
2403	2403	BRISTOL-MYERS SQUIBB CO	BMY	110122108	14272	2834	325412.0	P	01	LU	19393	20331	1962-01-31	E	celg-ri
2403	2403	BRISTOL-MYERS SQUIBB CO	BMY	110122108	14272	2834	325412.0	C	00X	LU	19393	20331	1950-01-01	1962-01-30	bmy
2403	2403	BRISTOL-MYERS SQUIBB CO	BMY	110122108	14272	2834	325412.0	C	00X	LU	19393	20331	1950-01-01	1962-01-30	bmymp
2403	2403	BRISTOL-MYERS SQUIBB CO	BMY	110122108	14272	2834	325412.0	C	00X	LU	19393	20331	1950-01-01	1962-01-30	celg-ri
2408	2408	TELUS CORP	TU	87971M103	868675	4812	517312.0	P	01	LC	13786	40157	2013-02-04	E	tu
2408	2408	TELUS CORP	TU	87971M103	868675	4812	517312.0	J	02	LC	88658	40157	2013-02-01	2013-02-01	tu
2408	2408	TELUS CORP	TU	87971M103	868675	4812	517312.0	P	02	LC	88658	40157	2000-10-17	2013-01-31	tu
2410	2410	BP PLC	BP	055622104	313807	2911	324110.0	P	90	LU	29890	20333	1962-07-02	E	bp
2410	2410	BP PLC	BP	055622104	313807	2911	324110.0	P	90	LU	29890	20333	1962-07-02	E	bpaqf
2411	2411	BT GROUP PLC	BTY10	05577E101	756620	4813	517311.0	P	90	LU	66835	20336	1984-12-03	2019-09-30	btgof
2435	2435	BROWN FORMAN CORP	BF.B	115637209	14693	2085	312140.0	P	01	LU	29946	20340	1962-07-02	E	bf-a
2435	2435	BROWN FORMAN CORP	BF.B	115637209	14693	2085	312140.0	P	01	LU	29946	20340	1962-07-02	E	bf-b
2435	2435	BROWN FORMAN CORP	BF.B	115637209	14693	2085	312140.0	J	02	LU	29938	20340	1982-01-29	E	bf-a
2435	2435	BROWN FORMAN CORP	BF.B	115637209	14693	2085	312140.0	J	02	LU	29938	20340	1982-01-29	E	bf-b
2436	2436	CALERES INC	CAL	129500104	14707	5661	458210.0	C	00X	LU	10866	20342	1949-11-01	1962-01-30	cal
2436	2436	CALERES INC	CAL	129500104	14707	5661	458210.0	P	01	LU	10866	20342	1962-01-31	E	cal
2444	2444	BRUNSWICK CORP	BC	117043109	14930	3510	333618.0	C	00X	LU	10874	20344	1950-01-01	1962-01-30	bc
2444	2444	BRUNSWICK CORP	BC	117043109	14930	3510	333618.0	C	00X	LU	10874	20344	1950-01-01	1962-01-30	bc-pa
2444	2444	BRUNSWICK CORP	BC	117043109	14930	3510	333618.0	C	00X	LU	10874	20344	1950-01-01	1962-01-30	bc-pb
2444	2444	BRUNSWICK CORP	BC	117043109	14930	3510	333618.0	C	00X	LU	10874	20344	1950-01-01	1962-01-30	bc-pc
2444	2444	BRUNSWICK CORP	BC	117043109	14930	3510	333618.0	P	01	LU	10874	20344	1962-01-31	E	bc
2444	2444	BRUNSWICK CORP	BC	117043109	14930	3510	333618.0	P	01	LU	10874	20344	1962-01-31	E	bc-pa
2444	2444	BRUNSWICK CORP	BC	117043109	14930	3510	333618.0	P	01	LU	10874	20344	1962-01-31	E	bc-pb
2444	2444	BRUNSWICK CORP	BC	117043109	14930	3510	333618.0	P	01	LU	10874	20344	1962-01-31	E	bc-pc
2448	2448	MATERION CORP	MTRN	576690101	1104657	3330	331410.0	P	01	LC	55597	20345	1972-09-21	E	mtrn
2497	2497	MASTEC INC	MTZ	576323109	15615	1623	237130.0	P	01	LU	19880	678	1972-12-14	E	mtz
2504	2504	UNISYS CORP	UIS	909214306	746838	7373	541512.0	P	01	LU	10890	21814	1962-01-31	E	uis
2504	2504	UNISYS CORP	UIS	909214306	746838	7373	541512.0	C	00X	LU	10890	21814	1950-01-01	1962-01-30	uis
2519	2519	BUTLER NATIONAL CORP	BUKS	123720104	15847	8741	561110.0	C	01	LU	20002	710	1972-12-14	1999-01-20	buks
2526	2526	CAE INC	CAE	124765108	1173382	3690	333318.0	P	01	LC	89462	43339	2002-07-29	E	cae
2536	2536	LIVERAMP HOLDINGS INC	RAMP	53815P108	733269	7370	519290.0	P	01	LC	20117	6702	1984-01-31	E	ramp
2547	2547	CIGNA GROUP (THE)	CI	125523100	1739940	6324	524114.0	P	01	LC	64186	20357	1982-04-20	E	ci
2547	2547	CIGNA GROUP (THE)	CI	125523100	1739940	6324	524114.0	P	01	LC	59221	857	1972-12-14	1982-03-31	ci
2556	2556	CSS INDUSTRIES INC	CSS	125906107	20629	2670	322220.0	P	01	LU	67838	20362	1985-09-30	2020-03-31	
2558	2558	CNA FINANCIAL CORP	CNA	126117100	21175	6331	524126.0	C	00X	LC	47626	20363	1972-01-01	1972-01-30	cna
2558	2558	CNA FINANCIAL CORP	CNA	126117100	21175	6331	524126.0	P	01	LC	47626	20363	1972-01-31	E	cna
2573	2573	CSP INC	CSPI	126389105	356037	7373	541512.0	P	01	LU	20336	5286	1982-01-29	E	cspi
2574	2574	CSX CORP	CSX	126408103	277948	4011	482111.0	P	01	LC	22410	23143	1962-01-31	1980-10-31	csx
2574	2574	CSX CORP	CSX	126408103	277948	4011	482111.0	C	00X	LC	22410	23143	1957-01-01	1962-01-30	csx
2574	2574	CSX CORP	CSX	126408103	277948	4011	482111.0	P	01	LC	62148	20370	1980-11-13	E	csx
2577	2577	CTS CORP	CTS	126501105	26058	3670	33441.0	P	01	LU	28564	20371	1962-06-04	E	cts
2578	2578	TELOS CORP/MD	TLS	87969B101	320121	7373	541512.0	P	08	LC	20173	57580	2020-11-19	E	tls
2578	2578	TELOS CORP/MD	TLS	87969B101	320121	7373	541512.0	P	01	LC	64725	25727	1980-12-16	1989-11-21	tls
2581	2581	CVD EQUIPMENT CORP	CVV	126601103	766792	3559	333249.0	C	01	LU	86290	7721	1985-09-04	E	cvv
2593	2593	CABOT CORP	CBT	127055101	16040	2890	325180.0	P	01	LU	46690	20374	1968-08-23	E	cbt
2596	2596	CACI INTL INC  -CL A	CACI	127190304	16058	7373	541512.0	P	01	LU	20512	727	1979-03-30	E	caci
2615	2615	CALAMP CORP	CAMPQ	128126208	730255	3663	334220.0	C	01	LC	20670	6689	1983-12-13	2001-03-28	camp
2615	2615	CALAMP CORP	CAMPQ	128126208	730255	3663	334220.0	C	01	LC	20670	6689	2001-06-07	2024-07-31	camp
2628	2628	CALIFORNIA WATER SERVICE GP	CWT	130788102	1035201	4941	221310.0	C	00X	LU	20750	1222	1974-01-01	1974-01-30	cwt
2628	2628	CALIFORNIA WATER SERVICE GP	CWT	130788102	1035201	4941	221310.0	P	01	LU	20750	1222	1974-01-31	E	cwt
2663	2663	CAMPBELL'S CO (THE)	CPB	134429109	16732	2030	311422.0	P	01	LU	25320	20384	1962-01-31	E	cpb
2696	2696	CANADIAN NATIONAL RAILWAY CO	CNI	136375102	16868	4011	482111.0	P	01	LU	84181	27520	1996-12-02	E	cni
2698	2698	CANADIAN PAC KANSAS CITY LTD	CP	13646K108	16875	4011	482111.0	P	01	LC	89125	41990	2001-10-03	E	cp
2698	2698	CANADIAN PAC KANSAS CITY LTD	CP	13646K108	16875	4011	482111.0	P	01	LC	83715	31687	1996-07-05	2001-10-02	cp
2698	2698	CANADIAN PAC KANSAS CITY LTD	CP	13646K108	16875	4011	482111.0	P	01	LC	11041	20387	1963-12-31	1996-07-03	cp
2710	2710	CONSTELLATION BRANDS	STZ	21036P108	16918	2082	312120.0	P	01	LC	64899	1015	1973-02-28	1993-08-31	stz
2710	2710	CONSTELLATION BRANDS	STZ	21036P108	16918	2082	312120.0	P	01	LC	64899	1015	1973-02-28	1993-08-31	stz-b
2710	2710	CONSTELLATION BRANDS	STZ	21036P108	16918	2082	312120.0	P	02	LC	69796	1015	1993-09-01	E	stz
2710	2710	CONSTELLATION BRANDS	STZ	21036P108	16918	2082	312120.0	P	02	LC	69796	1015	1993-09-01	E	stz-b
2710	2710	CONSTELLATION BRANDS	STZ	21036P108	16918	2082	312120.0	J	02	LC	69796	1015	1986-07-14	1993-08-31	stz
2710	2710	CONSTELLATION BRANDS	STZ	21036P108	16918	2082	312120.0	J	02	LC	69796	1015	1986-07-14	1993-08-31	stz-b
2710	2710	CONSTELLATION BRANDS	STZ	21036P108	16918	2082	312120.0	J	01	LC	64899	1015	1993-09-01	2022-11-30	stz
2710	2710	CONSTELLATION BRANDS	STZ	21036P108	16918	2082	312120.0	J	01	LC	64899	1015	1993-09-01	2022-11-30	stz-b
2751	2751	CARDINAL HEALTH INC	CAH	14149Y108	721371	5122	424210.0	P	01	LC	21371	6262	1983-08-04	E	cah
2771	2771	CARLISLE COS INC	CSL	142339100	790051	2950	324122.0	P	01	LU	27334	20392	1962-01-31	E	csl
2787	2787	CARPENTER TECHNOLOGY CORP	CRS	144285103	17843	3312	331110.0	C	00X	LU	20618	20398	1949-07-01	1962-01-30	crs
2787	2787	CARPENTER TECHNOLOGY CORP	CRS	144285103	17843	3312	331110.0	P	01	LU	20618	20398	1962-01-31	E	crs
2807	2807	CASEYS GENERAL STORES INC	CASY	147528103	726958	5412	457110.0	P	01	LU	21742	6515	1983-10-20	E	casy
2817	2817	CATERPILLAR INC	CAT	149123101	18230	3531	333120.0	P	01	LC	18542	20408	1962-01-31	E	cat
2817	2817	CATERPILLAR INC	CAT	149123101	18230	3531	333120.0	C	00X	LC	18542	20408	1950-01-01	1962-01-30	cat
2820	2820	CAVCO INDUSTRIES INC	CVCO	149568107	278166	2452	321992.0	P	02	LC	89792	44168	2003-07-01	E	cvco
2820	2820	CAVCO INDUSTRIES INC	CVCO	149568107	278166	2452	321992.0	P	01	LC	21806	1206	1979-03-09	1997-03-27	cvco
2829	2829	R F INDUSTRIES LTD	RFIL	749552105	740664	3678	334417.0	C	01	LU	86474	6992	1997-06-12	E	rfil
2884	2884	LUMEN TECHNOLOGIES INC	LUMN	550241103	18926	4813	517111.0	P	01	LC	60599	20421	1972-12-14	E	lumn
2940	2940	MAGELLAN HEALTH INC	MGLN	559079207	19411	8741	561110.0	P	02	LC	52652	25268	1981-01-30	1981-12-10	
2940	2940	MAGELLAN HEALTH INC	MGLN	559079207	19411	8741	561110.0	P	03	LC	90011	25268	2004-01-06	2022-01-31	
2940	2940	MAGELLAN HEALTH INC	MGLN	559079207	19411	8741	561110.0	C	01	LC	77854	25268	1992-08-07	2002-10-08	
2940	2940	MAGELLAN HEALTH INC	MGLN	559079207	19411	8741	561110.0	P	02	LC	63933	25268	1981-12-11	1988-08-31	
2940	2940	MAGELLAN HEALTH INC	MGLN	559079207	19411	8741	561110.0	C	01	LC	52652	25268	1971-06-14	1981-01-29	
2942	2942	CANTEL MEDICAL CORP	CMD	138098108	19446	3845	334510.0	C	01	LC	22825	904	1989-04-18	2021-06-30	
2960	2960	CHEMED CORP	CHE	16359R103	19584	8082	621610.0	P	01	LU	64194	20435	1972-12-14	E	che
2968	2968	JPMORGAN CHASE & CO	JPM	46625H100	19617	6020	522110.0	P	01	LC	47896	20436	1969-03-05	E	jpm
2968	2968	JPMORGAN CHASE & CO	JPM	46625H100	19617	6020	522110.0	P	01	LC	47896	20436	1969-03-05	E	jpm-pc
2968	2968	JPMORGAN CHASE & CO	JPM	46625H100	19617	6020	522110.0	P	01	LC	47896	20436	1969-03-05	E	jpm-pd
2968	2968	JPMORGAN CHASE & CO	JPM	46625H100	19617	6020	522110.0	P	01	LC	47896	20436	1969-03-05	E	amj
2968	2968	JPMORGAN CHASE & CO	JPM	46625H100	19617	6020	522110.0	P	01	LC	47896	20436	1969-03-05	E	jpm-pj
2968	2968	JPMORGAN CHASE & CO	JPM	46625H100	19617	6020	522110.0	P	01	LC	47896	20436	1969-03-05	E	jpm-pk
2968	2968	JPMORGAN CHASE & CO	JPM	46625H100	19617	6020	522110.0	P	01	LC	47896	20436	1969-03-05	E	jpm-pl
2968	2968	JPMORGAN CHASE & CO	JPM	46625H100	19617	6020	522110.0	P	01	LC	47896	20436	1969-03-05	E	jpm-pm
2968	2968	JPMORGAN CHASE & CO	JPM	46625H100	19617	6020	522110.0	N	02	LC	75044	20436	1987-05-21	1992-03-26	jpm
2968	2968	JPMORGAN CHASE & CO	JPM	46625H100	19617	6020	522110.0	N	02	LC	75044	20436	1987-05-21	1992-03-26	jpm-pc
2968	2968	JPMORGAN CHASE & CO	JPM	46625H100	19617	6020	522110.0	N	02	LC	75044	20436	1987-05-21	1992-03-26	jpm-pd
2968	2968	JPMORGAN CHASE & CO	JPM	46625H100	19617	6020	522110.0	N	02	LC	75044	20436	1987-05-21	1992-03-26	amj
2968	2968	JPMORGAN CHASE & CO	JPM	46625H100	19617	6020	522110.0	N	02	LC	75044	20436	1987-05-21	1992-03-26	jpm-pj
2968	2968	JPMORGAN CHASE & CO	JPM	46625H100	19617	6020	522110.0	N	02	LC	75044	20436	1987-05-21	1992-03-26	jpm-pk
2968	2968	JPMORGAN CHASE & CO	JPM	46625H100	19617	6020	522110.0	N	02	LC	75044	20436	1987-05-21	1992-03-26	jpm-pl
2968	2968	JPMORGAN CHASE & CO	JPM	46625H100	19617	6020	522110.0	N	02	LC	75044	20436	1987-05-21	1992-03-26	jpm-pm
2986	2986	CHESAPEAKE UTILITIES CORP	CPK	165303108	19745	4923	221210.0	P	01	LU	23182	892	1977-01-31	E	cpk
2986	2986	CHESAPEAKE UTILITIES CORP	CPK	165303108	19745	4923	221210.0	C	00X	LU	23182	892	1977-01-01	1977-01-30	cpk
2990	2990	IMUNON INC	IMNN	15117N602	749647	2836	325414.0	C	01	LC	86589	7449	1985-03-05	1987-03-05	clsn
2990	2990	IMUNON INC	IMNN	15117N602	749647	2836	325414.0	C	01	LC	88208	37489	2000-05-31	E	clsn
2991	2991	CHEVRON CORP	CVX	166764100	93410	2911	324110.0	P	01	LU	14541	20440	1962-01-31	E	cvx
2991	2991	CHEVRON CORP	CVX	166764100	93410	2911	324110.0	C	00X	LU	14541	20440	1950-01-01	1962-01-30	cvx
3007	3007	BRINKER INTL INC	EAT	109641100	703351	5812	722511.0	P	01	LU	23297	6760	1984-01-06	E	eat
3026	3026	CHURCH & DWIGHT INC	CHD	171340102	313927	2840	325611.0	P	01	LU	23393	1103	1976-12-30	E	chd
3028	3028	CHURCHILL DOWNS INC	CHDN	171484108	20212	7990	713210.0	P	01	LC	79026	27849	1993-03-29	E	chdn
3036	3036	CINCINNATI BELL INC	CBB	171871502	716133	4813	517311.0	P	01	LC	47677	20448	1969-02-06	2021-09-30	
3062	3062	CINTAS CORP	CTAS	172908105	723254	7200	812331.0	P	01	LC	23660	6304	1983-08-19	E	ctas
3105	3105	IHEARTMEDIA INC	IHRT	45174J509	1400891	4832	516110.0	P	09	LC	18845	56830	2019-07-18	E	ihrt
3105	3105	IHEARTMEDIA INC	IHRT	45174J509	1400891	4832	516110.0	P	09	LC	18845	56830	2019-07-18	E	ihrtb
3105	3105	IHEARTMEDIA INC	IHRT	45174J509	1400891	4832	516110.0	P	01	LC	24046	6996	1984-04-19	2008-07-30	ihrt
3105	3105	IHEARTMEDIA INC	IHRT	45174J509	1400891	4832	516110.0	P	01	LC	24046	6996	1984-04-19	2008-07-30	ihrtb
3107	3107	CLEVELAND-CLIFFS INC	CLF	185899101	764065	3310	331110.0	P	01	LC	27422	20462	1962-01-31	E	clf
3121	3121	CLOROX CO/DE	CLX	189054109	21076	2842	325612.0	P	01	LU	46578	20463	1968-08-01	E	clx
3144	3144	COCA-COLA CO	KO	191216100	21344	2086	312111.0	P	01	LU	11308	20468	1962-01-31	E	ko
3144	3144	COCA-COLA CO	KO	191216100	21344	2086	312111.0	C	00X	LU	11308	20468	1950-01-01	1962-01-30	ko
3153	3153	COEUR MINING INC	CDE	192108504	215466	1040	21222.0	P	01	LC	24441	1071	1979-07-25	E	cde
3157	3157	COHERENT INC	COHR.1	192479103	21510	3826	334516.0	P	01	LU	24476	1033	1972-12-14	2022-07-29	
3158	3158	COHU INC	COHU	192576106	21535	3825	334515.0	P	01	LU	30648	20470	1964-12-31	E	cohu
3169	3169	ONCOMED PHARMACEUTICALS	OMED.2	68234X102	1302573	2836	325414.0	P	01	LC	14055	54485	2013-07-18	2019-04-30	
3170	3170	COLGATE-PALMOLIVE CO	CL	194162103	21665	2844	325611.0	P	01	LU	18729	20473	1962-01-31	E	cl
3170	3170	COLGATE-PALMOLIVE CO	CL	194162103	21665	2844	325611.0	C	00X	LU	18729	20473	1950-01-01	1962-01-30	cl
3221	3221	AON PLC	AON	G0403H108	315293	6411	524210.0	P	01	LC	61735	20203	1980-06-02	E	aon
3221	3221	AON PLC	AON	G0403H108	315293	6411	524210.0	P	01	LC	24986	23306	1972-12-14	1980-05-30	aon
3226	3226	COMCAST CORP	CMCSA	20030N101	1166691	4841	516210.0	J	02	LC	89565	43613	2002-11-19	2016-01-29	cmcsa
3226	3226	COMCAST CORP	CMCSA	20030N101	1166691	4841	516210.0	J	02	LC	89565	43613	2002-11-19	2016-01-29	ccz
3226	3226	COMCAST CORP	CMCSA	20030N101	1166691	4841	516210.0	J	01	LC	25022	962	1993-12-01	2002-10-31	cmcsa
3226	3226	COMCAST CORP	CMCSA	20030N101	1166691	4841	516210.0	J	01	LC	25022	962	1993-12-01	2002-10-31	ccz
3226	3226	COMCAST CORP	CMCSA	20030N101	1166691	4841	516210.0	J	02	LC	11997	962	2002-11-01	2002-11-18	cmcsa
3226	3226	COMCAST CORP	CMCSA	20030N101	1166691	4841	516210.0	J	02	LC	11997	962	2002-11-01	2002-11-18	ccz
3226	3226	COMCAST CORP	CMCSA	20030N101	1166691	4841	516210.0	P	01	LC	25022	962	2002-11-01	2002-11-18	cmcsa
3226	3226	COMCAST CORP	CMCSA	20030N101	1166691	4841	516210.0	P	01	LC	25022	962	2002-11-01	2002-11-18	ccz
3226	3226	COMCAST CORP	CMCSA	20030N101	1166691	4841	516210.0	C	00X	LC	25022	962	1974-01-01	1974-01-30	cmcsa
3226	3226	COMCAST CORP	CMCSA	20030N101	1166691	4841	516210.0	C	00X	LC	25022	962	1974-01-01	1974-01-30	ccz
3226	3226	COMCAST CORP	CMCSA	20030N101	1166691	4841	516210.0	P	02	LC	11997	962	1993-12-01	2002-10-31	cmcsa
3226	3226	COMCAST CORP	CMCSA	20030N101	1166691	4841	516210.0	P	02	LC	11997	962	1993-12-01	2002-10-31	ccz
3226	3226	COMCAST CORP	CMCSA	20030N101	1166691	4841	516210.0	P	01	LC	25022	962	1974-01-31	1993-11-30	cmcsa
3226	3226	COMCAST CORP	CMCSA	20030N101	1166691	4841	516210.0	P	01	LC	25022	962	1974-01-31	1993-11-30	ccz
3226	3226	COMCAST CORP	CMCSA	20030N101	1166691	4841	516210.0	P	01	LC	89525	43613	2002-11-19	E	cmcsa
3226	3226	COMCAST CORP	CMCSA	20030N101	1166691	4841	516210.0	P	01	LC	89525	43613	2002-11-19	E	ccz
3226	3226	COMCAST CORP	CMCSA	20030N101	1166691	4841	516210.0	N	02	LC	11997	962	1986-12-24	1993-11-30	cmcsa
3226	3226	COMCAST CORP	CMCSA	20030N101	1166691	4841	516210.0	N	02	LC	11997	962	1986-12-24	1993-11-30	ccz
3231	3231	COMERICA INC	CMA	200340107	28412	6020	522110.0	P	01	LC	25081	1261	1972-12-14	E	cma
3243	3243	CITIGROUP INC	C	172967424	831001	6199	522110.0	P	01	LC	70519	20483	1986-10-29	E	c
3243	3243	CITIGROUP INC	C	172967424	831001	6199	522110.0	P	01	LC	70519	20483	1986-10-29	E	c-pj
3243	3243	CITIGROUP INC	C	172967424	831001	6199	522110.0	P	01	LC	70519	20483	1986-10-29	E	c-pk
3243	3243	CITIGROUP INC	C	172967424	831001	6199	522110.0	P	01	LC	70519	20483	1986-10-29	E	c-pn
3246	3246	COMMERCIAL METALS	CMC	201723103	22444	3312	331110.0	C	01	LU	30680	20484	1962-07-02	E	cmc
3278	3278	AVIS BUDGET GROUP INC	CAR	053774105	723612	7510	532111.0	P	01	LC	25487	6391	1983-09-14	E	car
3310	3310	CA INC	CA.1	12673P105	356028	7372	511210.0	P	01	LC	25778	5220	1981-12-15	2018-11-30	
3336	3336	DXC TECHNOLOGY CO	DXC	23355L106	1688568	7370	541512.0	P	01	LC	40125	20493	1964-04-30	E	dxc
3342	3342	COMPUTER TASK GROUP INC	CTG	205477102	23111	7370	541519.0	P	01	LU	26084	1186	1980-03-20	2023-12-29	ctg
3358	3358	COMTECH TELECOMMUN	CMTL	205826209	23197	3663	334220.0	C	02	LU	26201	9654	1972-12-14	E	cmtl
3362	3362	CONAGRA BRANDS INC	CAG	205887102	23217	2000	31142.0	C	01	LC	56274	20495	1972-12-14	E	cag
3369	3369	RAVE RESTAURANT GROUP INC	RAVE	754198109	718332	6794	533110.0	C	01	LC	79618	12384	1993-09-01	E	rave
3369	3369	RAVE RESTAURANT GROUP INC	RAVE	754198109	718332	6794	533110.0	C	01	LC	26308	6700	1983-12-14	1990-01-23	rave
3382	3382	SHUTTERSTOCK INC	SSTK	825690100	1549346	7370	516210.0	P	01	LC	13625	54209	2012-10-11	E	sstk
3429	3429	CTO REALTY GROWTH INC	CTO	22948Q101	23795	6798	5311.0	C	00X	LU	26650	1177	1974-01-01	1975-01-30	cto
3429	3429	CTO REALTY GROWTH INC	CTO	22948Q101	23795	6798	5311.0	C	00X	LU	26650	1177	1974-01-01	1975-01-30	cto-pa
3429	3429	CTO REALTY GROWTH INC	CTO	22948Q101	23795	6798	5311.0	P	01	LU	26650	1177	1975-01-31	E	cto
3429	3429	CTO REALTY GROWTH INC	CTO	22948Q101	23795	6798	5311.0	P	01	LU	26650	1177	1975-01-31	E	cto-pa
3439	3439	CMS ENERGY CORP	CMS	125896100	811156	4931	22111.0	J	02	LC	81770	20361	1995-07-21	1999-10-22	cms
3439	3439	CMS ENERGY CORP	CMS	125896100	811156	4931	22111.0	J	02	LC	81770	20361	1995-07-21	1999-10-22	cmsa
3439	3439	CMS ENERGY CORP	CMS	125896100	811156	4931	22111.0	J	02	LC	81770	20361	1995-07-21	1999-10-22	cmsc
3439	3439	CMS ENERGY CORP	CMS	125896100	811156	4931	22111.0	J	02	LC	81770	20361	1995-07-21	1999-10-22	cmsd
3439	3439	CMS ENERGY CORP	CMS	125896100	811156	4931	22111.0	J	02	LC	81770	20361	1995-07-21	1999-10-22	cms-pc
3439	3439	CMS ENERGY CORP	CMS	125896100	811156	4931	22111.0	P	01	LC	23229	20361	1987-05-27	E	cms
3439	3439	CMS ENERGY CORP	CMS	125896100	811156	4931	22111.0	P	01	LC	23229	20361	1987-05-27	E	cmsa
3439	3439	CMS ENERGY CORP	CMS	125896100	811156	4931	22111.0	P	01	LC	23229	20361	1987-05-27	E	cmsc
3439	3439	CMS ENERGY CORP	CMS	125896100	811156	4931	22111.0	P	01	LC	23229	20361	1987-05-27	E	cmsd
3439	3439	CMS ENERGY CORP	CMS	125896100	811156	4931	22111.0	P	01	LC	23229	20361	1987-05-27	E	cms-pc
3469	3469	CONTINENTAL RESOURCES INC	CLR	212015101	732834	1311	211120.0	P	02	LC	91983	52253	2007-05-15	2022-11-30	clr
3502	3502	COOPER TIRE & RUBBER CO	CTB	216831107	24491	3011	326211.0	P	01	LU	27430	20518	1962-01-31	2021-06-30	
3504	3504	COOPER COS INC (THE)	COO	216648501	711404	3851	339115.0	P	01	LC	65541	5780	1983-01-21	E	coo
3505	3505	MOLSON COORS BEVERAGE CO	TAP	60871R209	24545	2082	312120.0	P	01	LC	59248	33	1975-06-12	E	tap
3505	3505	MOLSON COORS BEVERAGE CO	TAP	60871R209	24545	2082	312120.0	P	01	LC	59248	33	1975-06-12	E	tap-a
3505	3505	MOLSON COORS BEVERAGE CO	TAP	60871R209	24545	2082	312120.0	J	02	LC	90562	33	2005-02-09	E	tap
3505	3505	MOLSON COORS BEVERAGE CO	TAP	60871R209	24545	2082	312120.0	J	02	LC	90562	33	2005-02-09	E	tap-a
3532	3532	CORNING INC	GLW	219350105	24741	3679	334419.0	P	01	LU	22293	20523	1962-01-31	E	glw
3532	3532	CORNING INC	GLW	219350105	24741	3679	334419.0	C	00X	LU	22293	20523	1950-01-01	1962-01-30	glw
3562	3562	COUSINS PROPERTIES INC	CUZ	222795502	25232	6798	531120.0	P	01	LC	27511	1072	1974-01-31	E	cuz
3570	3570	CRACKER BARREL OLD CTRY STOR	CBRL	22410J106	1067294	5812	722511.0	P	01	LC	27562	5169	1981-11-05	E	cbrl
3580	3580	CRANE CO	CR	224408104	1944013	3490	332912.0	P	01	LC	23744	59505	2023-04-04	E	
3580	3580	CRANE CO	CR	224408104	1944013	3490	332912.0	C	00X	LC	20204	20531	1950-01-01	1962-01-30	
3580	3580	CRANE CO	CR	224408104	1944013	3490	332912.0	P	01	LC	20204	20531	1962-01-31	2023-04-03	
3581	3581	CRAWFORD & CO	CRD.A	224633206	25475	6411	524291.0	P	02	LC	76274	1100	2018-01-01	E	crd-a
3581	3581	CRAWFORD & CO	CRD.A	224633206	25475	6411	524291.0	P	02	LC	76274	1100	2018-01-01	E	crd-b
3581	3581	CRAWFORD & CO	CRD.A	224633206	25475	6411	524291.0	J	01	LC	27618	1100	2018-01-01	E	crd-a
3581	3581	CRAWFORD & CO	CRD.A	224633206	25475	6411	524291.0	J	01	LC	27618	1100	2018-01-01	E	crd-b
3581	3581	CRAWFORD & CO	CRD.A	224633206	25475	6411	524291.0	J	02	LC	76274	1100	2004-07-01	2017-12-31	crd-a
3581	3581	CRAWFORD & CO	CRD.A	224633206	25475	6411	524291.0	J	02	LC	76274	1100	2004-07-01	2017-12-31	crd-b
3581	3581	CRAWFORD & CO	CRD.A	224633206	25475	6411	524291.0	P	01	LC	27618	1100	1972-12-14	1994-04-30	crd-a
3581	3581	CRAWFORD & CO	CRD.A	224633206	25475	6411	524291.0	P	01	LC	27618	1100	1972-12-14	1994-04-30	crd-b
3581	3581	CRAWFORD & CO	CRD.A	224633206	25475	6411	524291.0	P	01	LC	27618	1100	2004-07-01	2017-12-31	crd-a
3581	3581	CRAWFORD & CO	CRD.A	224633206	25475	6411	524291.0	P	01	LC	27618	1100	2004-07-01	2017-12-31	crd-b
3581	3581	CRAWFORD & CO	CRD.A	224633206	25475	6411	524291.0	J	02	LC	76274	1100	1990-08-01	1994-04-30	crd-a
3581	3581	CRAWFORD & CO	CRD.A	224633206	25475	6411	524291.0	J	02	LC	76274	1100	1990-08-01	1994-04-30	crd-b
3581	3581	CRAWFORD & CO	CRD.A	224633206	25475	6411	524291.0	P	02	LC	76274	1100	1994-05-01	2004-06-30	crd-a
3581	3581	CRAWFORD & CO	CRD.A	224633206	25475	6411	524291.0	P	02	LC	76274	1100	1994-05-01	2004-06-30	crd-b
3581	3581	CRAWFORD & CO	CRD.A	224633206	25475	6411	524291.0	J	01	LC	27618	1100	1994-05-01	2004-06-30	crd-a
3581	3581	CRAWFORD & CO	CRD.A	224633206	25475	6411	524291.0	J	01	LC	27618	1100	1994-05-01	2004-06-30	crd-b
3592	3592	ONEMAIN HOLDINGS INC	OMF	68268W103	1584207	6141	522291.0	P	01	LC	14229	54593	2013-10-16	E	omf
3607	3607	CHEMTURA CORP	CHMT.1	163893209	1091862	2820	325212.0	P	01	LC	38420	20532	1962-08-13	2009-03-18	
3607	3607	CHEMTURA CORP	CHMT.1	163893209	1091862	2820	325212.0	P	02	LC	38420	20532	2010-11-11	2017-04-28	
3619	3619	CROWN HOLDINGS INC	CCK	228368106	1219601	3411	332431.0	C	00X	LU	17726	20537	1950-01-01	1962-01-30	cck
3619	3619	CROWN HOLDINGS INC	CCK	228368106	1219601	3411	332431.0	P	01	LU	17726	20537	1962-01-31	E	cck
3622	3622	CROWN CRAFTS INC	CRWS	228309100	25895	2211	313210.0	P	01	LU	59256	20538	1972-12-14	E	crws
3639	3639	CUBIC CORP	CUB.1	229669106	26076	3578	333318.0	P	01	LU	31077	20541	1966-04-29	2021-05-28	
3643	3643	CULLEN/FROST BANKERS INC	CFR	229899109	39263	6020	522110.0	P	01	LU	27888	840	1977-07-08	E	cfr
3643	3643	CULLEN/FROST BANKERS INC	CFR	229899109	39263	6020	522110.0	P	01	LU	27888	840	1977-07-08	E	cfr-pb
3647	3647	CULP INC	CULP	230215105	723603	2211	313210.0	P	01	LU	27909	6342	1983-08-30	E	culp
3650	3650	CUMMINS INC	CMI	231021106	26172	3510	333618.0	P	01	LU	41080	20543	1964-09-10	E	cmi
3662	3662	CURTISS-WRIGHT CORP	CW	231561101	26324	3728	332912.0	N	02	LC	89223	20546	2001-11-06	2005-05-24	cw
3662	3662	CURTISS-WRIGHT CORP	CW	231561101	26324	3728	332912.0	C	00X	LC	18091	20546	1950-01-01	1962-01-30	cw
3662	3662	CURTISS-WRIGHT CORP	CW	231561101	26324	3728	332912.0	P	01	LC	18091	20546	1962-01-31	E	cw
3691	3691	GT BIOPHARMA INC	GTBP	36254L308	109657	2834	325412.0	C	01	LC	29744	1308	2021-02-11	E	gtbp
3691	3691	GT BIOPHARMA INC	GTBP	36254L308	109657	2834	325412.0	C	01	LC	29744	1308	1972-12-14	2001-05-16	gtbp
3708	3708	WENDY'S CO	WEN	95058W100	30697	5812	722511.0	P	03	LC	19828	20550	2008-09-30	E	wen
3708	3708	WENDY'S CO	WEN	95058W100	30697	5812	722511.0	P	03	LC	89818	20550	2003-09-02	2008-09-29	wen
3708	3708	WENDY'S CO	WEN	95058W100	30697	5812	722511.0	P	01	LC	19828	20550	1976-06-17	2003-08-31	wen
3708	3708	WENDY'S CO	WEN	95058W100	30697	5812	722511.0	J	01	LC	19828	20550	2003-09-01	2008-09-29	wen
3708	3708	WENDY'S CO	WEN	95058W100	30697	5812	722511.0	P	01	LC	19828	20550	1962-01-31	1967-11-05	wen
3708	3708	WENDY'S CO	WEN	95058W100	30697	5812	722511.0	C	00X	LC	19828	20550	1950-01-01	1962-01-30	wen
3734	3734	DANA INC	DAN	235825205	26780	3714	336390.0	P	01	LC	11607	20556	1962-01-31	2006-03-03	dan
3734	3734	DANA INC	DAN	235825205	26780	3714	336390.0	C	00X	LC	11607	20556	1949-09-01	1962-01-30	dan
3734	3734	DANA INC	DAN	235825205	26780	3714	336390.0	P	02	LC	92570	52956	2008-02-01	E	dan
3735	3735	DANAHER CORP	DHR	235851102	313616	3826	334516.0	P	01	LC	49680	20557	1970-01-30	E	dhr
3735	3735	DANAHER CORP	DHR	235851102	313616	3826	334516.0	P	01	LC	49680	20557	1970-01-30	E	dhr-pb
3735	3735	DANAHER CORP	DHR	235851102	313616	3826	334516.0	C	00X	LC	49680	20557	1970-01-01	1970-01-29	dhr
3735	3735	DANAHER CORP	DHR	235851102	313616	3826	334516.0	C	00X	LC	49680	20557	1970-01-01	1970-01-29	dhr-pb
3761	3761	DATA I/O CORP	DAIO	237690102	351998	3825	334515.0	P	01	LU	28629	1239	1981-05-05	E	daio
3806	3806	DAWSON GEOPHYSICAL CO	DWSN	239360100	799165	1382	213112.0	P	01	LC	80912	27333	2015-02-12	E	dwsn
3806	3806	DAWSON GEOPHYSICAL CO	DWSN	239360100	799165	1382	213112.0	P	01	LC	29050	1433	1981-04-23	2015-02-11	dwsn
3813	3813	TARGET CORP	TGT	87612E106	27419	5331	455219.0	P	01	LU	49154	20561	1969-09-08	E	tgt
3835	3835	DEERE & CO	DE	244199105	315189	3523	333111.0	P	01	LC	19350	20566	1962-01-31	E	de
3835	3835	DEERE & CO	DE	244199105	315189	3523	333111.0	C	00X	LC	19350	20566	1949-11-01	1962-01-30	de
3851	3851	DELTA AIR LINES INC	DAL	247361702	27904	4512	481111.0	P	01	LC	26112	20569	1962-01-31	2005-10-12	dal
3851	3851	DELTA AIR LINES INC	DAL	247361702	27904	4512	481111.0	P	03	LC	91926	20569	2007-05-03	E	dal
3863	3863	DELUXE CORP	DLX	248019101	27996	2780	3231.0	P	01	LU	61743	1285	1972-12-14	E	dlx
3897	3897	DTE ENERGY CO	DTE	233331107	936340	4931	2211.0	P	01	LC	11674	20574	1962-01-31	E	dte
3897	3897	DTE ENERGY CO	DTE	233331107	936340	4931	2211.0	P	01	LC	11674	20574	1962-01-31	E	dtw
3897	3897	DTE ENERGY CO	DTE	233331107	936340	4931	2211.0	P	01	LC	11674	20574	1962-01-31	E	dtb
3897	3897	DTE ENERGY CO	DTE	233331107	936340	4931	2211.0	P	01	LC	11674	20574	1962-01-31	E	dtg
3897	3897	DTE ENERGY CO	DTE	233331107	936340	4931	2211.0	P	01	LC	11674	20574	1962-01-31	E	dtp
3905	3905	ADTALEM GLOBAL EDUCATION INC	ATGE	00737L103	730464	8200	611310.0	C	01	LU	76708	10992	1991-06-21	E	atge
3937	3937	PYXUS INTERNATIONAL INC	PYYX	74737V205	939930	5190	424940.0	P	01	LC	29867	1263	1972-12-14	2020-06-15	pyyx
3946	3946	DIEBOLD NIXDORF INC	DBD	253651202	28823	3578	334118.0	P	01	LC	40440	20582	1964-04-27	2023-05-26	dbd
3946	3946	DIEBOLD NIXDORF INC	DBD	253651202	28823	3578	334118.0	P	02	LC	24090	20582	2023-08-14	E	dbd
3962	3962	NORTECH SYSTEMS INC	NSYS	656553104	722313	3679	334418.0	C	02	LU	79322	29244	1993-06-10	E	nsys
3969	3969	DIODES INC	DIOD	254543101	29002	3674	334413.0	P	01	LC	44943	20585	1968-01-31	E	diod
3980	3980	DISNEY (WALT) CO	DIS	254687106	1744489	4888	516120.0	P	01	LC	26403	20587	1962-01-31	E	dis
4001	4001	DIXIE GROUP INC	DXYN	255519100	29332	2273	314110.0	C	01	LU	10886	8762	1986-11-25	E	dxyn
4016	4016	DOLLAR GENERAL CORP	DG	256677105	29534	5331	455219.0	P	01	LC	30382	1354	1972-12-14	2007-07-06	dg
4016	4016	DOLLAR GENERAL CORP	DG	256677105	29534	5331	455219.0	P	02	LC	93096	53264	2009-11-13	E	dg
4029	4029	DOMINION ENERGY INC	D	25746U109	715957	4911	22111.0	P	01	LC	64936	20592	1983-06-02	E	d
4036	4036	DONALDSON CO INC	DCI	257651109	29644	3714	336390.0	P	01	LU	61313	1344	1972-12-14	E	dci
4040	4040	DONNELLEY (R R) & SONS CO	RRD	257867200	29669	2750	32311.0	P	01	LC	38682	20594	1962-12-07	2022-02-28	
4058	4058	DOVER CORP	DOV	260003108	29905	3559	333248.0	P	01	LC	25953	20596	1962-01-31	E	dov
4058	4058	DOVER CORP	DOV	260003108	29905	3559	333248.0	C	00X	LC	25953	20596	1960-01-01	1962-01-30	dov
4060	4060	DUPONT DE NEMOURS INC	DD	26614N102	1666700	2820	3252.0	P	01	LC	20626	20597	1962-01-31	2017-08-31	dd
4060	4060	DUPONT DE NEMOURS INC	DD	26614N102	1666700	2820	3252.0	C	00X	LC	20626	20597	1950-06-01	1962-01-30	dd
4060	4060	DUPONT DE NEMOURS INC	DD	26614N102	1666700	2820	3252.0	P	01	LC	16851	56027	2017-09-01	E	dd
4066	4066	OMNICOM GROUP INC	OMC	681919106	29989	7311	541810.0	P	01	LU	30681	1367	1972-12-14	E	omc
4072	4072	ASCENA RETAIL GROUP INC	ASNAQ	04351G200	1498301	5621	448120.0	P	01	LC	30737	5957	1983-05-04	2021-03-08	
4087	4087	DU PONT (E I) DE NEMOURS	DD.2	263534109	30554	2820	3252.0	P	01	LC	11703	20606	1962-01-31	2017-08-31	cta-pa
4087	4087	DU PONT (E I) DE NEMOURS	DD.2	263534109	30554	2820	3252.0	P	01	LC	11703	20606	1962-01-31	2017-08-31	cta-pb
4087	4087	DU PONT (E I) DE NEMOURS	DD.2	263534109	30554	2820	3252.0	C	00X	LC	11703	20606	1950-01-01	1962-01-30	cta-pa
4087	4087	DU PONT (E I) DE NEMOURS	DD.2	263534109	30554	2820	3252.0	C	00X	LC	11703	20606	1950-01-01	1962-01-30	cta-pb
4091	4091	DUCOMMUN INC	DCO	264147109	30305	3728	336413.0	P	01	LU	63132	1418	1972-12-14	E	dco
4093	4093	DUKE ENERGY CORP	DUK	26441C204	1326160	4931	2211.0	P	01	LC	27959	20608	1962-01-31	E	duk
4093	4093	DUKE ENERGY CORP	DUK	26441C204	1326160	4931	2211.0	P	01	LC	27959	20608	1962-01-31	E	duk-pa
4093	4093	DUKE ENERGY CORP	DUK	26441C204	1326160	4931	2211.0	P	01	LC	27959	20608	1962-01-31	E	dukb
4094	4094	DUN & BRADSTREET HOLDNGS INC	DNB	26484T106	1799208	7323	561450.0	P	01	LC	88590	39133	2000-10-03	2019-02-28	dnb
4094	4094	DUN & BRADSTREET HOLDNGS INC	DNB	26484T106	1799208	7323	561450.0	P	01	LC	48506	20610	1969-06-12	2000-10-02	dnb
4094	4094	DUN & BRADSTREET HOLDNGS INC	DNB	26484T106	1799208	7323	561450.0	P	03	LC	19495	57135	2020-07-01	E	dnb
4108	4108	FLOWSERVE CORP	FLS	34354P105	30625	3561	333914.0	P	01	LU	30940	1425	1972-12-14	E	fls
4115	4115	DYCOM INDUSTRIES INC	DY	267475101	67215	1623	237130.0	P	01	LU	12008	7062	1984-05-31	E	dy
4124	4124	DYNATRONICS CORP	DYNT	268157500	720875	3845	334510.0	P	01	LU	31051	6593	1984-01-31	E	dynt
4130	4130	DYNASIL CORP OF AMERICA	DYSL	268102209	30831	3827	333314.0	C	01	LC	12486	27382	2010-12-17	E	dysl
4145	4145	REVVITY INC	RVTY	714046109	31791	3826	334516.0	P	01	LU	42200	20616	1965-07-06	E	pki
4186	4186	EASTERN CO	EML	276317104	31107	3420	332510.0	P	01	LU	31480	20622	1962-07-02	E	eml
4193	4193	EASTGROUP PROPERTIES	EGP	277276101	49600	6798	531120.0	P	01	LC	85082	32019	1997-06-11	E	egp
4193	4193	EASTGROUP PROPERTIES	EGP	277276101	49600	6798	531120.0	P	01	LC	56290	20625	1973-01-17	1997-06-10	egp
4194	4194	EASTMAN KODAK CO	KODK	277461406	31235	3861	325992.0	P	02	LC	14276	20626	2013-11-01	E	kodk
4194	4194	EASTMAN KODAK CO	KODK	277461406	31235	3861	325992.0	P	01	LC	11754	20626	1962-01-31	2012-01-18	kodk
4194	4194	EASTMAN KODAK CO	KODK	277461406	31235	3861	325992.0	C	00X	LC	11754	20626	1950-01-01	1962-01-30	kodk
4201	4201	EATON VANCE CORP	EV.1	278265103	350797	6282	523930.0	C	01	LU	31500	1451	1973-01-31	2021-02-28	
4213	4213	ECOLAB INC	ECL	278865100	31462	2842	325612.0	P	01	LU	70578	1467	1972-12-14	E	ecl
4225	4225	EDUCATIONAL DEVELOPMENT CORP	EDUC	281479105	31667	5190	424920.0	C	00X	LU	31668	1477	1973-03-01	1978-01-30	educ
4225	4225	EDUCATIONAL DEVELOPMENT CORP	EDUC	281479105	31667	5190	424920.0	P	01	LU	31668	1477	1978-01-31	E	educ
4241	4241	EL PASO ELECTRIC CO	EE.2	283677854	31978	4911	22111.0	P	01	LC	31764	1507	1972-12-14	1995-06-21	
4241	4241	EL PASO ELECTRIC CO	EE.2	283677854	31978	4911	22111.0	P	01	LC	82855	1507	1996-02-27	2020-07-31	
4274	4274	ELECTRO SCIENTIFIC INDS INC	ESIO	285229100	726514	3690	335999.0	P	01	LU	32054	6507	1983-10-18	2019-02-28	
4321	4321	EMERSON ELECTRIC CO	EMR	291011104	32604	3823	334513.0	P	01	LC	22103	20643	1962-01-31	E	emr
4321	4321	EMERSON ELECTRIC CO	EMR	291011104	32604	3823	334513.0	C	00X	LC	22103	20643	1949-10-01	1962-01-30	emr
4341	4341	SORL AUTO PARTS INC	SORL	78461U101	714284	3714	336340.0	C	00X	LC	32548	6311	1983-08-23	1983-11-29	
4341	4341	SORL AUTO PARTS INC	SORL	78461U101	714284	3714	336340.0	C	01	LC	32548	6311	1983-11-30	1987-06-14	
4341	4341	SORL AUTO PARTS INC	SORL	78461U101	714284	3714	336340.0	C	01	LC	32548	6311	2006-04-18	2020-05-14	
4351	4351	ENERGEN CORP	EGN	29265N108	277595	4924	211111.0	P	01	LU	26470	20649	1962-01-31	2018-11-30	
4367	4367	WEATHERFORD INTL PLC	WFRD	G48833118	1603923	1381	213111.0	P	05	LC	32791	1543	2021-06-02	E	wfrd
4367	4367	WEATHERFORD INTL PLC	WFRD	G48833118	1603923	1381	213111.0	P	05	LC	32791	1543	2021-06-02	E	wftuf
4367	4367	WEATHERFORD INTL PLC	WFRD	G48833118	1603923	1381	213111.0	P	01	LC	32791	1543	1979-01-31	2015-05-12	wfrd
4367	4367	WEATHERFORD INTL PLC	WFRD	G48833118	1603923	1381	213111.0	P	01	LC	32791	1543	1979-01-31	2015-05-12	wftuf
4367	4367	WEATHERFORD INTL PLC	WFRD	G48833118	1603923	1381	213111.0	C	00X	LC	32791	1543	1977-01-01	1979-01-30	wfrd
4367	4367	WEATHERFORD INTL PLC	WFRD	G48833118	1603923	1381	213111.0	C	00X	LC	32791	1543	1977-01-01	1979-01-30	wftuf
4383	4383	ATMOS ENERGY CORP	ATO	049560105	731802	4924	221210.0	P	01	LU	32986	6748	1983-12-28	E	ato
4384	4384	MARA HOLDINGS INC	MARA	565788106	1507605	7370	518210.0	P	01	LC	14813	54961	2014-07-28	E	mara
4418	4418	ENZO BIOCHEM INC	ENZ	294100102	316253	3826	334516.0	P	01	LU	33209	1557	1980-06-12	E	enz
4423	4423	EQUIFAX INC	EFX	294429105	33185	7323	561450.0	P	01	LU	52476	20659	1971-05-11	E	efx
4430	4430	EQT CORP	EQT	26884L109	33213	1311	2111.0	C	00X	LC	24328	20662	1951-01-01	1962-01-30	eqt
4430	4430	EQT CORP	EQT	26884L109	33213	1311	2111.0	P	01	LC	24328	20662	1962-01-31	E	eqt
4439	4439	TELEFONAKTIEBOLAGET LM ERICS	ERIC	294821608	717826	3663	334220.0	P	90	LU	33452	1577	1972-12-14	E	eric
4439	4439	TELEFONAKTIEBOLAGET LM ERICS	ERIC	294821608	717826	3663	334220.0	P	90	LU	33452	1577	1972-12-14	E	erixf
4448	4448	ESCALADE INC	ESCA	296056104	33488	3949	339920.0	C	00X	LU	33532	1582	1974-01-01	1978-01-30	esca
4448	4448	ESCALADE INC	ESCA	296056104	33488	3949	339920.0	P	01	LU	33532	1582	1978-01-31	E	esca
4460	4460	ESTERLINE TECHNOLOGIES CORP	ESL	297425100	33619	3812	334511.0	P	01	LU	50788	20671	1970-06-23	2019-03-29	
4462	4462	NEWMARKET CORP	NEU	651587107	1282637	2860	325199.0	P	01	LU	42550	20672	1965-10-14	E	neu
4485	4485	KINGSTONE COS INC	KINS	496719105	33992	6331	524126.0	C	01	LC	33770	1610	1978-12-04	1982-06-15	kins
4485	4485	KINGSTONE COS INC	KINS	496719105	33992	6331	524126.0	C	01	LC	33770	1610	2004-10-07	E	kins
4485	4485	KINGSTONE COS INC	KINS	496719105	33992	6331	524126.0	C	01	LC	33770	1610	1989-12-14	1992-08-19	kins
4497	4497	DMC GLOBAL INC	BOOM	23291C103	34067	3533	333132.0	C	02	LU	33823	9028	1979-06-29	E	boom
4498	4498	INSTEEL INDUSTRIES	IIIN	45774W108	764401	3310	332618.0	P	01	LU	87725	7518	1985-04-25	E	iiin
4503	4503	EXXON MOBIL CORP	XOM	30231G102	34088	2911	324110.0	P	01	LC	11850	20678	1962-01-31	E	xom
4503	4503	EXXON MOBIL CORP	XOM	30231G102	34088	2911	324110.0	C	00X	LC	11850	20678	1950-01-01	1962-01-30	xom
4510	4510	FMC CORP	FMC	302491303	37785	2870	325320.0	P	01	LU	19166	20681	1962-01-31	E	fmc
4510	4510	FMC CORP	FMC	302491303	37785	2870	325320.0	C	00X	LU	19166	20681	1950-01-01	1962-01-30	fmc
4517	4517	NEXTERA ENERGY INC	NEE	65339F101	753308	4911	2211.0	P	01	LC	24205	20684	1962-01-31	E	nee
4517	4517	NEXTERA ENERGY INC	NEE	65339F101	753308	4911	2211.0	P	01	LC	24205	20684	1962-01-31	E	nee-pn
4517	4517	NEXTERA ENERGY INC	NEE	65339F101	753308	4911	2211.0	P	01	LC	24205	20684	1962-01-31	E	nee-pp
4517	4517	NEXTERA ENERGY INC	NEE	65339F101	753308	4911	2211.0	P	01	LC	24205	20684	1962-01-31	E	nee-pq
4517	4517	NEXTERA ENERGY INC	NEE	65339F101	753308	4911	2211.0	C	00X	LC	24205	20684	1951-01-01	1962-01-30	nee
4517	4517	NEXTERA ENERGY INC	NEE	65339F101	753308	4911	2211.0	C	00X	LC	24205	20684	1951-01-01	1962-01-30	nee-pn
4517	4517	NEXTERA ENERGY INC	NEE	65339F101	753308	4911	2211.0	C	00X	LC	24205	20684	1951-01-01	1962-01-30	nee-pp
4517	4517	NEXTERA ENERGY INC	NEE	65339F101	753308	4911	2211.0	C	00X	LC	24205	20684	1951-01-01	1962-01-30	nee-pq
4579	4579	FARMER BROS CO	FARM	307675108	34563	2090	311920.0	P	01	LU	34367	1632	1972-12-14	E	farm
4598	4598	FEDEX CORP	FDX	31428X106	1048911	4513	492110.0	P	01	LU	60628	1685	1978-04-12	E	fdx
4599	4599	RUSSEL METALS INC	RUSMF	781903604	903657	5051	423510.0	N	01	LC	80295	28143	1995-12-29	2000-09-29	
4601	4601	FEDERAL NATIONAL MORTGA ASSN	FNMA	313586109	310522	6111	522299.0	P	01	LC	51043	20695	1970-08-31	2010-07-07	fnma
4601	4601	FEDERAL NATIONAL MORTGA ASSN	FNMA	313586109	310522	6111	522299.0	P	01	LC	51043	20695	1970-08-31	2010-07-07	fnmas
4601	4601	FEDERAL NATIONAL MORTGA ASSN	FNMA	313586109	310522	6111	522299.0	P	01	LC	51043	20695	1970-08-31	2010-07-07	fnmat
4601	4601	FEDERAL NATIONAL MORTGA ASSN	FNMA	313586109	310522	6111	522299.0	P	01	LC	51043	20695	1970-08-31	2010-07-07	fnmaj
4601	4601	FEDERAL NATIONAL MORTGA ASSN	FNMA	313586109	310522	6111	522299.0	P	01	LC	51043	20695	1970-08-31	2010-07-07	fnmah
4601	4601	FEDERAL NATIONAL MORTGA ASSN	FNMA	313586109	310522	6111	522299.0	P	01	LC	51043	20695	1970-08-31	2010-07-07	fnmfn
4601	4601	FEDERAL NATIONAL MORTGA ASSN	FNMA	313586109	310522	6111	522299.0	P	01	LC	51043	20695	1970-08-31	2010-07-07	fnmam
4601	4601	FEDERAL NATIONAL MORTGA ASSN	FNMA	313586109	310522	6111	522299.0	P	01	LC	51043	20695	1970-08-31	2010-07-07	fnman
4601	4601	FEDERAL NATIONAL MORTGA ASSN	FNMA	313586109	310522	6111	522299.0	P	01	LC	51043	20695	1970-08-31	2010-07-07	fnmai
4601	4601	FEDERAL NATIONAL MORTGA ASSN	FNMA	313586109	310522	6111	522299.0	P	01	LC	51043	20695	1970-08-31	2010-07-07	fnmag
4601	4601	FEDERAL NATIONAL MORTGA ASSN	FNMA	313586109	310522	6111	522299.0	P	01	LC	51043	20695	1970-08-31	2010-07-07	fnmfm
4601	4601	FEDERAL NATIONAL MORTGA ASSN	FNMA	313586109	310522	6111	522299.0	P	01	LC	51043	20695	1970-08-31	2010-07-07	fnmak
4601	4601	FEDERAL NATIONAL MORTGA ASSN	FNMA	313586109	310522	6111	522299.0	P	01	LC	51043	20695	1970-08-31	2010-07-07	fnmal
4601	4601	FEDERAL NATIONAL MORTGA ASSN	FNMA	313586109	310522	6111	522299.0	P	01	LC	51043	20695	1970-08-31	2010-07-07	fnmfo
4601	4601	FEDERAL NATIONAL MORTGA ASSN	FNMA	313586109	310522	6111	522299.0	P	01	LC	51043	20695	1970-08-31	2010-07-07	fnmao
4601	4601	FEDERAL NATIONAL MORTGA ASSN	FNMA	313586109	310522	6111	522299.0	P	01	LC	51043	20695	1970-08-31	2010-07-07	fnmap
4605	4605	FEDERAL REALTY INVESTMENT TR	FRT	313745101	34903	6798	531120.0	P	01	LC	58413	20697	1975-06-09	E	frt
4605	4605	FEDERAL REALTY INVESTMENT TR	FRT	313745101	34903	6798	531120.0	P	01	LC	58413	20697	1975-06-09	E	frt-pc
4608	4608	FEDERAL SIGNAL CORP	FSS	313855108	277509	3711	336120.0	P	01	LU	47706	20698	1969-02-11	E	fss
4611	4611	MACY'S INC	M	55616P104	794367	5311	455110.0	C	02	LU	77462	22856	1992-03-17	E	m
4611	4611	MACY'S INC	M	55616P104	794367	5311	455110.0	C	00X	LU	18550	22856	1950-02-01	1962-01-30	m
4611	4611	MACY'S INC	M	55616P104	794367	5311	455110.0	C	02	LU	18550	22856	1962-01-31	1988-07-28	m
4622	4622	FERRO CORP	FOE	315405100	35214	2851	325510.0	C	00X	LU	21135	20699	1950-01-01	1962-01-30	
4622	4622	FERRO CORP	FOE	315405100	35214	2851	325510.0	C	01	LU	21135	20699	1962-01-31	2022-04-29	
4632	4632	LISATA THERAPEUTICS INC	LSTA	128058302	320017	2836	325414.0	P	02	LC	34666	1783	2007-08-09	E	lsta
4632	4632	LISATA THERAPEUTICS INC	LSTA	128058302	320017	2836	325414.0	P	02	LC	34666	1783	2007-08-09	E	clbs
4632	4632	LISATA THERAPEUTICS INC	LSTA	128058302	320017	2836	325414.0	P	02	LC	34666	1783	1981-04-09	1995-10-11	lsta
4632	4632	LISATA THERAPEUTICS INC	LSTA	128058302	320017	2836	325414.0	P	02	LC	34666	1783	1981-04-09	1995-10-11	clbs
4640	4640	FIFTH THIRD BANCORP	FITB	316773100	35527	6020	522110.0	C	00X	LU	34746	1741	1980-01-01	1980-01-30	fitb
4640	4640	FIFTH THIRD BANCORP	FITB	316773100	35527	6020	522110.0	C	00X	LU	34746	1741	1980-01-01	1980-01-30	fitbi
4640	4640	FIFTH THIRD BANCORP	FITB	316773100	35527	6020	522110.0	C	00X	LU	34746	1741	1980-01-01	1980-01-30	fitbo
4640	4640	FIFTH THIRD BANCORP	FITB	316773100	35527	6020	522110.0	C	00X	LU	34746	1741	1980-01-01	1980-01-30	fitbp
4640	4640	FIFTH THIRD BANCORP	FITB	316773100	35527	6020	522110.0	P	01	LU	34746	1741	1980-01-31	E	fitb
4640	4640	FIFTH THIRD BANCORP	FITB	316773100	35527	6020	522110.0	P	01	LU	34746	1741	1980-01-31	E	fitbi
4640	4640	FIFTH THIRD BANCORP	FITB	316773100	35527	6020	522110.0	P	01	LU	34746	1741	1980-01-31	E	fitbo
4640	4640	FIFTH THIRD BANCORP	FITB	316773100	35527	6020	522110.0	P	01	LU	34746	1741	1980-01-31	E	fitbp
4674	4674	REGIONS FINANCIAL CORP	RF	7591EP100	1281761	6020	522110.0	P	01	LC	35044	1620	1972-12-14	E	rf
4674	4674	REGIONS FINANCIAL CORP	RF	7591EP100	1281761	6020	522110.0	P	01	LC	35044	1620	1972-12-14	E	rf-pc
4674	4674	REGIONS FINANCIAL CORP	RF	7591EP100	1281761	6020	522110.0	P	01	LC	35044	1620	1972-12-14	E	rf-pb
4674	4674	REGIONS FINANCIAL CORP	RF	7591EP100	1281761	6020	522110.0	P	01	LC	35044	1620	1972-12-14	E	rf-pe
4685	4685	TRUSTMARK CORP	TRMK	898402102	36146	6020	522110.0	P	01	LU	35263	1658	1973-01-31	E	trmk
4690	4690	FIRST CITIZENS BANCSH  -CL A	FCNCA	31946M103	798941	6020	522110.0	P	01	LC	10777	8674	1986-10-22	E	fcnca
4690	4690	FIRST CITIZENS BANCSH  -CL A	FCNCA	31946M103	798941	6020	522110.0	P	01	LC	10777	8674	1986-10-22	E	fcncb
4690	4690	FIRST CITIZENS BANCSH  -CL A	FCNCA	31946M103	798941	6020	522110.0	P	01	LC	10777	8674	1986-10-22	E	fcnco
4690	4690	FIRST CITIZENS BANCSH  -CL A	FCNCA	31946M103	798941	6020	522110.0	P	01	LC	10777	8674	1986-10-22	E	fcncp
4699	4699	M&T BANK CORP	MTB	55261F104	36270	6020	522110.0	C	01	LC	35554	1689	1972-12-14	E	mtb
4699	4699	M&T BANK CORP	MTB	55261F104	36270	6020	522110.0	C	01	LC	35554	1689	1972-12-14	E	mtb-ph
4723	4723	US BANCORP	USB	902973304	36104	6020	522110.0	P	01	LC	36127	1788	1972-12-14	2001-02-26	usb
4723	4723	US BANCORP	USB	902973304	36104	6020	522110.0	P	01	LC	36127	1788	1972-12-14	2001-02-26	usb-pa
4723	4723	US BANCORP	USB	902973304	36104	6020	522110.0	P	01	LC	36127	1788	1972-12-14	2001-02-26	usb-ph
4723	4723	US BANCORP	USB	902973304	36104	6020	522110.0	P	01	LC	36127	1788	1972-12-14	2001-02-26	usb-pp
4723	4723	US BANCORP	USB	902973304	36104	6020	522110.0	P	01	LC	36127	1788	1972-12-14	2001-02-26	usb-pq
4723	4723	US BANCORP	USB	902973304	36104	6020	522110.0	P	01	LC	36127	1788	1972-12-14	2001-02-26	usb-pr
4723	4723	US BANCORP	USB	902973304	36104	6020	522110.0	P	01	LC	36127	1788	1972-12-14	2001-02-26	usb-ps
4723	4723	US BANCORP	USB	902973304	36104	6020	522110.0	P	01	LC	66157	1645	2001-02-27	E	usb
4723	4723	US BANCORP	USB	902973304	36104	6020	522110.0	P	01	LC	66157	1645	2001-02-27	E	usb-pa
4723	4723	US BANCORP	USB	902973304	36104	6020	522110.0	P	01	LC	66157	1645	2001-02-27	E	usb-ph
4723	4723	US BANCORP	USB	902973304	36104	6020	522110.0	P	01	LC	66157	1645	2001-02-27	E	usb-pp
4723	4723	US BANCORP	USB	902973304	36104	6020	522110.0	P	01	LC	66157	1645	2001-02-27	E	usb-pq
4723	4723	US BANCORP	USB	902973304	36104	6020	522110.0	P	01	LC	66157	1645	2001-02-27	E	usb-pr
4723	4723	US BANCORP	USB	902973304	36104	6020	522110.0	P	01	LC	66157	1645	2001-02-27	E	usb-ps
4737	4737	FIRST HORIZON CORP	FHN	320517105	36966	6020	522110.0	C	01	LU	36397	1856	1972-12-14	E	fhn
4737	4737	FIRST HORIZON CORP	FHN	320517105	36966	6020	522110.0	C	01	LU	36397	1856	1972-12-14	E	fhn-pb
4737	4737	FIRST HORIZON CORP	FHN	320517105	36966	6020	522110.0	C	01	LU	36397	1856	1972-12-14	E	fhn-pc
4737	4737	FIRST HORIZON CORP	FHN	320517105	36966	6020	522110.0	C	01	LU	36397	1856	1972-12-14	E	fhn-pd
4737	4737	FIRST HORIZON CORP	FHN	320517105	36966	6020	522110.0	C	01	LU	36397	1856	1972-12-14	E	fhn-pe
4737	4737	FIRST HORIZON CORP	FHN	320517105	36966	6020	522110.0	C	01	LU	36397	1856	1972-12-14	E	fhn-pf
4771	4771	FLEXSTEEL INDUSTRIES INC	FLXS	339382103	37472	2510	337121.0	P	01	LU	36768	1768	1972-12-14	E	flxs
4809	4809	FLOWERS FOODS INC	FLO	343498101	1128928	2050	311812.0	P	01	LC	49031	20743	1969-08-21	2001-03-26	flo
4809	4809	FLOWERS FOODS INC	FLO	343498101	1128928	2050	311812.0	P	01	LC	88924	41367	2001-03-28	E	flo
4818	4818	FLUOR CORP	FLR	343412102	1124198	1600	237990.0	P	01	LC	88853	41080	2000-12-22	E	flr
4818	4818	FLUOR CORP	FLR	343412102	1124198	1600	237990.0	P	01	LC	88853	41080	2000-12-22	E	flrap
4818	4818	FLUOR CORP	FLR	343412102	1124198	1600	237990.0	C	00X	LC	26382	20745	1957-10-28	1965-12-30	flr
4818	4818	FLUOR CORP	FLR	343412102	1124198	1600	237990.0	C	00X	LC	26382	20745	1957-10-28	1965-12-30	flrap
4818	4818	FLUOR CORP	FLR	343412102	1124198	1600	237990.0	P	01	LC	26382	20745	1965-12-31	2000-11-30	flr
4818	4818	FLUOR CORP	FLR	343412102	1124198	1600	237990.0	P	01	LC	26382	20745	1965-12-31	2000-11-30	flrap
4839	4839	FORD MOTOR CO	F	345370860	37996	3711	336110.0	P	01	LC	25785	20750	1962-01-31	E	f
4839	4839	FORD MOTOR CO	F	345370860	37996	3711	336110.0	P	01	LC	25785	20750	1962-01-31	E	f-pb
4839	4839	FORD MOTOR CO	F	345370860	37996	3711	336110.0	P	01	LC	25785	20750	1962-01-31	E	f-pc
4839	4839	FORD MOTOR CO	F	345370860	37996	3711	336110.0	P	01	LC	25785	20750	1962-01-31	E	f-pd
4839	4839	FORD MOTOR CO	F	345370860	37996	3711	336110.0	C	00X	LC	25785	20750	1950-01-01	1962-01-30	f
4839	4839	FORD MOTOR CO	F	345370860	37996	3711	336110.0	C	00X	LC	25785	20750	1950-01-01	1962-01-30	f-pb
4839	4839	FORD MOTOR CO	F	345370860	37996	3711	336110.0	C	00X	LC	25785	20750	1950-01-01	1962-01-30	f-pc
4839	4839	FORD MOTOR CO	F	345370860	37996	3711	336110.0	C	00X	LC	25785	20750	1950-01-01	1962-01-30	f-pd
4842	4842	FOREST CITY REALTY TRUST INC	FCE.A	345605109	1647509	6798	531120.0	N	02	LC	65584	20751	1983-11-10	2017-06-30	
4842	4842	FOREST CITY REALTY TRUST INC	FCE.A	345605109	1647509	6798	531120.0	C	01	LC	31974	20751	1962-07-02	2018-12-31	
4860	4860	FOSTER (LB) CO	FSTR	350060109	352825	5051	423510.0	P	01	LU	37402	1852	1981-06-09	E	fstr
4881	4881	FRANKLIN ELECTRIC CO INC	FELE	353514102	38725	3621	335312.0	P	01	LU	37568	1688	1972-12-14	E	fele
4885	4885	FRANKLIN RESOURCES INC	BEN	354613101	38777	6282	523940.0	P	01	LU	37584	6407	1983-09-23	E	ben
4900	4900	FREQUENCY ELECTRONICS INC	FEIM	358010106	39020	3825	334515.0	P	01	LC	62228	1686	1980-06-30	E	feim
4925	4925	FUJIFILM HLDGS CORP	FUJIY	35958N107	800365	3861	325992.0	P	90	LC	37867	1867	1972-12-14	2009-07-31	
4926	4926	FULLER (H. B.) CO	FUL	359694106	39368	2891	325520.0	P	01	LU	37875	1868	1972-12-14	E	ful
4941	4941	GATX CORP	GATX	361448103	40211	4700	532411.0	C	00X	LC	12036	20773	1950-01-01	1962-01-30	gatx
4941	4941	GATX CORP	GATX	361448103	40211	4700	532411.0	P	01	LC	12036	20773	1962-01-31	E	gatx
4973	4973	ARTHUR J GALLAGHER & CO	AJG	363576109	354190	6411	524210.0	P	01	LU	38093	7094	1984-06-20	E	ajg
4988	4988	TEGNA INC	TGNA	87901J105	39899	4833	516120.0	P	01	LC	47941	20782	1969-03-10	E	tgna
4990	4990	GAP INC	GAP	364760108	39911	5651	458110.0	P	01	LU	59010	1892	1976-05-20	E	gps
5046	5046	GENERAL DYNAMICS CORP	GD	369550108	40533	3721	336411.0	C	00X	LC	12052	20791	1954-01-01	1962-01-30	gd
5046	5046	GENERAL DYNAMICS CORP	GD	369550108	40533	3721	336411.0	P	01	LC	12052	20791	1962-01-31	E	gd
5047	5047	GE AEROSPACE	GE	369604301	40545	3724	336412.0	C	00X	LC	12060	20792	1950-01-01	1962-01-30	ge
5047	5047	GE AEROSPACE	GE	369604301	40545	3724	336412.0	P	01	LC	12060	20792	1962-01-31	E	ge
5050	5050	GEE GROUP INC	JOB	36165A102	40570	7361	561311.0	P	01	LC	46834	20793	1968-09-19	E	job
5071	5071	GENERAL MILLS INC	GIS	370334104	40704	2040	311230.0	C	00X	LC	17144	20798	1950-06-01	1962-01-30	gis
5071	5071	GENERAL MILLS INC	GIS	370334104	40704	2040	311230.0	P	01	LC	17144	20798	1962-01-31	E	gis
5072	5072	ALLY FINANCIAL INC	ALLY	02005N100	40729	6172	522220.0	P	05	LC	14558	53687	2014-04-10	E	ally
5073	5073	GENERAL MOTORS CO	GM	37045V100	1467858	3711	336110.0	P	19	LC	12369	53554	2010-11-18	E	gm
5073	5073	GENERAL MOTORS CO	GM	37045V100	1467858	3711	336110.0	P	01	LC	12079	20799	1962-01-31	2009-06-01	gm
5073	5073	GENERAL MOTORS CO	GM	37045V100	1467858	3711	336110.0	C	00X	LC	12079	20799	1950-01-01	1962-01-30	gm
5087	5087	SPX TECHNOLOGIES INC	SPXC	78473E103	88205	3585	333415.0	P	01	LU	12095	20804	1962-01-31	1998-10-06	spxc
5087	5087	SPX TECHNOLOGIES INC	SPXC	78473E103	88205	3585	333415.0	P	01	LU	55212	21548	1998-10-07	E	spxc
5087	5087	SPX TECHNOLOGIES INC	SPXC	78473E103	88205	3585	333415.0	C	00X	LU	12095	20804	1950-01-01	1962-01-30	spxc
5109	5109	GENESCO INC	GCO	371532102	18498	5661	458210.0	C	00X	LU	21055	20805	1949-11-01	1962-01-30	gco
5109	5109	GENESCO INC	GCO	371532102	18498	5661	458210.0	P	01	LU	21055	20805	1962-01-31	E	gco
5116	5116	GENTEX CORP	GNTX	371901109	355811	3714	336390.0	P	01	LU	38659	5242	1981-12-22	E	gntx
5125	5125	GENUINE PARTS CO	GPC	372460105	40987	5013	423120.0	P	01	LU	46674	20807	1968-08-20	E	gpc
5149	5149	GETTY REALTY CORP	GTY	374297109	1052752	6798	531120.0	P	01	LU	62367	3641	1973-01-31	E	gty
5165	5165	GIGA-TRONICS INC	GIGAQ	375175304	719274	3670	334419.0	P	01	LC	39029	6080	1983-06-20	2017-10-27	giga
5179	5179	GLATFELTER CORP	GLT	55999Q935	0	2621	322120.0	P	01	LC	57154	20819	1972-12-14	2024-11-04	
5180	5180	GSK PLC	GSK	37733W204	1131399	2834	325412.0	P	90	LU	75064	1973	1972-12-14	E	gsk
5180	5180	GSK PLC	GSK	37733W204	1131399	2834	325412.0	P	90	LU	75064	1973	1972-12-14	E	glaxf
5218	5218	GOLDFIELD CORP	GV.2	381370105	42316	1623	237130.0	C	00X	LU	32299	20832	1964-01-01	1968-01-30	
5218	5218	GOLDFIELD CORP	GV.2	381370105	42316	1623	237130.0	C	01	LU	32299	20832	1968-01-31	2020-12-31	
5234	5234	GOODYEAR TIRE & RUBBER CO	GT	382550101	42582	3011	326211.0	P	01	LU	16432	20834	1962-01-31	E	gt
5234	5234	GOODYEAR TIRE & RUBBER CO	GT	382550101	42582	3011	326211.0	C	00X	LU	16432	20834	1950-01-01	1962-01-30	gt
5250	5250	GRACE (W R) & CO	GRA	38388F108	1045309	2810	325998.0	C	00X	LC	25005	20840	1953-02-27	1962-01-30	
5250	5250	GRACE (W R) & CO	GRA	38388F108	1045309	2810	325998.0	P	01	LC	25005	20840	1962-01-31	1996-09-27	
5250	5250	GRACE (W R) & CO	GRA	38388F108	1045309	2810	325998.0	P	01	LC	83988	31735	1996-10-01	1998-03-31	
5250	5250	GRACE (W R) & CO	GRA	38388F108	1045309	2810	325998.0	P	01	LC	85908	34684	1998-04-08	2021-09-30	
5252	5252	GRACO INC	GGG	384109104	42888	3561	333914.0	P	01	LU	39571	2002	1972-12-14	E	ggg
5254	5254	GRAHAM CORP	GHM	384556106	716314	3443	333415.0	C	01	LU	60468	2004	1972-12-14	E	ghm
5256	5256	GRAINGER (W W) INC	GWW	384802104	277135	5000	42.0	P	01	LU	52695	20841	1971-06-23	E	gww
5284	5284	GRAY MEDIA INC	GTN	389375106	43196	4833	516120.0	P	02	LU	83989	1908	2004-06-01	E	gtn
5284	5284	GRAY MEDIA INC	GTN	389375106	43196	4833	516120.0	P	02	LU	83989	1908	2004-06-01	E	gtn-a
5284	5284	GRAY MEDIA INC	GTN	389375106	43196	4833	516120.0	J	01	LU	39731	1908	2004-06-01	E	gtn
5284	5284	GRAY MEDIA INC	GTN	389375106	43196	4833	516120.0	J	01	LU	39731	1908	2004-06-01	E	gtn-a
5284	5284	GRAY MEDIA INC	GTN	389375106	43196	4833	516120.0	C	01	LU	39731	1908	1972-12-14	2004-05-31	gtn
5284	5284	GRAY MEDIA INC	GTN	389375106	43196	4833	516120.0	C	01	LU	39731	1908	1972-12-14	2004-05-31	gtn-a
5284	5284	GRAY MEDIA INC	GTN	389375106	43196	4833	516120.0	J	02	LU	83989	1908	1996-09-24	2004-05-31	gtn
5284	5284	GRAY MEDIA INC	GTN	389375106	43196	4833	516120.0	J	02	LU	83989	1908	1996-09-24	2004-05-31	gtn-a
5338	5338	GREIF INC  -CL A	GEF	397624107	43920	2650	322219.0	J	02	LU	83264	27374	1996-03-05	E	gef
5338	5338	GREIF INC  -CL A	GEF	397624107	43920	2650	322219.0	J	02	LU	83264	27374	1996-03-05	E	gef-b
5338	5338	GREIF INC  -CL A	GEF	397624107	43920	2650	322219.0	P	01	LU	83233	27374	1996-03-06	E	gef
5338	5338	GREIF INC  -CL A	GEF	397624107	43920	2650	322219.0	P	01	LU	83233	27374	1996-03-06	E	gef-b
5342	5342	MONEYGRAM INTERNATIONAL INC	MGI	60935Y208	1273931	6099	522320.0	P	01	LC	19721	20851	1962-01-31	2004-06-30	mgi
5342	5342	MONEYGRAM INTERNATIONAL INC	MGI	60935Y208	1273931	6099	522320.0	P	01	LC	90213	45286	2004-07-01	2023-06-30	mgi
5342	5342	MONEYGRAM INTERNATIONAL INC	MGI	60935Y208	1273931	6099	522320.0	C	00X	LC	19721	20851	1950-01-01	1962-01-30	mgi
5379	5379	GULFMARK OFFSHORE INC	GLF	402629505	1030749	4412	483111.0	P	01	LC	84808	1957	1997-05-21	2017-04-10	
5379	5379	GULFMARK OFFSHORE INC	GLF	402629505	1030749	4412	483111.0	P	03	LC	17079	1957	2017-11-16	2018-11-30	
5379	5379	GULFMARK OFFSHORE INC	GLF	402629505	1030749	4412	483111.0	P	01	LC	40388	1957	1972-12-14	1997-04-30	
5439	5439	HALLIBURTON CO	HAL	406216101	45012	1389	213112.0	P	01	LU	23819	20868	1962-01-31	E	hal
5439	5439	HALLIBURTON CO	HAL	406216101	45012	1389	213112.0	C	00X	LU	23819	20868	1950-01-01	1962-01-30	hal
5492	5492	L3HARRIS TECHNOLOGIES INC	LHX	502431109	202058	3812	334511.0	P	01	LC	25582	20883	1962-01-31	E	lhx
5496	5496	ENVIRI CORP	NVRI	415864107	45876	3390	331110.0	P	01	LU	25304	20884	1962-01-31	E	hsc
5496	5496	ENVIRI CORP	NVRI	415864107	45876	3390	331110.0	C	00X	LU	25304	20884	1960-01-01	1962-01-30	hsc
5518	5518	HASBRO INC	HAS	418056107	46080	3944	339930.0	P	01	LU	52978	20887	1971-08-11	E	has
5520	5520	ALLIENT INC	ALNT	019330109	46129	3621	335312.0	P	01	LU	41188	2088	1978-02-28	E	amot
5520	5520	ALLIENT INC	ALNT	019330109	46129	3621	335312.0	C	00X	LU	41188	2088	1973-07-01	1978-02-27	amot
5523	5523	HAVERTY FURNITURE	HVT	419596101	216085	5712	442110.0	C	01	LC	41217	2089	1977-09-01	E	hvt
5523	5523	HAVERTY FURNITURE	HVT	419596101	216085	5712	442110.0	C	01	LC	41217	2089	1977-09-01	E	hvt-a
5523	5523	HAVERTY FURNITURE	HVT	419596101	216085	5712	442110.0	J	02	LU	10294	2089	1986-08-29	E	hvt
5523	5523	HAVERTY FURNITURE	HVT	419596101	216085	5712	442110.0	J	02	LU	10294	2089	1986-08-29	E	hvt-a
5526	5526	HAWAIIAN ELECTRIC INDS	HE	419870100	354707	4911	22111.0	P	01	LU	41187	20890	1964-10-13	E	he
5539	5539	HEALTHCARE SERVICES GROUP	HCSG	421906108	731012	8090	621999.0	P	01	LU	41292	6616	1983-11-23	E	hcsg
5543	5543	WELLTOWER INC	WELL	95040Q104	766704	6798	531110.0	P	01	LC	65947	2105	1978-02-17	E	well
5559	5559	STERLING INFRASTRUCTURE INC	STRL	859241101	874238	1700	238910.0	P	04	LU	76927	11011	1991-08-08	E	strl
5560	5560	HECLA MINING CO	HL	422704106	719413	1040	212220.0	P	01	LU	32651	20897	1962-07-02	E	hl
5560	5560	HECLA MINING CO	HL	422704106	719413	1040	212220.0	P	01	LU	32651	20897	1962-07-02	E	hl-pb
5567	5567	HEICO CORP	HEI	422806109	46619	3724	336412.0	C	01	LC	32678	20898	1963-01-31	E	hei
5567	5567	HEICO CORP	HEI	422806109	46619	3724	336412.0	C	01	LC	32678	20898	1963-01-31	E	hei-a
5567	5567	HEICO CORP	HEI	422806109	46619	3724	336412.0	J	02	LU	85945	20898	1998-04-24	E	hei
5567	5567	HEICO CORP	HEI	422806109	46619	3724	336412.0	J	02	LU	85945	20898	1998-04-24	E	hei-a
5568	5568	KRAFT HEINZ CO	KHC	500754106	1637459	2030	31142.0	P	01	LC	23077	20900	1962-01-31	2013-05-31	khc
5568	5568	KRAFT HEINZ CO	KHC	500754106	1637459	2030	31142.0	P	04	LC	15408	55296	2015-07-06	E	khc
5568	5568	KRAFT HEINZ CO	KHC	500754106	1637459	2030	31142.0	C	01	LC	23077	20900	2013-06-01	2013-06-10	khc
5568	5568	KRAFT HEINZ CO	KHC	500754106	1637459	2030	31142.0	C	00X	LC	23077	20900	1950-05-01	1962-01-30	khc
5572	5572	HELEN OF TROY LTD	HELE	G4388N106	916789	3634	335210.0	C	01	LU	41452	2116	1976-07-09	E	hele
5581	5581	HELMERICH & PAYNE	HP	423452101	46765	1381	213111.0	P	01	LU	32707	20902	1962-07-02	E	hp
5597	5597	HERSHEY CO	HSY	427866108	47111	2060	3113.0	C	00X	LC	16600	20906	1950-01-01	1962-01-30	hsy
5597	5597	HERSHEY CO	HSY	427866108	47111	2060	3113.0	P	01	LC	16600	20906	1962-01-31	E	hsy
5600	5600	HERTZ GLOBAL HOLDINGS INC	HTZ	42806J700	1657853	7510	532111.0	P	01	LC	84663	34736	1997-04-25	2001-03-09	htz
5600	5600	HERTZ GLOBAL HOLDINGS INC	HTZ	42806J700	1657853	7510	532111.0	P	01	LC	84663	34736	1997-04-25	2001-03-09	htzww
5600	5600	HERTZ GLOBAL HOLDINGS INC	HTZ	42806J700	1657853	7510	532111.0	P	05	LC	91575	51423	2006-11-16	2016-06-30	htz
5600	5600	HERTZ GLOBAL HOLDINGS INC	HTZ	42806J700	1657853	7510	532111.0	P	05	LC	91575	51423	2006-11-16	2016-06-30	htzww
5600	5600	HERTZ GLOBAL HOLDINGS INC	HTZ	42806J700	1657853	7510	532111.0	P	05	LC	16086	55584	2016-07-01	2020-10-29	htz
5600	5600	HERTZ GLOBAL HOLDINGS INC	HTZ	42806J700	1657853	7510	532111.0	P	05	LC	16086	55584	2016-07-01	2020-10-29	htzww
5600	5600	HERTZ GLOBAL HOLDINGS INC	HTZ	42806J700	1657853	7510	532111.0	P	08	LC	16086	55584	2021-11-09	E	htz
5600	5600	HERTZ GLOBAL HOLDINGS INC	HTZ	42806J700	1657853	7510	532111.0	P	08	LC	16086	55584	2021-11-09	E	htzww
5606	5606	HP INC	HPQ	40434L105	47217	3570	33411.0	P	01	LC	27828	20908	1962-01-31	E	hpq
5608	5608	HEXCEL CORP	HXL	428291108	717605	2821	325211.0	P	01	LU	61567	2130	1972-12-14	E	hxl
5639	5639	HILL-ROM HOLDINGS INC	HRC	431475102	47518	2590	339113.0	P	01	LC	52716	20913	1971-06-28	2021-12-31	
5643	5643	HILTON WORLDWIDE HOLDINGS	HLT	43300A203	1585689	7011	721110.0	C	00X	LC	23309	20915	1950-01-01	1962-01-30	hlt
5643	5643	HILTON WORLDWIDE HOLDINGS	HLT	43300A203	1585689	7011	721110.0	P	01	LC	23309	20915	1962-01-31	2007-10-24	hlt
5643	5643	HILTON WORLDWIDE HOLDINGS	HLT	43300A203	1585689	7011	721110.0	P	04	LC	14338	54672	2013-12-12	E	hlt
5650	5650	HITACHI LTD	HTHIY	433578507	47710	9997	999977.0	P	90	LC	64231	2153	1973-01-31	2012-04-26	
5667	5667	HF SINCLAIR CORP	DINO	403949100	1915657	2911	324110.0	P	01	LC	32803	20922	1965-11-30	E	dino
5680	5680	HOME DEPOT INC	HD	437076102	354950	5211	444110.0	P	01	LC	66181	5085	1981-09-22	E	hd
5690	5690	HNI CORP	HNI	404251100	48287	2522	337214.0	P	01	LU	42439	2191	1972-12-14	E	hni
5691	5691	HONDA MOTOR CO LTD	HMC	438128308	715153	3711	336110.0	P	90	LU	59555	2172	1972-12-14	E	hmc
5691	5691	HONDA MOTOR CO LTD	HMC	438128308	715153	3711	336110.0	P	90	LU	59555	2172	1972-12-14	E	hndaf
5709	5709	HORMEL FOODS CORP	HRL	440452100	48465	2011	311611.0	P	01	LU	32870	20932	1962-07-02	E	hrl
5742	5742	CENTERPOINT ENERGY INC	CNP	15189T107	1130310	4931	22111.0	C	00X	LU	21792	20939	1951-01-01	1962-01-30	cnp
5742	5742	CENTERPOINT ENERGY INC	CNP	15189T107	1130310	4931	22111.0	P	01	LU	21792	20939	1962-01-31	E	cnp
5750	5750	HOVNANIAN ENTRPRS INC  -CL A	HOV	442487401	357294	1531	236117.0	C	01	LC	65285	20942	1983-09-16	1983-12-29	hov
5750	5750	HOVNANIAN ENTRPRS INC  -CL A	HOV	442487401	357294	1531	236117.0	C	01	LC	65285	20942	1983-09-16	1983-12-29	hovnp
5750	5750	HOVNANIAN ENTRPRS INC  -CL A	HOV	442487401	357294	1531	236117.0	C	01	LC	65285	20942	1983-09-16	1983-12-29	hovvb
5750	5750	HOVNANIAN ENTRPRS INC  -CL A	HOV	442487401	357294	1531	236117.0	P	02	LC	65285	20942	1983-12-30	E	hov
5750	5750	HOVNANIAN ENTRPRS INC  -CL A	HOV	442487401	357294	1531	236117.0	P	02	LC	65285	20942	1983-12-30	E	hovnp
5750	5750	HOVNANIAN ENTRPRS INC  -CL A	HOV	442487401	357294	1531	236117.0	P	02	LC	65285	20942	1983-12-30	E	hovvb
5764	5764	HUBBELL INC	HUBB	443510607	48898	3640	335931.0	P	01	LC	32942	20945	1962-07-02	E	hubb
5764	5764	HUBBELL INC	HUBB	443510607	48898	3640	335931.0	J	02	LC	32934	20945	1982-01-29	E	hubb
5783	5783	HUNT (JB) TRANSPRT SVCS INC	JBHT	445658107	728535	4213	484121.0	P	01	LU	42877	6606	1983-11-22	E	jbht
5786	5786	HUNTINGTON BANCSHARES	HBAN	446150104	49196	6020	522110.0	P	01	LU	42906	2093	1972-12-14	E	hban
5786	5786	HUNTINGTON BANCSHARES	HBAN	446150104	49196	6020	522110.0	P	01	LU	42906	2093	1972-12-14	E	hbanm
5786	5786	HUNTINGTON BANCSHARES	HBAN	446150104	49196	6020	522110.0	P	01	LU	42906	2093	1972-12-14	E	hbanp
5792	5792	HUTTIG BUILDING PRODUCTS INC	HBP	448451104	1093082	5031	423310.0	C	01	LC	87464	36557	1999-12-17	2022-05-31	hbp
5831	5831	IEC ELECTRONICS CORP	IEC	44949L105	49728	3672	334412.0	C	01	LC	78892	11963	2009-06-09	2021-10-29	
5831	5831	IEC ELECTRONICS CORP	IEC	44949L105	49728	3672	334412.0	C	01	LC	78892	11963	1993-02-12	2002-12-02	
5849	5849	BBX CAPITAL CORP	BBX	05491N302	0	6035	721110.0	C	02	LC	68953	2389	1980-08-04	1992-02-14	
5849	5849	BBX CAPITAL CORP	BBX	05491N302	0	6035	721110.0	P	01	LC	89735	29629	2003-05-05	2008-12-08	
5849	5849	BBX CAPITAL CORP	BBX	05491N302	0	6035	721110.0	P	01	LC	16837	56019	2017-07-13	2020-09-30	
5860	5860	ITT INC	ITT	45073V108	216228	3561	333914.0	P	01	LC	12570	20964	1962-01-31	E	itt
5860	5860	ITT INC	ITT	45073V108	216228	3561	333914.0	C	00X	LC	12570	20964	1950-01-01	1962-01-30	itt
5862	5862	RAYONIER INC	RYN	754907103	52827	6798	531190.0	P	01	LC	80210	30265	1994-03-02	E	ryn
5870	5870	IDACORP INC	IDA	451107106	1057877	4911	22111.0	C	00X	LU	21928	20965	1951-01-01	1962-01-30	ida
5870	5870	IDACORP INC	IDA	451107106	1057877	4911	22111.0	P	01	LU	21928	20965	1962-01-31	E	ida
5878	5878	ILLINOIS TOOL WORKS	ITW	452308109	49826	3560	33399.0	P	01	LU	56573	20968	1973-03-13	E	itw
5888	5888	TELIGENT INC	TLGTQ	87960W203	352998	2834	325412.0	C	01	LC	43634	2293	1981-07-30	2022-07-29	
5902	5902	IMMUNOMEDICS INC	IMMU	452907108	722830	2835	325413.0	P	01	LU	43757	6560	1984-07-31	2020-10-30	
5902	5902	IMMUNOMEDICS INC	IMMU	452907108	722830	2835	325413.0	C	00X	LU	43757	6560	1984-07-01	1984-07-30	
5903	5903	IMPERIAL OIL LTD	IMO	453038408	49938	2911	324110.0	C	03	LU	33099	20972	1962-07-02	E	imo
5918	5918	VECTREN CORP	VVC	92240G101	1096385	4923	221210.0	P	01	LU	51633	20976	1970-12-08	2019-02-28	
5959	5959	TRANE TECHNOLOGIES PLC	TT	G8994E103	1466258	3585	333415.0	P	01	LC	12431	20977	1962-01-31	E	tt
5959	5959	TRANE TECHNOLOGIES PLC	TT	G8994E103	1466258	3585	333415.0	C	00X	LC	12431	20977	1950-01-01	1962-01-30	tt
5968	5968	RYERSON HOLDING CORP	RYI	783754104	1481582	5051	423510.0	P	01	LC	12458	20978	1962-01-31	2007-10-18	ryi
5968	5968	RYERSON HOLDING CORP	RYI	783754104	1481582	5051	423510.0	P	03	LC	14855	54985	2014-08-08	E	ryi
5968	5968	RYERSON HOLDING CORP	RYI	783754104	1481582	5051	423510.0	C	00X	LC	12458	20978	1950-01-01	1962-01-30	ryi
5978	5978	AEGION CORP	AEGN	00770F104	353020	1623	237110.0	P	01	LU	44274	2366	1981-12-02	2021-05-28	
5987	5987	GRIFFON CORP	GFF	398433102	50725	3420	332216.0	P	01	LU	46463	20981	1968-07-09	E	gff
6003	6003	INTEGRATED DEVICE TECH INC	IDTI	458118106	703361	3674	334413.0	P	01	LU	44506	6867	1984-02-17	2019-03-31	
6008	6008	INTEL CORP	INTC	458140100	50863	3674	334413.0	P	01	LU	59328	2367	1972-12-14	E	intc
6013	6013	CORECARD CORPORATION	CCRD	45816D100	320340	7372	513210.0	C	00X	LC	44600	5122	1980-12-31	1981-01-29	ccrd
6013	6013	CORECARD CORPORATION	CCRD	45816D100	320340	7372	513210.0	P	02	LC	72119	20982	1987-02-02	E	ccrd
6013	6013	CORECARD CORPORATION	CCRD	45816D100	320340	7372	513210.0	P	02	LC	44600	5122	1981-01-30	1986-12-31	ccrd
6034	6034	INTERFACE INC	TILE	458665304	715787	2273	314110.0	P	01	LU	44768	5925	1983-04-14	E	tile
6066	6066	INTL BUSINESS MACHINES CORP	IBM	459200101	51143	7370	518210.0	C	00X	LC	12490	20990	1950-01-01	1962-01-30	ibm
6066	6066	INTL BUSINESS MACHINES CORP	IBM	459200101	51143	7370	518210.0	P	01	LC	12490	20990	1962-01-31	E	ibm
6078	6078	INTL FLAVORS & FRAGRANCES	IFF	459506101	51253	2860	325199.0	P	01	LC	40272	20991	1964-03-02	E	iff
6081	6081	NAVISTAR INTERNATIONAL CORP	NAV	63934E108	808450	3711	336120.0	P	01	LC	12503	21265	1962-01-31	2007-02-13	
6081	6081	NAVISTAR INTERNATIONAL CORP	NAV	63934E108	808450	3711	336120.0	P	01	LC	12503	21265	2008-06-30	2021-07-30	
6081	6081	NAVISTAR INTERNATIONAL CORP	NAV	63934E108	808450	3711	336120.0	C	00X	LC	12503	21265	1949-11-01	1962-01-30	
6100	6100	INTERDIGITAL INC	IDCC	45867G101	1405495	6794	533110.0	P	01	LU	45306	5184	1981-11-12	E	idcc
6104	6104	INTL PAPER CO	IP	460146103	51434	2631	322130.0	C	00X	LC	21573	20994	1950-01-01	1962-01-30	ip
6104	6104	INTL PAPER CO	IP	460146103	51434	2631	322130.0	P	01	LC	21573	20994	1962-01-31	E	ip
6116	6116	INTL SPEEDWAY CORP  -CL A	ISCA	460335201	51548	7948	711212.0	N	02	LU	84226	27852	1996-11-05	1996-11-30	iscb
6116	6116	INTL SPEEDWAY CORP  -CL A	ISCA	460335201	51548	7948	711212.0	P	02	LU	84226	27852	1996-12-01	2019-10-31	iscb
6135	6135	ENBRIDGE INC	ENB	29250N105	895728	4924	221210.0	P	01	LC	76932	2381	1982-11-01	E	enb
6135	6135	ENBRIDGE INC	ENB	29250N105	895728	4924	221210.0	P	01	LC	76932	2381	1982-11-01	E	ebbnf
6135	6135	ENBRIDGE INC	ENB	29250N105	895728	4924	221210.0	P	01	LC	76932	2381	1982-11-01	E	enba
6135	6135	ENBRIDGE INC	ENB	29250N105	895728	4924	221210.0	P	01	LC	76932	2381	1982-11-01	E	ebrgf
6135	6135	ENBRIDGE INC	ENB	29250N105	895728	4924	221210.0	P	01	LC	76932	2381	1982-11-01	E	ebbgf
6135	6135	ENBRIDGE INC	ENB	29250N105	895728	4924	221210.0	P	01	LC	76932	2381	1982-11-01	E	ebgef
6136	6136	INTERPUBLIC GROUP OF COS	IPG	460690100	51644	7311	541810.0	P	01	LU	53065	20997	1971-08-23	E	ipg
6158	6158	INVACARE CORP	IVCRQ	461203101	742112	3842	339113.0	P	01	LU	45728	7029	1984-05-11	2023-05-05	ivc
6196	6196	ANIXTER INTL INC	AXE	035290105	52795	5065	423690.0	C	01	LU	46077	6393	1969-06-17	2020-06-30	
6216	6216	JACOBS SOLUTIONS INC	J	46982L108	52988	8700	54161.0	P	01	LU	52329	21011	1971-04-27	E	j
6223	6223	EMCOR GROUP INC	EME	29084Q100	105634	1731	238210.0	C	01	LU	82694	14268	1995-12-28	E	eme
6223	6223	EMCOR GROUP INC	EME	29084Q100	105634	1731	238210.0	C	00X	LU	46288	2482	1974-01-01	1976-01-29	eme
6223	6223	EMCOR GROUP INC	EME	29084Q100	105634	1731	238210.0	C	01	LU	46288	2482	1976-01-30	1993-10-08	eme
6266	6266	JOHNSON & JOHNSON	JNJ	478160104	200406	2834	325412.0	P	01	LC	22111	21018	1962-01-31	E	jnj
6266	6266	JOHNSON & JOHNSON	JNJ	478160104	200406	2834	325412.0	C	00X	LC	22111	21018	1950-01-01	1962-01-30	jnj
6268	6268	JOHNSON CONTROLS INTL PLC	JCI	G51502105	833444	3585	333415.0	P	01	LC	45356	21791	2016-09-03	E	jci
6268	6268	JOHNSON CONTROLS INTL PLC	JCI	G51502105	833444	3585	333415.0	P	01	LC	42534	21019	1965-10-11	2016-09-02	jci
6304	6304	KLA CORP	KLAC	482480100	319201	3827	333314.0	P	01	LU	46886	2551	1980-10-08	E	klac
6307	6307	SEARS HOLDINGS CORP	SHLDQ	812350106	1310067	5311	452111.0	C	00X	LC	12749	21028	1950-01-01	1962-01-30	
6307	6307	SEARS HOLDINGS CORP	SHLDQ	812350106	1310067	5311	452111.0	P	03	LC	89757	44118	2003-06-10	2018-10-23	
6307	6307	SEARS HOLDINGS CORP	SHLDQ	812350106	1310067	5311	452111.0	P	01	LC	12749	21028	1962-01-31	2002-12-18	
6310	6310	KINDER MORGAN INC	KMI	49456B101	1506307	4923	486210.0	P	01	LC	51596	21029	1970-11-24	2007-05-30	kmi
6310	6310	KINDER MORGAN INC	KMI	49456B101	1506307	4923	486210.0	P	01	LC	51596	21029	1970-11-24	2007-05-30	ep-pc
6310	6310	KINDER MORGAN INC	KMI	49456B101	1506307	4923	486210.0	P	04	LC	12558	53667	2011-02-11	E	kmi
6310	6310	KINDER MORGAN INC	KMI	49456B101	1506307	4923	486210.0	P	04	LC	12558	53667	2011-02-11	E	ep-pc
6326	6326	KAMAN CORP	KAMN	483548103	54381	3720	3364.0	P	01	LU	47002	2488	1972-12-14	2024-04-30	kamn
6334	6334	GREAT PLAINS ENERGY INC	GXP	391164100	1143068	4911	2211.0	P	01	LC	24432	21032	1962-01-31	2018-06-04	
6334	6334	GREAT PLAINS ENERGY INC	GXP	391164100	1143068	4911	2211.0	C	00X	LC	24432	21032	1951-01-01	1962-01-30	
6335	6335	KANSAS CITY SOUTHERN	KSU	485170302	54480	4011	482111.0	C	00X	LC	12650	21033	1963-01-01	1963-01-30	
6335	6335	KANSAS CITY SOUTHERN	KSU	485170302	54480	4011	482111.0	P	01	LC	12650	21033	1963-01-31	2021-12-31	
6338	6338	EVERGY INC	EVRG	30034W106	1711269	4931	22111.0	P	01	LC	24053	21035	1962-01-31	E	evrg
6338	6338	EVERGY INC	EVRG	30034W106	1711269	4931	22111.0	C	00X	LC	24053	21035	1958-01-01	1962-01-30	evrg
6375	6375	KELLANOVA	K	487836108	55067	2040	311230.0	P	01	LU	26825	21041	1962-01-31	E	k
6379	6379	KELLY SERVICES INC  -CL A	KELYA	488152208	55135	7363	561320.0	J	02	LC	47387	2519	1984-08-02	E	kelya
6379	6379	KELLY SERVICES INC  -CL A	KELYA	488152208	55135	7363	561320.0	J	02	LC	47387	2519	1984-08-02	E	kelyb
6379	6379	KELLY SERVICES INC  -CL A	KELYA	488152208	55135	7363	561320.0	P	03	LC	47379	2519	1972-12-14	1984-01-30	kelya
6379	6379	KELLY SERVICES INC  -CL A	KELYA	488152208	55135	7363	561320.0	P	03	LC	47379	2519	1972-12-14	1984-01-30	kelyb
6379	6379	KELLY SERVICES INC  -CL A	KELYA	488152208	55135	7363	561320.0	J	01	LC	47379	2519	1984-01-31	1984-06-30	kelya
6379	6379	KELLY SERVICES INC  -CL A	KELYA	488152208	55135	7363	561320.0	J	01	LC	47379	2519	1984-01-31	1984-06-30	kelyb
6379	6379	KELLY SERVICES INC  -CL A	KELYA	488152208	55135	7363	561320.0	P	01	LC	47379	2519	1984-07-01	E	kelya
6379	6379	KELLY SERVICES INC  -CL A	KELYA	488152208	55135	7363	561320.0	P	01	LC	47379	2519	1984-07-01	E	kelyb
6386	6386	KENNAMETAL INC	KMT	489170100	55242	3540	333517.0	P	01	LU	44134	21045	1967-01-23	E	kmt
6416	6416	KEY TRONIC CORP	KTCC	493144109	719733	3670	334418.0	P	01	LU	47619	6093	1983-06-22	E	ktcc
6433	6433	KIMBALL INTERNATIONAL  -CL B	KBAL	494274103	55772	2520	337211.0	P	01	LC	47715	2498	1976-09-28	2023-06-30	kbal
6435	6435	KIMBERLY-CLARK CORP	KMB	494368103	55785	2621	322120.0	C	00X	LC	17750	21055	1950-05-01	1962-01-30	kmb
6435	6435	KIMBERLY-CLARK CORP	KMB	494368103	55785	2621	322120.0	P	01	LC	17750	21055	1962-01-31	E	kmb
6461	6461	KIRBY CORP	KEX	497266106	56047	4400	483211.0	P	01	LU	59045	21057	1976-09-13	E	kex
6502	6502	KROGER CO	KR	501044101	56873	5411	445110.0	P	01	LC	16678	21068	1962-01-31	E	kr
6502	6502	KROGER CO	KR	501044101	56873	5411	445110.0	C	00X	LC	16678	21068	1950-01-01	1962-01-30	kr
6509	6509	KULICKE & SOFFA INDUSTRIES	KLIC	501242101	56978	3559	333242.0	C	01	LU	48144	2552	1972-12-14	E	klic
6527	6527	LSI INDUSTRIES INC	LYTS	50216C108	763532	3640	335132.0	P	01	LU	89456	7459	1985-03-12	E	lyts
6528	6528	LSB INDUSTRIES INC	LXU	502160104	60714	2810	325180.0	C	01	LU	49488	21072	1969-11-04	E	lxu
6532	6532	XCERRA CORP	XCRA	98400J108	357020	3825	334515.0	P	01	LC	48291	5292	1982-02-02	2018-10-31	
6543	6543	LA-Z-BOY INC	LZB	505336107	57131	2510	337121.0	P	01	LU	48347	2615	1972-12-14	E	lzb
6547	6547	SPIRE INC	SR	84857L101	1126956	4924	221210.0	C	00X	LC	12781	21080	1950-10-01	1962-01-30	sr
6547	6547	SPIRE INC	SR	84857L101	1126956	4924	221210.0	C	00X	LC	12781	21080	1950-10-01	1962-01-30	sr-pa
6547	6547	SPIRE INC	SR	84857L101	1126956	4924	221210.0	C	00X	LC	12781	21080	1950-10-01	1962-01-30	srcu
6547	6547	SPIRE INC	SR	84857L101	1126956	4924	221210.0	P	01	LC	12781	21080	1962-01-31	E	sr
6547	6547	SPIRE INC	SR	84857L101	1126956	4924	221210.0	P	01	LC	12781	21080	1962-01-31	E	sr-pa
6547	6547	SPIRE INC	SR	84857L101	1126956	4924	221210.0	P	01	LC	12781	21080	1962-01-31	E	srcu
6565	6565	LAM RESEARCH CORP	LRCX	512807306	707549	3559	333242.0	P	01	LC	48486	7013	1984-05-04	E	lrcx
6573	6573	LANCASTER COLONY CORP	LANC	513847103	57515	2030	311941.0	P	01	LU	48523	2600	1972-12-14	E	lanc
6617	6617	DISTRIBUTION SOLUTIO GRO INC	DSGR	520776105	703604	5080	423830.0	P	01	LU	48961	2612	1972-12-14	E	dsgr
6639	6639	LEE ENTERPRISES INC	LEE	523768406	58361	2711	513110.0	P	01	LU	50286	21090	1970-03-17	E	lee
6649	6649	LEGGETT & PLATT INC	LEG	524660107	58492	2510	337910.0	P	01	LU	60943	2636	1972-12-14	E	leg
6653	6653	LEGG MASON INC	LM	524901105	704051	6282	523920.0	P	01	LU	65330	21092	1983-08-01	2020-07-31	
6669	6669	LENNAR CORP	LEN	526057104	920760	1531	236117.0	J	03	LC	89731	21095	2003-04-15	E	len
6669	6669	LENNAR CORP	LEN	526057104	920760	1531	236117.0	P	01	LC	52708	21095	1971-06-23	E	len
6730	6730	LILLY (ELI) & CO	LLY	532457108	59478	2834	325412.0	P	01	LU	50876	21102	1970-07-09	E	lly
6733	6733	BATH & BODY WORKS INC	BBWI	070830104	701985	5990	456120.0	C	01	LC	64282	2664	1973-02-09	E	bbwi
6737	6737	LINCOLN ELECTRIC HLDGS INC	LECO	533900106	59527	3540	333992.0	P	02	LC	81717	27454	1997-12-31	1998-05-31	leco
6737	6737	LINCOLN ELECTRIC HLDGS INC	LECO	533900106	59527	3540	333992.0	J	01	LC	81678	27454	1997-12-31	1998-05-31	leco
6737	6737	LINCOLN ELECTRIC HLDGS INC	LECO	533900106	59527	3540	333992.0	P	02	LC	81678	27454	1997-06-01	1997-12-30	leco
6737	6737	LINCOLN ELECTRIC HLDGS INC	LECO	533900106	59527	3540	333992.0	P	01	LC	81678	27454	1995-06-13	1997-05-31	leco
6737	6737	LINCOLN ELECTRIC HLDGS INC	LECO	533900106	59527	3540	333992.0	J	02	LC	81717	27454	1998-06-01	1998-06-30	leco
6737	6737	LINCOLN ELECTRIC HLDGS INC	LECO	533900106	59527	3540	333992.0	P	01	LC	81678	27454	1998-06-01	E	leco
6742	6742	LINCOLN NATIONAL CORP	LNC	534187109	59558	6311	524113.0	C	00X	LC	49015	21105	1972-01-01	1972-01-30	lnc
6742	6742	LINCOLN NATIONAL CORP	LNC	534187109	59558	6311	524113.0	P	01	LC	49015	21105	1972-01-31	E	lnc
6774	6774	LOCKHEED MARTIN CORP	LMT	539830109	936468	3760	336414.0	P	01	LU	21178	21110	1962-01-31	E	lmt
6774	6774	LOCKHEED MARTIN CORP	LMT	539830109	936468	3760	336414.0	C	00X	LU	21178	21110	1950-01-01	1962-01-30	lmt
6781	6781	LOEWS CORP	L	540424108	60086	6331	524126.0	P	01	LC	26710	21111	1962-01-31	E	l
6788	6788	RANGE RESOURCES CORP	RRC	75281A109	315852	1311	2111.0	C	01	LU	50017	2706	1980-06-19	E	rrc
6821	6821	LOUISIANA-PACIFIC CORP	LPX	546347105	60519	2400	321219.0	P	01	LU	56223	21121	1972-12-29	E	lpx
6829	6829	LOWE'S COS INC	LOW	548661107	60667	5211	444110.0	P	01	LU	61399	2709	1972-12-14	E	low
6831	6831	LUBYS INC	LUB	549282101	16099	5812	722514.0	P	01	LU	64020	2728	1973-03-30	2022-05-31	
6845	6845	LYDALL INC	LDL	550819106	60977	3714	336390.0	C	01	LU	59774	2736	1973-09-07	2021-10-29	
6848	6848	LGL GROUP INC	LGL	50186A108	61004	3679	334419.0	P	01	LU	33849	21125	1966-04-29	E	lgl
6848	6848	LGL GROUP INC	LGL	50186A108	61004	3679	334419.0	P	01	LU	33849	21125	1966-04-29	E	lgl-wt
6865	6865	MDC HOLDINGS INC	MDC	552676108	773141	1531	236117.0	P	01	LU	66245	21130	1982-11-01	2024-04-30	mdc
6867	6867	MDU RESOURCES GROUP INC	MDU	552690109	67716	1700	238.0	C	00X	LC	23835	21132	1951-01-01	1962-01-30	mdu
6867	6867	MDU RESOURCES GROUP INC	MDU	552690109	67716	1700	238.0	P	01	LC	23835	21132	1962-01-31	E	mdu
6900	6900	MTS SYSTEMS CORP	MTSC	553777103	68709	3829	334519.0	P	01	LU	50623	3083	1972-12-14	2021-04-30	
6930	6930	NORTH AMERICAN PALLADIUM	PALDF	65704X109	887701	1090	212299.0	C	01	LC	79853	12603	2000-10-13	2015-04-15	
6930	6930	NORTH AMERICAN PALLADIUM	PALDF	65704X109	887701	1090	212299.0	C	01	LC	79853	12603	1993-11-22	1998-04-19	
6946	6946	MAGNA INTERNATIONAL INC	MGA	559222401	749098	3714	336390.0	C	01	LC	78045	26268	1984-08-23	E	mga
6994	6994	MANITOWOC CO	MTW	563571405	61986	3530	333923.0	P	01	LU	51263	2767	1972-12-14	E	mtw
7017	7017	MARATHON OIL CORP	MRO	565849106	101778	1311	2111.0	C	01	LC	15069	21795	1991-04-12	E	mro
7017	7017	MARATHON OIL CORP	MRO	565849106	101778	1311	2111.0	C	01	LC	13047	22405	1962-01-31	1982-03-11	mro
7017	7017	MARATHON OIL CORP	MRO	565849106	101778	1311	2111.0	C	00X	LC	13047	22405	1950-01-01	1962-01-30	mro
7022	7022	MARCUS CORP	MCS	566330106	62234	7830	512131.0	P	01	LU	51423	3031	1972-12-14	E	mcs
7063	7063	HOST HOTELS & RESORTS INC	HST	44107P104	1070750	6798	531120.0	P	01	LC	46703	21157	1968-08-26	E	hst
7065	7065	MARSH & MCLENNAN COS	MMC	571748102	62709	6411	524210.0	P	01	LU	45751	21158	1968-02-16	E	mmc
7085	7085	MASCO CORP	MAS	574599106	62996	3430	332913.0	P	01	LU	34032	21161	1962-07-02	E	mas
7114	7114	PANASONIC HOLDINGS CORP	PCRHY	69832A304	63271	3600	335.0	P	90	LC	53727	21167	1971-12-13	2013-04-19	pcrfy
7114	7114	PANASONIC HOLDINGS CORP	PCRHY	69832A304	63271	3600	335.0	P	90	LC	53727	21167	1971-12-13	2013-04-19	pcrff
7116	7116	MATTEL INC	MAT	577081102	63276	3942	339930.0	C	01	LU	39538	21168	1963-08-12	E	mat
7124	7124	MAXWELL TECHNOLOGIES INC	MXWL	577767106	319815	3612	335311.0	P	01	LU	51960	5866	1983-03-18	2019-05-31	
7146	7146	MCCORMICK & CO INC	MKC	579780206	63754	2090	311942.0	P	01	LC	52090	2801	1972-12-14	E	mkc
7146	7146	MCCORMICK & CO INC	MKC	579780206	63754	2090	311942.0	J	02	LC	89155	2801	2001-09-17	E	mkc
7152	7152	MCDERMOTT INTL INC	MDRIQ	580037703	708819	8711	541330.0	P	01	LC	64629	21175	1983-03-16	2020-06-30	
7152	7152	MCDERMOTT INTL INC	MDRIQ	580037703	708819	8711	541330.0	P	01	LC	26534	23414	1962-01-31	1983-03-15	
7154	7154	MCDONALD'S CORP	MCD	580135101	63908	5812	722513.0	P	01	LU	43449	21177	1966-07-05	E	mcd
7161	7161	MCGRATH RENTCORP	MGRC	580589109	752714	7359	532420.0	P	01	LU	89915	7301	1984-11-13	E	mgrc
7163	7163	S&P GLOBAL INC	SPGI	78409V104	64040	7323	561450.0	P	01	LU	17478	21179	1962-01-31	E	spgi
7163	7163	S&P GLOBAL INC	SPGI	78409V104	64040	7323	561450.0	C	00X	LU	17478	21179	1950-01-01	1962-01-30	spgi
7171	7171	MCKESSON CORP	MCK	58155Q103	927653	5122	424210.0	P	01	LC	81061	30521	1994-12-01	E	mck
7171	7171	MCKESSON CORP	MCK	58155Q103	927653	5122	424210.0	P	01	LC	21266	23057	1962-01-31	1967-07-19	mck
7171	7171	MCKESSON CORP	MCK	58155Q103	927653	5122	424210.0	P	01	LC	25646	21180	1967-07-20	1994-11-30	mck
7171	7171	MCKESSON CORP	MCK	58155Q103	927653	5122	424210.0	C	00X	LC	21266	23057	1961-04-01	1962-01-30	mck
7228	7228	MEDTRONIC PLC	MDT	G5960L103	1613103	3845	334510.0	P	01	LC	60097	2850	1972-12-14	E	mdt
7241	7241	CVS HEALTH CORP	CVS	126650100	64803	8000	621.0	C	00X	LC	17005	21185	1950-01-01	1962-01-30	cvs
7241	7241	CVS HEALTH CORP	CVS	126650100	64803	8000	621.0	P	01	LC	17005	21185	1962-01-31	E	cvs
7257	7257	MERCK & CO	MRK	58933Y105	310158	2834	325412.0	C	00X	LC	22752	21188	1950-01-01	1962-01-01	mrk
7257	7257	MERCK & CO	MRK	58933Y105	310158	2834	325412.0	P	01	LC	22752	21188	1962-01-02	E	mrk
7260	7260	MEREDITH CORP	MDP	589433101	65011	2721	511120.0	P	01	LU	42796	21189	1965-12-09	2021-12-31	
7291	7291	METHODE ELECTRONICS INC	MEI	591520200	65270	3678	334417.0	J	02	LC	53189	2881	1982-09-27	2004-01-08	mei
7291	7291	METHODE ELECTRONICS INC	MEI	591520200	65270	3678	334417.0	P	01	LC	53197	2881	1982-09-27	E	mei
7291	7291	METHODE ELECTRONICS INC	MEI	591520200	65270	3678	334417.0	P	01	LC	53189	2881	1972-12-14	1982-09-26	mei
7295	7295	EVI INDUSTRIES INC	EVI	26929N102	65312	5080	423850.0	P	01	LC	87437	36370	1999-11-10	E	evi
7295	7295	EVI INDUSTRIES INC	EVI	26929N102	65312	5080	423850.0	P	01	LC	53226	3080	1980-02-27	1999-01-06	evi
7316	7316	MICHAELS COS INC	MIK	59408Q106	1593936	5945	451120.0	P	02	LC	14696	54891	2014-06-27	2021-04-30	
7316	7316	MICHAELS COS INC	MIK	59408Q106	1593936	5945	451120.0	P	01	LC	53381	6959	1984-05-18	2006-10-31	
7343	7343	MICRON TECHNOLOGY INC	MU	595112103	723125	3674	334413.0	P	01	LU	53613	7065	1984-06-01	E	mu
7346	7346	MICROSEMI CORP	MSCC	595137100	310568	3674	334413.0	P	01	LC	53640	3047	1981-03-27	2018-05-29	
7366	7366	ENTERGY CORP	ETR	29364G103	65984	4911	22111.0	P	01	LU	24010	21201	1962-01-31	E	etr
7366	7366	ENTERGY CORP	ETR	29364G103	65984	4911	22111.0	C	00X	LU	24010	21201	1951-01-01	1962-01-30	etr
7401	7401	MILLERKNOLL INC	MLKN	600544100	66382	2520	3372.0	P	01	LU	54114	2949	1972-12-14	E	mlkn
7420	7420	MSA SAFETY INC	MSA	553498106	66570	3842	339113.0	P	01	LU	54253	2971	1972-12-14	E	msa
7435	7435	3M CO	MMM	88579Y101	66740	9997	999977.0	C	00X	LC	22592	21205	1950-01-01	1962-01-30	mmm
7435	7435	3M CO	MMM	88579Y101	66740	9997	999977.0	P	01	LC	22592	21205	1962-01-31	E	mmm
7437	7437	ALLETE INC	ALE	018522300	66756	4931	221111.0	C	00X	LC	24248	21206	1951-01-01	1962-01-30	ale
7437	7437	ALLETE INC	ALE	018522300	66756	4931	221111.0	P	01	LC	24248	21206	1962-01-31	E	ale
7471	7471	MITSUI & CO LTD	MITSY	606827202	67099	5000	42.0	P	90	LC	54579	2935	1978-01-31	2011-04-21	
7486	7486	MODINE MANUFACTURING CO	MOD	607828100	67347	3714	336390.0	P	01	LU	54704	7093	1984-06-19	E	mod
7525	7525	MONMOUTH RE INVESTMENT CP	MNR.2	609720107	67625	6798	531120.0	C	00X	LC	55029	9480	1973-10-01	1974-04-08	
7525	7525	MONMOUTH RE INVESTMENT CP	MNR.2	609720107	67625	6798	531120.0	C	01	LC	55029	9480	1987-09-03	2022-02-25	
7526	7526	QUIDELORTHO CORP	QDEL	219798105	1906324	2835	325413.0	P	01	LU	76591	10827	1991-02-01	E	qdel
7549	7549	MOOG INC  -CL A	MOG.A	615394202	67887	3728	336413.0	P	01	LU	61807	21219	1980-06-12	E	mog-a
7549	7549	MOOG INC  -CL A	MOG.A	615394202	67887	3728	336413.0	P	01	LU	61807	21219	1980-06-12	E	mog-b
7549	7549	MOOG INC  -CL A	MOG.A	615394202	67887	3728	336413.0	J	02	LU	42614	21219	1981-10-30	E	mog-a
7549	7549	MOOG INC  -CL A	MOG.A	615394202	67887	3728	336413.0	J	02	LU	42614	21219	1981-10-30	E	mog-b
7585	7585	MOTOROLA SOLUTIONS INC	MSI	620076307	68505	3663	334220.0	P	01	LC	22779	21230	1962-01-31	E	msi
7585	7585	MOTOROLA SOLUTIONS INC	MSI	620076307	68505	3663	334220.0	C	00X	LC	22779	21230	1950-01-01	1962-01-30	msi
7620	7620	MURPHY OIL CORP	MUR	626717102	717423	1311	2111.0	P	01	LC	28345	21236	1962-01-02	E	mur
7636	7636	MYERS INDUSTRIES INC	MYE	628464109	69488	3089	326199.0	P	01	LU	65365	3102	1972-12-14	E	mye
7637	7637	VIATRIS INC	VTRS	92556V106	1792044	2834	325412.0	P	01	LC	69550	3104	1973-02-23	2020-11-16	vtrs
7637	7637	VIATRIS INC	VTRS	92556V106	1792044	2834	325412.0	P	01	LC	20057	57529	2020-11-17	E	vtrs
7647	7647	BANK OF AMERICA CORP	BAC	060505104	70858	6020	522110.0	P	01	LC	59408	3151	1972-12-14	E	bac
7647	7647	BANK OF AMERICA CORP	BAC	060505104	70858	6020	522110.0	P	01	LC	59408	3151	1972-12-14	E	bml-ph
7647	7647	BANK OF AMERICA CORP	BAC	060505104	70858	6020	522110.0	P	01	LC	59408	3151	1972-12-14	E	bml-pg
7647	7647	BANK OF AMERICA CORP	BAC	060505104	70858	6020	522110.0	P	01	LC	59408	3151	1972-12-14	E	bml-pl
7647	7647	BANK OF AMERICA CORP	BAC	060505104	70858	6020	522110.0	P	01	LC	59408	3151	1972-12-14	E	bac-pb
7647	7647	BANK OF AMERICA CORP	BAC	060505104	70858	6020	522110.0	P	01	LC	59408	3151	1972-12-14	E	bac-pk
7647	7647	BANK OF AMERICA CORP	BAC	060505104	70858	6020	522110.0	P	01	LC	59408	3151	1972-12-14	E	bac-pl
7647	7647	BANK OF AMERICA CORP	BAC	060505104	70858	6020	522110.0	P	01	LC	59408	3151	1972-12-14	E	bac-pe
7647	7647	BANK OF AMERICA CORP	BAC	060505104	70858	6020	522110.0	P	01	LC	59408	3151	1972-12-14	E	bml-pj
7647	7647	BANK OF AMERICA CORP	BAC	060505104	70858	6020	522110.0	P	01	LC	59408	3151	1972-12-14	E	bac-pm
7647	7647	BANK OF AMERICA CORP	BAC	060505104	70858	6020	522110.0	P	01	LC	59408	3151	1972-12-14	E	bac-pn
7647	7647	BANK OF AMERICA CORP	BAC	060505104	70858	6020	522110.0	P	01	LC	59408	3151	1972-12-14	E	bac-po
7647	7647	BANK OF AMERICA CORP	BAC	060505104	70858	6020	522110.0	P	01	LC	59408	3151	1972-12-14	E	bac-pp
7647	7647	BANK OF AMERICA CORP	BAC	060505104	70858	6020	522110.0	P	01	LC	59408	3151	1972-12-14	E	bac-pq
7647	7647	BANK OF AMERICA CORP	BAC	060505104	70858	6020	522110.0	P	01	LC	59408	3151	1972-12-14	E	bac-ps
7647	7647	BANK OF AMERICA CORP	BAC	060505104	70858	6020	522110.0	P	01	LC	59408	3151	1972-12-14	E	mer-pk
7648	7648	NCR VOYIX CORP	VYX	62886E108	70866	7372	513210.0	C	01	LU	84372	31832	1997-01-02	E	ncr
7648	7648	NCR VOYIX CORP	VYX	62886E108	70866	7372	513210.0	C	00X	LU	19537	21241	1950-01-01	1962-01-30	ncr
7648	7648	NCR VOYIX CORP	VYX	62886E108	70866	7372	513210.0	C	01	LU	19537	21241	1962-01-31	1991-09-19	ncr
7652	7652	NEC CORP	NIPNY	629050204	72127	7373	541512.0	C	90	LC	55782	3196	1978-01-31	2007-09-26	nipnf
7682	7682	NANOMETRICS INC	NANO	630077105	0	3829	334519.0	P	01	LC	90377	7317	1984-11-28	2019-10-27	
7685	7685	NAPCO SECURITY TECH INC	NSSC	630402105	69633	3669	334290.0	P	01	LU	55993	5253	1982-01-29	E	nssc
7733	7733	NATIONAL FUEL GAS CO	NFG	636180101	70145	4924	221210.0	C	00X	LU	25590	21255	1958-01-01	1962-01-30	nfg
7733	7733	NATIONAL FUEL GAS CO	NFG	636180101	70145	4924	221210.0	P	01	LU	25590	21255	1962-01-31	E	nfg
7750	7750	TENET HEALTHCARE CORP	THC	88033G407	70318	8062	622110.0	P	01	LC	52337	21258	1971-04-28	E	thc
7759	7759	GP STRATEGIES CORP	GPX	36225V104	70415	8200	611430.0	P	01	LU	58501	3236	1972-12-14	2021-10-29	
7799	7799	NATURES SUNSHINE PRODS INC	NATR	639027101	275053	2834	325412.0	C	01	LC	56945	250	1979-08-10	2006-04-04	natr
7799	7799	NATURES SUNSHINE PRODS INC	NATR	639027101	275053	2834	325412.0	C	01	LC	56945	250	2009-10-12	E	natr
7849	7849	NEW JERSEY RESOURCES CORP	NJR	646025106	356309	4924	221210.0	P	01	LU	64450	3200	1972-12-14	E	njr
7866	7866	NEW YORK TIMES CO  -CL A	NYT	650111107	71691	2711	513110.0	P	01	LU	47466	21280	1969-01-14	E	nyt
7875	7875	NEWELL BRANDS INC	NWL	651229106	814453	3630	3352.0	P	01	LC	60986	3178	1972-12-14	E	nwl
7881	7881	NEWMONT CORP	NEM	651639106	1164727	1040	212220.0	P	01	LU	21207	21286	1962-01-31	E	nem
7881	7881	NEWMONT CORP	NEM	651639106	1164727	1040	212220.0	C	00X	LU	21207	21286	1961-01-01	1962-01-30	nem
7882	7882	NPK INTERNATIONAL INC	NPKI	651718504	71829	5160	424690.0	C	02	LU	34673	24025	1966-01-31	E	nr
7906	7906	NIKE INC  -CL B	NKE	654106103	320187	3021	316210.0	P	01	LU	57665	3194	1980-12-02	E	nke
7908	7908	NIPPON TELEGRAPH AND TELEPHO	NTTYY	654624105	769594	4813	517111.0	P	90	LU	80863	27574	1994-09-29	E	
7912	7912	NOBLE ENERGY INC	NBL	655044105	72207	1311	2111.0	P	01	LC	61815	3219	1972-12-14	2020-10-30	
7914	7914	NOBLE ROMANS INC	NROM	655107100	709005	6794	533110.0	P	01	LU	57753	6025	1983-06-30	1997-06-20	nrom
7921	7921	NORDSON CORP	NDSN	655663102	72331	3569	333999.0	P	01	LU	57809	3160	1979-12-13	E	ndsn
7922	7922	NORDSTROM INC	JWN	655664100	72333	5651	458110.0	P	01	LU	57817	3217	1972-12-14	E	jwn
7923	7923	NORFOLK SOUTHERN CORP	NSC	655844108	702165	4011	482111.0	P	01	LC	64311	21294	1982-06-25	E	nsc
7923	7923	NORFOLK SOUTHERN CORP	NSC	655844108	702165	4011	482111.0	C	00X	LC	13522	22446	1959-01-01	1962-01-30	nsc
7923	7923	NORFOLK SOUTHERN CORP	NSC	655844108	702165	4011	482111.0	P	01	LC	13522	22446	1962-01-31	1982-06-01	nsc
7938	7938	NACCO INDUSTRIES  -CL A	NC	629579103	789933	1221	212114.0	P	01	LU	28118	21247	1962-01-31	E	nc
7951	7951	MOVADO GROUP INC	MOV	624580106	72573	3873	334519.0	P	01	LU	79611	27626	1993-09-30	E	mov
7970	7970	EVERSOURCE ENERGY	ES	30040W108	72741	4931	2211.0	P	01	LC	44206	21299	1967-02-20	E	es
7974	7974	NISOURCE INC	NI	65473P105	1111711	4932	221210.0	P	01	LU	38762	21244	1962-12-19	E	ni
7974	7974	NISOURCE INC	NI	65473P105	1111711	4932	221210.0	P	01	LU	38762	21244	1962-12-19	E	ni-pb
7974	7974	NISOURCE INC	NI	65473P105	1111711	4932	221210.0	P	01	LU	38762	21244	1962-12-19	E	nimc
7977	7977	XCEL ENERGY INC	XEL	98389B100	72903	4931	2211.0	P	01	LC	23931	21300	1962-01-31	E	xel
7977	7977	XCEL ENERGY INC	XEL	98389B100	72903	4931	2211.0	C	00X	LC	23931	21300	1951-01-01	1962-01-30	xel
7982	7982	NORTHERN TRUST CORP	NTRS	665859104	73124	6020	522110.0	P	01	LU	58246	3275	1972-12-14	E	ntrs
7982	7982	NORTHERN TRUST CORP	NTRS	665859104	73124	6020	522110.0	P	01	LU	58246	3275	1972-12-14	E	ntrso
7985	7985	NORTHROP GRUMMAN CORP	NOC	666807102	1133421	3812	334511.0	P	01	LU	24766	21303	1962-01-31	E	noc
7991	7991	TEREX CORP	TEX	880779103	97216	3530	333923.0	C	01	LC	58318	3302	1982-11-01	E	tex
7991	7991	TEREX CORP	TEX	880779103	97216	3530	333923.0	C	01	LC	58318	3302	1973-11-07	1982-07-08	tex
7993	7993	NORTHWEST NATURAL HLDNG CO	NWN	66765N105	1733998	4924	221210.0	P	01	LC	58334	3306	1972-12-14	E	nwn
8001	8001	NORTHWESTERN ENRGY GROUP INC	NWE	668074305	1993004	4931	22111.0	P	01	LU	58406	3309	1972-12-14	2003-09-12	
8001	8001	NORTHWESTERN ENRGY GROUP INC	NWE	668074305	1993004	4931	22111.0	P	03	LC	90458	3309	2004-11-02	E	
8007	8007	WELLS FARGO & CO	WFC	949746101	72971	6020	522110.0	P	01	LC	38703	21305	1962-12-10	E	wfc
8007	8007	WELLS FARGO & CO	WFC	949746101	72971	6020	522110.0	P	01	LC	38703	21305	1962-12-10	E	wfc-pl
8007	8007	WELLS FARGO & CO	WFC	949746101	72971	6020	522110.0	P	01	LC	38703	21305	1962-12-10	E	wfc-pq
8007	8007	WELLS FARGO & CO	WFC	949746101	72971	6020	522110.0	P	01	LC	38703	21305	1962-12-10	E	wfc-py
8007	8007	WELLS FARGO & CO	WFC	949746101	72971	6020	522110.0	P	01	LC	38703	21305	1962-12-10	E	wfc-pr
8007	8007	WELLS FARGO & CO	WFC	949746101	72971	6020	522110.0	P	01	LC	38703	21305	1962-12-10	E	wfc-pc
8007	8007	WELLS FARGO & CO	WFC	949746101	72971	6020	522110.0	P	01	LC	38703	21305	1962-12-10	E	wfc-pz
8007	8007	WELLS FARGO & CO	WFC	949746101	72971	6020	522110.0	P	01	LC	38703	21305	1962-12-10	E	wfc-pd
8007	8007	WELLS FARGO & CO	WFC	949746101	72971	6020	522110.0	P	01	LC	38703	21305	1962-12-10	E	wfc-pa
8020	8020	NOVO NORDISK A/S	NVO	670100205	353278	2834	325412.0	P	90	LU	63263	3230	1981-04-30	E	nvo
8020	8020	NOVO NORDISK A/S	NVO	670100205	353278	2834	325412.0	P	90	LU	63263	3230	1981-04-30	E	nonof
8030	8030	NUCOR CORP	NUE	670346105	73309	3312	331110.0	P	01	LU	34817	21308	1966-04-29	E	nue
8060	8060	NEWTEKONE INC	NEWT	652526203	1587987	6020	522110.0	P	01	LU	58836	579	1979-01-31	E	newt
8060	8060	NEWTEKONE INC	NEWT	652526203	1587987	6020	522110.0	P	01	LU	58836	579	1979-01-31	E	newtl
8060	8060	NEWTEKONE INC	NEWT	652526203	1587987	6020	522110.0	P	01	LU	58836	579	1979-01-31	E	newtz
8060	8060	NEWTEKONE INC	NEWT	652526203	1587987	6020	522110.0	C	00X	LU	58836	579	1975-01-01	1979-01-30	newt
8060	8060	NEWTEKONE INC	NEWT	652526203	1587987	6020	522110.0	C	00X	LU	58836	579	1975-01-01	1979-01-30	newtl
8060	8060	NEWTEKONE INC	NEWT	652526203	1587987	6020	522110.0	C	00X	LU	58836	579	1975-01-01	1979-01-30	newtz
8068	8068	OCCIDENTAL PETROLEUM CORP	OXY	674599105	797468	1311	2111.0	P	01	LC	34833	21322	1962-07-02	E	oxy
8068	8068	OCCIDENTAL PETROLEUM CORP	OXY	674599105	797468	1311	2111.0	P	01	LC	34833	21322	1962-07-02	E	oxy-wt
8079	8079	OCEANEERING INTERNATIONAL	OII	675232102	73756	1389	213112.0	P	01	LU	58975	3326	1975-11-03	E	oii
8087	8087	ITERIS INC	ITI	46564T107	350868	3669	334290.0	P	02	LC	67029	3333	1991-10-01	2003-07-23	iti
8087	8087	ITERIS INC	ITI	46564T107	350868	3669	334290.0	J	02	LC	67029	3333	1984-11-07	1991-09-30	iti
8087	8087	ITERIS INC	ITI	46564T107	350868	3669	334290.0	J	01	LC	66667	3333	1991-10-01	2003-04-22	iti
8087	8087	ITERIS INC	ITI	46564T107	350868	3669	334290.0	P	01	LC	66667	3333	1981-07-14	1991-09-30	iti
8087	8087	ITERIS INC	ITI	46564T107	350868	3669	334290.0	P	02	LC	67029	3333	2004-12-09	E	iti
8092	8092	BRISTOW GROUP INC	VTOL	11040G103	1525221	4522	481211.0	P	01	LU	59089	3370	1972-12-14	2019-10-31	vtol
8092	8092	BRISTOW GROUP INC	VTOL	11040G103	1525221	4522	481211.0	P	03	LC	13743	54299	2020-06-12	E	vtol
8099	8099	FIRSTENERGY CORP	FE	337932107	1031296	4911	22111.0	C	00X	LU	23026	21326	1951-01-01	1962-01-30	fe
8099	8099	FIRSTENERGY CORP	FE	337932107	1031296	4911	22111.0	P	01	LU	23026	21326	1962-01-31	E	fe
8105	8105	OIL DRI CORP AMERICA	ODC	677864100	74046	3290	327992.0	P	01	LU	59185	3348	1978-05-08	E	odc
8113	8113	OGE ENERGY CORP	OGE	670837103	1021635	4931	2211.0	P	01	LU	24440	21328	1962-01-31	E	oge
8113	8113	OGE ENERGY CORP	OGE	670837103	1021635	4931	2211.0	C	00X	LU	24440	21328	1951-01-01	1962-01-30	oge
8123	8123	OLIN CORP	OLN	680665205	74303	2810	325180.0	C	00X	LU	13610	21329	1954-01-01	1962-01-30	oln
8123	8123	OLIN CORP	OLN	680665205	74303	2810	325180.0	P	01	LU	13610	21329	1962-01-31	E	oln
8151	8151	ONEOK INC	OKE	682680103	1039684	4923	221210.0	P	01	LC	25232	21332	1962-01-31	E	oke
8169	8169	ORBOTECH LTD	ORBK	M75253100	749037	3823	334513.0	P	01	LC	78527	26261	1984-08-09	2019-02-28	
8199	8199	OTTER TAIL CORP	OTTR	689648103	1466593	4911	22111.0	P	01	LU	60098	3418	1972-12-14	E	ottr
8210	8210	OVERSEAS SHIPHOLDING GROUP	OSG	69036R863	75208	4412	483111.0	J	09	LC	15860	55056	2015-12-18	2016-05-31	osg
8210	8210	OVERSEAS SHIPHOLDING GROUP	OSG	69036R863	75208	4412	483111.0	J	09	LC	15860	55056	2015-12-18	2016-05-31	ogsrw
8210	8210	OVERSEAS SHIPHOLDING GROUP	OSG	69036R863	75208	4412	483111.0	P	01	LC	51457	21346	1970-11-05	2012-11-13	osg
8210	8210	OVERSEAS SHIPHOLDING GROUP	OSG	69036R863	75208	4412	483111.0	P	01	LC	51457	21346	1970-11-05	2012-11-13	ogsrw
8210	8210	OVERSEAS SHIPHOLDING GROUP	OSG	69036R863	75208	4412	483111.0	P	09	LC	15860	55056	2016-06-01	E	osg
8210	8210	OVERSEAS SHIPHOLDING GROUP	OSG	69036R863	75208	4412	483111.0	P	09	LC	15860	55056	2016-06-01	E	ogsrw
8210	8210	OVERSEAS SHIPHOLDING GROUP	OSG	69036R863	75208	4412	483111.0	P	03	LC	14976	55056	2014-10-09	2016-04-30	osg
8210	8210	OVERSEAS SHIPHOLDING GROUP	OSG	69036R863	75208	4412	483111.0	P	03	LC	14976	55056	2014-10-09	2016-04-30	ogsrw
8210	8210	OVERSEAS SHIPHOLDING GROUP	OSG	69036R863	75208	4412	483111.0	J	03	LC	14976	55056	2016-05-01	2016-05-31	osg
8210	8210	OVERSEAS SHIPHOLDING GROUP	OSG	69036R863	75208	4412	483111.0	J	03	LC	14976	55056	2016-05-01	2016-05-31	ogsrw
8213	8213	OWENS & MINOR INC	OMI	690732102	75252	5047	423450.0	P	01	LU	60186	3321	1973-01-31	E	omi
8214	8214	OWENS CORNING	OC	690742101	1370946	3290	327993.0	C	00X	LC	24811	21347	1952-03-11	1962-01-30	oc
8214	8214	OWENS CORNING	OC	690742101	1370946	3290	327993.0	P	01	LC	24811	21347	1962-01-31	2002-12-18	oc
8214	8214	OWENS CORNING	OC	690742101	1370946	3290	327993.0	P	06	LC	91531	51337	2006-11-01	E	oc
8215	8215	O-I GLASS INC	OI	67098H104	812074	3221	327213.0	C	02	LU	13661	22462	1962-01-31	1987-03-23	oi
8215	8215	O-I GLASS INC	OI	67098H104	812074	3221	327213.0	C	02	LU	77157	22462	1991-12-11	E	oi
8215	8215	O-I GLASS INC	OI	67098H104	812074	3221	327213.0	C	00X	LU	13661	22462	1950-01-01	1962-01-30	oi
8219	8219	OXFORD INDUSTRIES INC	OXM	691497309	75288	2300	315.0	P	01	LU	34948	21348	1962-07-02	E	oxm
8229	8229	P & F INDUSTRIES  -CL A	PFIN	692830508	75340	3540	333991.0	C	01	LU	44230	6104	1967-03-01	2023-12-29	pfin
8240	8240	PHH CORP	PHH.1	693320202	77776	6162	522292.0	P	01	LC	60679	3549	1972-12-14	1997-04-30	
8240	8240	PHH CORP	PHH.1	693320202	77776	6162	522292.0	P	02	LC	90531	3549	2005-02-01	2018-10-31	
8245	8245	PNC FINANCIAL SVCS GROUP INC	PNC	693475105	713676	6020	522110.0	P	01	LC	60442	3685	1983-01-19	E	pnc
8245	8245	PNC FINANCIAL SVCS GROUP INC	PNC	693475105	713676	6020	522110.0	P	01	LC	60442	3685	1983-01-19	E	pnc-pp
8245	8245	PNC FINANCIAL SVCS GROUP INC	PNC	693475105	713676	6020	522110.0	P	01	LC	63192	3583	1972-12-14	1983-01-18	pnc
8245	8245	PNC FINANCIAL SVCS GROUP INC	PNC	693475105	713676	6020	522110.0	P	01	LC	63192	3583	1972-12-14	1983-01-18	pnc-pp
8247	8247	PPG INDUSTRIES INC	PPG	693506107	79879	2851	325510.0	P	01	LU	22509	21351	1962-01-31	E	ppg
8247	8247	PPG INDUSTRIES INC	PPG	693506107	79879	2851	325510.0	C	00X	LU	22509	21351	1950-01-01	1962-01-30	ppg
8253	8253	PACCAR INC	PCAR	693718108	75362	3711	336120.0	P	01	LU	60506	3487	1972-12-14	E	pcar
8264	8264	PG&E CORP	PCG	69331C108	1004980	4931	2211.0	P	01	LC	13688	21356	1962-01-31	E	pcg
8264	8264	PG&E CORP	PCG	69331C108	1004980	4931	2211.0	P	01	LC	13688	21356	1962-01-31	E	pcg-pa
8264	8264	PG&E CORP	PCG	69331C108	1004980	4931	2211.0	P	01	LC	13688	21356	1962-01-31	E	pcg-pb
8264	8264	PG&E CORP	PCG	69331C108	1004980	4931	2211.0	P	01	LC	13688	21356	1962-01-31	E	pcg-pd
8264	8264	PG&E CORP	PCG	69331C108	1004980	4931	2211.0	P	01	LC	13688	21356	1962-01-31	E	pcg-ph
8264	8264	PG&E CORP	PCG	69331C108	1004980	4931	2211.0	P	01	LC	13688	21356	1962-01-31	E	pcg-pe
8264	8264	PG&E CORP	PCG	69331C108	1004980	4931	2211.0	P	01	LC	13688	21356	1962-01-31	E	pcg-pi
8264	8264	PG&E CORP	PCG	69331C108	1004980	4931	2211.0	P	01	LC	13688	21356	1962-01-31	E	pcgu
8264	8264	PG&E CORP	PCG	69331C108	1004980	4931	2211.0	C	00X	LC	13688	21356	1951-01-01	1962-01-30	pcg
8264	8264	PG&E CORP	PCG	69331C108	1004980	4931	2211.0	C	00X	LC	13688	21356	1951-01-01	1962-01-30	pcg-pa
8264	8264	PG&E CORP	PCG	69331C108	1004980	4931	2211.0	C	00X	LC	13688	21356	1951-01-01	1962-01-30	pcg-pb
8264	8264	PG&E CORP	PCG	69331C108	1004980	4931	2211.0	C	00X	LC	13688	21356	1951-01-01	1962-01-30	pcg-pd
8264	8264	PG&E CORP	PCG	69331C108	1004980	4931	2211.0	C	00X	LC	13688	21356	1951-01-01	1962-01-30	pcg-ph
8264	8264	PG&E CORP	PCG	69331C108	1004980	4931	2211.0	C	00X	LC	13688	21356	1951-01-01	1962-01-30	pcg-pe
8264	8264	PG&E CORP	PCG	69331C108	1004980	4931	2211.0	C	00X	LC	13688	21356	1951-01-01	1962-01-30	pcg-pi
8264	8264	PG&E CORP	PCG	69331C108	1004980	4931	2211.0	C	00X	LC	13688	21356	1951-01-01	1962-01-30	pcgu
8266	8266	NEVADA GOLD & CASINOS INC	UWN	64126Q206	277058	7990	713210.0	C	02	LU	60709	3435	1979-03-19	2019-06-28	
8272	8272	SEMPRA ENERGY	SRE	816851109	1032208	4923	486210.0	P	01	LU	86136	34798	1998-06-29	E	sre
8272	8272	SEMPRA ENERGY	SRE	816851109	1032208	4923	486210.0	P	01	LU	86136	34798	1998-06-29	E	srea
8272	8272	SEMPRA ENERGY	SRE	816851109	1032208	4923	486210.0	C	00X	LU	16870	21355	1951-01-01	1962-01-30	sre
8272	8272	SEMPRA ENERGY	SRE	816851109	1032208	4923	486210.0	C	00X	LU	16870	21355	1951-01-01	1962-01-30	srea
8272	8272	SEMPRA ENERGY	SRE	816851109	1032208	4923	486210.0	P	01	LU	16870	21355	1962-01-31	1998-06-26	sre
8272	8272	SEMPRA ENERGY	SRE	816851109	1032208	4923	486210.0	P	01	LU	16870	21355	1962-01-31	1998-06-26	srea
8334	8334	PAR TECHNOLOGY CORP	PAR	698884103	708821	3578	334118.0	P	01	LU	61146	5708	1982-12-03	E	par
8348	8348	PARK AEROSPACE CORP	PKE	70014A104	76267	3672	334412.0	P	01	LC	35107	21365	1966-01-31	E	pke
8350	8350	PARK OHIO HOLDINGS CORP	PKOH	700666100	76282	5072	423710.0	C	01	LU	61269	3588	1972-12-14	E	pkoh
8357	8357	PARKER DRILLING CO	PKDC	701081606	76321	1381	213111.0	J	03	LC	58675	3505	2019-04-03	2020-02-07	pkdc
8357	8357	PARKER DRILLING CO	PKDC	701081606	76321	1381	213111.0	P	01	LC	58675	3505	1972-12-14	2018-12-12	pkdc
8358	8358	PARKER-HANNIFIN CORP	PH	701094104	76334	3490	332912.0	P	01	LU	41355	21367	1964-12-09	E	ph
8386	8386	PATRICK INDUSTRIES INC	PATK	703343103	76605	3714	336390.0	P	01	LU	61496	3466	1978-01-31	E	patk
8386	8386	PATRICK INDUSTRIES INC	PATK	703343103	76605	3714	336390.0	C	00X	LU	61496	3466	1974-04-01	1978-01-30	patk
8387	8387	GOODRICH PETROLEUM CORP	GDP	382410843	943861	1311	211130.0	P	11	LC	16690	21368	2017-04-11	2021-12-31	
8387	8387	GOODRICH PETROLEUM CORP	GDP	382410843	943861	1311	211130.0	P	01	LC	57509	21368	1972-12-14	2016-01-13	
8402	8402	PAYCHEX INC	PAYX	704326107	723531	8721	541214.0	P	01	LU	61621	6333	1983-08-26	E	payx
8431	8431	AMERICAN FINANCIAL GROUP INC	AFG	025932104	1042046	6331	524126.0	P	01	LC	60687	21372	1979-01-31	E	afg
8431	8431	AMERICAN FINANCIAL GROUP INC	AFG	025932104	1042046	6331	524126.0	P	01	LC	60687	21372	1979-01-31	E	afgc
8431	8431	AMERICAN FINANCIAL GROUP INC	AFG	025932104	1042046	6331	524126.0	P	01	LC	60687	21372	1979-01-31	E	afgd
8431	8431	AMERICAN FINANCIAL GROUP INC	AFG	025932104	1042046	6331	524126.0	P	01	LC	60687	21372	1979-01-31	E	afge
8431	8431	AMERICAN FINANCIAL GROUP INC	AFG	025932104	1042046	6331	524126.0	P	01	LC	60687	21372	1979-01-31	E	afgb
8431	8431	AMERICAN FINANCIAL GROUP INC	AFG	025932104	1042046	6331	524126.0	C	00X	LC	60687	21372	1979-01-01	1979-01-30	afg
8431	8431	AMERICAN FINANCIAL GROUP INC	AFG	025932104	1042046	6331	524126.0	C	00X	LC	60687	21372	1979-01-01	1979-01-30	afgc
8431	8431	AMERICAN FINANCIAL GROUP INC	AFG	025932104	1042046	6331	524126.0	C	00X	LC	60687	21372	1979-01-01	1979-01-30	afgd
8431	8431	AMERICAN FINANCIAL GROUP INC	AFG	025932104	1042046	6331	524126.0	C	00X	LC	60687	21372	1979-01-01	1979-01-30	afge
8431	8431	AMERICAN FINANCIAL GROUP INC	AFG	025932104	1042046	6331	524126.0	C	00X	LC	60687	21372	1979-01-01	1979-01-30	afgb
8440	8440	RANGER OIL CORPORATION	ROCC	70788V102	77159	1311	2111.0	P	01	LC	61955	3730	1972-12-14	2016-01-12	rocc
8440	8440	RANGER OIL CORPORATION	ROCC	70788V102	77159	1311	2111.0	P	05	LC	16529	55825	2017-01-14	2023-06-30	rocc
8446	8446	OLD COPPER CO INC	CPPRQ	679535104	1166126	5311	452210.0	P	01	LC	18403	21375	1962-01-31	2020-05-18	
8446	8446	OLD COPPER CO INC	CPPRQ	679535104	1166126	5311	452210.0	C	00X	LU	18403	21375	1950-02-01	1962-01-30	
8455	8455	PPL CORP	PPL	69351T106	922224	4911	2211.0	P	01	LC	22517	21376	1962-01-31	E	ppl
8455	8455	PPL CORP	PPL	69351T106	922224	4911	2211.0	C	00X	LC	22517	21376	1951-01-01	1962-01-30	ppl
8457	8457	PENNSYLVANIA RE INVS TRUST	PRETQ	709102800	77281	6798	531120.0	P	01	LC	50702	21377	1971-01-29	2022-12-15	pei
8457	8457	PENNSYLVANIA RE INVS TRUST	PRETQ	709102800	77281	6798	531120.0	P	01	LC	50702	21377	1971-01-29	2022-12-15	pei-pb
8457	8457	PENNSYLVANIA RE INVS TRUST	PRETQ	709102800	77281	6798	531120.0	P	01	LC	50702	21377	1971-01-29	2022-12-15	pei-pd
8457	8457	PENNSYLVANIA RE INVS TRUST	PRETQ	709102800	77281	6798	531120.0	P	01	LC	50702	21377	1971-01-29	2022-12-15	pei-pc
8463	8463	PENTAIR PLC	PNR	G7S00T104	77360	3561	333914.0	P	01	LC	13586	54185	2012-09-29	E	pnr
8463	8463	PENTAIR PLC	PNR	G7S00T104	77360	3561	333914.0	P	01	LC	62034	3622	1972-12-14	2012-09-28	pnr
8479	8479	PEPSICO INC	PEP	713448108	77476	2080	31211.0	P	01	LC	13856	21384	1962-01-31	E	pep
8479	8479	PEPSICO INC	PEP	713448108	77476	2080	31211.0	C	00X	LC	13856	21384	1950-01-01	1962-01-30	pep
8486	8486	TUTOR PERINI CORP	TPC	901109108	77543	1600	237310.0	C	01	LC	50550	21385	1970-05-12	E	tpc
8512	8512	PDC ENERGY INC	PDCE	69327R101	77877	1311	211120.0	P	01	LU	62341	3526	1978-01-31	2023-08-31	pdce
8530	8530	PFIZER INC	PFE	717081103	78003	2834	325412.0	P	01	LC	21936	21394	1962-01-31	E	pfe
8530	8530	PFIZER INC	PFE	717081103	78003	2834	325412.0	C	00X	LC	21936	21394	1950-01-01	1962-01-30	pfe
8539	8539	EXELON CORP	EXC	30161N101	1109357	4911	22111.0	P	01	LC	21776	21396	1962-01-31	E	exc
8539	8539	EXELON CORP	EXC	30161N101	1109357	4911	22111.0	C	00X	LC	21776	21396	1951-01-01	1962-01-30	exc
8542	8542	ESSENTIAL UTILITIES INC	WTRG	29670G102	78128	4941	221310.0	P	01	LC	52898	21397	1971-07-26	E	wtrg
8543	8543	ALTRIA GROUP INC	MO	02209S103	764180	2111	312230.0	P	01	LC	13901	21398	1962-01-31	E	mo
8543	8543	ALTRIA GROUP INC	MO	02209S103	764180	2111	312230.0	C	00X	LC	13901	21398	1950-01-01	1962-01-30	mo
8544	8544	PLDT INC	PHI	69344D408	78150	4812	517112.0	P	90	LC	81043	21399	1994-10-19	E	phi
8544	8544	PLDT INC	PHI	69344D408	78150	4812	517112.0	P	90	LC	81043	21399	1994-10-19	E	phtcf
8544	8544	PLDT INC	PHI	69344D408	78150	4812	517112.0	P	90	LC	38607	21399	1962-10-02	1994-10-18	phi
8544	8544	PLDT INC	PHI	69344D408	78150	4812	517112.0	P	90	LC	38607	21399	1962-10-02	1994-10-18	phtcf
8546	8546	KONINKLIJKE PHILIPS NV	PHG	500472303	313216	3845	334510.0	P	90	LC	88487	3545	2000-08-01	E	phg
8546	8546	KONINKLIJKE PHILIPS NV	PHG	500472303	313216	3845	334510.0	P	90	LC	88487	3545	2000-08-01	E	rylpf
8546	8546	KONINKLIJKE PHILIPS NV	PHG	500472303	313216	3845	334510.0	P	90	LC	86943	3545	1999-06-08	2000-07-31	phg
8546	8546	KONINKLIJKE PHILIPS NV	PHG	500472303	313216	3845	334510.0	P	90	LC	86943	3545	1999-06-08	2000-07-31	rylpf
8546	8546	KONINKLIJKE PHILIPS NV	PHG	500472303	313216	3845	334510.0	P	90	LC	62616	3545	1973-01-31	1999-05-28	phg
8546	8546	KONINKLIJKE PHILIPS NV	PHG	500472303	313216	3845	334510.0	P	90	LC	62616	3545	1973-01-31	1999-05-28	rylpf
8546	8546	KONINKLIJKE PHILIPS NV	PHG	500472303	313216	3845	334510.0	C	00X	LC	62616	3545	1973-01-01	1973-01-30	phg
8546	8546	KONINKLIJKE PHILIPS NV	PHG	500472303	313216	3845	334510.0	C	00X	LC	62616	3545	1973-01-01	1973-01-30	rylpf
8549	8549	CONOCOPHILLIPS	COP	20825C104	1163165	1311	2111.0	P	01	LC	13928	21401	1962-01-31	E	cop
8549	8549	CONOCOPHILLIPS	COP	20825C104	1163165	1311	2111.0	C	00X	LC	13928	21401	1950-01-01	1962-01-30	cop
8551	8551	PVH CORP	PVH	693656100	78239	2300	315.0	P	01	LC	13936	21402	1962-02-28	E	pvh
8551	8551	PVH CORP	PVH	693656100	78239	2300	315.0	C	00X	LC	13936	21402	1950-01-01	1962-02-27	pvh
8579	8579	PIER 1 IMPORTS INC/DE	PIRRQ	720279504	278130	5700	442299.0	P	01	LU	51692	21405	1980-01-31	2020-10-30	
8579	8579	PIER 1 IMPORTS INC/DE	PIRRQ	720279504	278130	5700	442299.0	C	00X	LU	51692	21405	1979-09-01	1980-01-30	
8599	8599	AGILYSYS INC	AGYS	00847J105	78749	7372	513210.0	P	01	LU	63125	3580	1972-12-14	E	agys
8605	8605	PIPER SANDLER COS	PIPR	724078100	1230245	6211	523150.0	P	02	LC	89968	44721	2004-01-02	E	pipr
8605	8605	PIPER SANDLER COS	PIPR	724078100	1230245	6211	523150.0	P	01	LC	10120	8065	1986-03-18	1998-05-01	pipr
8606	8606	PITNEY BOWES INC	PBI	724479100	78814	3579	333310.0	P	01	LU	24459	21411	1962-01-31	E	pbi
8606	8606	PITNEY BOWES INC	PBI	724479100	78814	3579	333310.0	P	01	LU	24459	21411	1962-01-31	E	pbi-pb
8606	8606	PITNEY BOWES INC	PBI	724479100	78814	3579	333310.0	C	00X	LU	24459	21411	1950-09-18	1962-01-30	pbi
8606	8606	PITNEY BOWES INC	PBI	724479100	78814	3579	333310.0	C	00X	LU	24459	21411	1950-09-18	1962-01-30	pbi-pb
8633	8633	PLANTRONICS INC	POLY	727493108	914025	3661	334210.0	C	01	LC	80185	30106	1994-01-20	2022-09-30	poly
8633	8633	PLANTRONICS INC	POLY	727493108	914025	3661	334210.0	C	01	LC	52628	25265	1971-06-07	1989-03-01	poly
8644	8644	KINROSS GOLD CORP	KGC	496902404	701818	1040	212220.0	P	01	LC	89692	26227	2003-02-03	E	kgc
8644	8644	KINROSS GOLD CORP	KGC	496902404	701818	1040	212220.0	P	01	LC	78395	26227	1982-11-01	2003-01-31	kgc
8692	8692	POTLATCHDELTIC CORP	PCH	737630103	1338749	6798	531190.0	P	01	LC	49744	21431	1969-12-15	E	pch
8699	8699	POWELL INDUSTRIES INC	POWL	739128106	80420	3613	335313.0	P	01	LU	63715	3642	1977-01-31	E	powl
8699	8699	POWELL INDUSTRIES INC	POWL	739128106	80420	3613	335313.0	C	00X	LU	63715	3642	1976-11-01	1977-01-30	powl
8762	8762	PROCTER & GAMBLE CO	PG	742718109	80424	2840	325611.0	P	01	LU	18163	21446	1962-01-31	E	pg
8762	8762	PROCTER & GAMBLE CO	PG	742718109	80424	2840	325611.0	C	00X	LU	18163	21446	1949-07-01	1962-01-30	pg
8789	8789	PROTECTIVE LIFE CORP	PL.	743674103	355429	6311	524113.0	C	01	LC	64486	3684	1972-12-14	2015-02-02	
8807	8807	TXNM ENERGY INC	TXNM	69349H107	1108426	4911	2211.0	P	01	LU	55511	21457	1972-09-08	E	pnm
8810	8810	PUBLIC SERVICE ENTRP GRP INC	PEG	744573106	788784	4931	22111.0	P	01	LU	23712	21458	1962-01-31	E	peg
8810	8810	PUBLIC SERVICE ENTRP GRP INC	PEG	744573106	788784	4931	22111.0	C	00X	LU	23712	21458	1951-01-01	1962-01-30	peg
8823	8823	PULTEGROUP INC	PHM	745867101	822416	1531	236117.0	P	01	LU	54148	21349	1972-02-07	E	phm
8826	8826	PURE CYCLE CORP	PCYO	746228303	276720	4950	221310.0	C	01	LU	64742	3500	1979-01-31	E	pcyo
8850	8850	QUAKER HOUGHTON	KWR	747316107	81362	2990	324191.0	P	01	LU	64929	3741	1972-12-14	E	kwr
8858	8858	NEXTGEN HEALTHCARE INC	NXGN	65343C102	708818	7372	513210.0	P	01	LC	64961	5703	1982-12-01	2023-11-30	nxgn
8864	8864	AMTECH SYSTEMS INC	ASYS	032332504	720500	3559	333242.0	P	01	LU	65008	6244	1983-08-02	E	asys
8867	8867	QUANTUM CORP	QMCO	747906600	709283	3572	334112.0	P	02	LC	87043	5722	2020-02-03	E	qmco
8867	8867	QUANTUM CORP	QMCO	747906600	709283	3572	334112.0	P	02	LC	87043	5722	1999-08-04	2019-01-14	qmco
8867	8867	QUANTUM CORP	QMCO	747906600	709283	3572	334112.0	J	01	LC	65024	5722	1999-08-01	1999-08-31	qmco
8867	8867	QUANTUM CORP	QMCO	747906600	709283	3572	334112.0	P	01	LC	65024	5722	1983-12-30	1999-07-31	qmco
8870	8870	QUEBECOR INC  -CL B	QBCRF	748193208	81465	4812	51711.0	C	01	LU	56311	21474	1973-01-19	1998-12-24	
8892	8892	RCM TECHNOLOGIES INC	RCMT	749360400	700841	7363	561320.0	P	01	LU	65270	5660	1982-10-26	E	rcmt
8898	8898	RAYMOND JAMES FINANCIAL INC	RJF	754730109	720005	6211	523150.0	P	01	LU	69649	6137	1983-07-01	E	rjf
8898	8898	RAYMOND JAMES FINANCIAL INC	RJF	754730109	720005	6211	523150.0	P	01	LU	69649	6137	1983-07-01	E	rjf-pa
8898	8898	RAYMOND JAMES FINANCIAL INC	RJF	754730109	720005	6211	523150.0	P	01	LU	69649	6137	1983-07-01	E	rjf-pb
8901	8901	RPC INC	RES	749660106	742278	1389	213112.0	P	01	LU	66683	21482	1984-07-02	E	res
8902	8902	RPM INTERNATIONAL INC	RPM	749685103	110621	2890	325998.0	P	01	LU	65307	3911	1972-12-14	E	rpm
8958	8958	RAVEN INDUSTRIES INC	RAVN	754212108	82166	3080	326113.0	P	01	LU	62033	3781	1972-12-14	2021-11-30	
8972	8972	RAYTHEON CO	RTN	755111507	1047122	3812	334511.0	J	02	LU	85658	21492	1997-12-18	2001-05-14	
8972	8972	RAYTHEON CO	RTN	755111507	1047122	3812	334511.0	P	01	LU	24942	21492	1962-02-28	2020-04-30	
8972	8972	RAYTHEON CO	RTN	755111507	1047122	3812	334511.0	C	00X	LU	24942	21492	1952-09-15	1962-02-27	
9016	9016	REGAL REXNORD CORP	RRX	758750103	82811	3621	335312.0	P	01	LU	58771	3840	1973-10-16	E	rrx
9023	9023	REGIS CORP/MN	RGS	758932206	716643	7200	812112.0	C	01	LC	76711	37472	1992-02-28	E	rgs
9023	9023	REGIS CORP/MN	RGS	758932206	716643	7200	812112.0	C	01	LC	66174	5947	1983-04-26	1988-10-13	rgs
9063	9063	AUTONATION INC	AN	05329W102	350698	5500	441110.0	C	01	LU	76282	10594	1990-05-11	E	an
9125	9125	RICHARDSON ELECTRONICS LTD	RELL	763165107	355948	5065	423690.0	P	01	LU	66852	6533	1983-10-28	E	rell
9155	9155	RITE AID CORP	RADCQ	767754872	84129	5912	456110.0	P	01	LU	46922	21515	1968-10-07	2024-08-31	rad
9171	9171	RGC RESOURCES INC	RGCO	74955L103	1069533	4924	221210.0	P	01	LU	80294	26503	1994-02-01	E	rgco
9203	9203	ROCKWELL AUTOMATION	ROK	773903109	1024478	3620	335314.0	P	01	LC	84381	31847	1996-12-16	E	rok
9203	9203	ROCKWELL AUTOMATION	ROK	773903109	1024478	3620	335314.0	C	00X	LC	18948	21524	1949-10-01	1962-01-30	rok
9203	9203	ROCKWELL AUTOMATION	ROK	773903109	1024478	3620	335314.0	P	01	LC	18948	21524	1962-01-31	1996-12-06	rok
9215	9215	ROGERS COMMUNICATIONS  -CL B	RCI	775109200	733099	4812	517312.0	C	01	LU	78405	26164	1982-11-01	E	rci
9215	9215	ROGERS COMMUNICATIONS  -CL B	RCI	775109200	733099	4812	517312.0	C	01	LU	78405	26164	1982-11-01	E	rciaf
9216	9216	ROGERS CORP	ROG	775133101	84748	3672	334412.0	P	01	LU	35991	21526	1966-01-31	E	rog
9225	9225	ROLLINS INC	ROL	775711104	84839	7340	561710.0	P	01	LU	36003	21530	1962-07-02	E	rol
9248	9248	ROSS STORES INC	ROST	778296103	745732	5651	458110.0	P	01	LU	91556	7684	1985-08-08	E	rost
9258	9258	ROWAN COMPANIES LTD	RDC	G7665A101	85408	1381	213111.0	P	01	LC	45495	21532	1967-12-29	2019-04-30	
9273	9273	ROYAL GOLD INC	RGLD	780287108	85535	6795	523910.0	P	01	LC	67847	3914	1982-01-29	E	rgld
9299	9299	RYDER SYSTEM INC	R	783549108	85961	7510	532120.0	P	01	LU	27633	21541	1962-01-31	E	r
9317	9317	SEI INVESTMENTS CO	SEIC	784117103	350894	6282	523940.0	P	01	LU	68196	4040	1981-03-25	E	seic
9324	9324	SJW GROUP	SJW	784305104	766829	4941	221310.0	P	01	LU	54199	21545	1972-02-11	E	sjw
9355	9355	SAFEGUARD SCIENTIFICS INC	SFES	786449306	86115	6799	523999.0	P	01	LU	46340	21551	1968-06-17	E	sfe
9465	9465	SCHLUMBERGER LTD	SLB	806857108	87347	1389	213112.0	P	01	LC	14277	21576	1962-02-02	E	slb
9465	9465	SCHLUMBERGER LTD	SLB	806857108	87347	1389	213112.0	C	00X	LC	14277	21576	1957-01-01	1962-02-01	slb
9466	9466	SCHOLASTIC CORP	SCHL	807066105	866729	2731	513130.0	C	01	LU	77354	11358	1992-02-25	E	schl
9472	9472	SCHULMAN (A.) INC	SHLM	808194104	87565	2821	325211.0	P	01	LU	69199	4096	1972-12-14	2018-08-31	
9551	9551	DIGITAL TURBINE INC	APPS	25400W102	317788	7372	513210.0	C	01	LC	88518	38418	2000-08-15	2002-08-25	apps
9551	9551	DIGITAL TURBINE INC	APPS	25400W102	317788	7372	513210.0	C	01	LC	69623	5306	1982-02-11	1992-06-29	apps
9551	9551	DIGITAL TURBINE INC	APPS	25400W102	317788	7372	513210.0	P	02	LC	88518	38418	2013-06-12	E	apps
9555	9555	SEALED AIR CORP	SEE	81211K100	1012100	3081	326113.0	P	01	LC	85926	34702	1998-04-08	E	see
9555	9555	SEALED AIR CORP	SEE	81211K100	1012100	3081	326113.0	P	01	LC	61049	3968	1972-12-14	1998-03-31	see
9589	9589	SEITEL INC	3SELA	816074405	750813	1382	213112.0	P	02	LC	91804	7419	1985-02-12	2003-03-14	
9590	9590	INTRICON CORP	IIN	46121H109	88790	3842	334510.0	P	01	LU	41574	21594	1965-02-08	2022-05-31	
9599	9599	SEMTECH CORP	SMTC	816850101	88941	3674	334413.0	P	01	LU	50948	21596	1970-07-27	E	smtc
9611	9611	SERVICE CORP INTERNATIONAL	SCI	817565104	89089	7200	812210.0	P	01	LU	51625	21599	1970-12-07	E	sci
9664	9664	SHENANDOAH TELECOMMUN CO	SHEN	82312B106	354963	4813	517111.0	P	01	LC	88742	40213	2000-10-23	E	shen
9667	9667	SHERWIN-WILLIAMS CO	SHW	824348106	89800	2851	325510.0	P	01	LC	36468	21609	1962-07-02	E	shw
9728	9728	MCEWEN MINING INC	MUX	58039P305	314203	1040	212221.0	P	02	LC	70704	4246	2006-12-11	E	mux
9728	9728	MCEWEN MINING INC	MUX	58039P305	314203	1040	212221.0	P	02	LC	70704	4246	1980-05-07	1998-09-24	mux
9771	9771	SMITH (A.O.)	AOS	831865209	91142	3630	335220.0	N	02	LC	65402	21625	1983-09-30	1988-12-31	aos
9771	9771	SMITH (A.O.)	AOS	831865209	91142	3630	335220.0	N	01	LC	19852	21625	1989-01-01	2002-08-05	aos
9771	9771	SMITH (A.O.)	AOS	831865209	91142	3630	335220.0	P	01	LC	19852	21625	1982-01-29	1988-12-31	aos
9771	9771	SMITH (A.O.)	AOS	831865209	91142	3630	335220.0	C	02	LC	19852	21625	1962-01-31	1982-01-28	aos
9771	9771	SMITH (A.O.)	AOS	831865209	91142	3630	335220.0	C	00X	LC	19852	21625	1959-08-01	1962-01-30	aos
9771	9771	SMITH (A.O.)	AOS	831865209	91142	3630	335220.0	P	02	LC	65402	21625	1989-01-01	E	aos
9777	9777	SMUCKER (JM) CO	SJM	832696405	91419	2033	311421.0	J	02	LC	77058	21629	1991-10-31	2000-08-28	sjm
9777	9777	SMUCKER (JM) CO	SJM	832696405	91419	2033	311421.0	P	01	LC	42585	21629	1965-10-20	E	sjm
9778	9778	SNAP-ON INC	SNA	833034101	91440	3420	332216.0	P	01	LU	60206	4162	1972-12-14	E	sna
9783	9783	KEYCORP	KEY	493267108	91576	6020	522110.0	C	01	LC	70958	4183	1972-12-14	1994-03-01	key
9783	9783	KEYCORP	KEY	493267108	91576	6020	522110.0	C	01	LC	70958	4183	1972-12-14	1994-03-01	key-pk
9783	9783	KEYCORP	KEY	493267108	91576	6020	522110.0	C	01	LC	70958	4183	1972-12-14	1994-03-01	key-pj
9783	9783	KEYCORP	KEY	493267108	91576	6020	522110.0	C	01	LC	70958	4183	1972-12-14	1994-03-01	key-pi
9783	9783	KEYCORP	KEY	493267108	91576	6020	522110.0	C	01	LC	70958	4183	1972-12-14	1994-03-01	key-pl
9783	9783	KEYCORP	KEY	493267108	91576	6020	522110.0	C	01	LC	64995	2535	1994-03-02	E	key
9783	9783	KEYCORP	KEY	493267108	91576	6020	522110.0	C	01	LC	64995	2535	1994-03-02	E	key-pk
9783	9783	KEYCORP	KEY	493267108	91576	6020	522110.0	C	01	LC	64995	2535	1994-03-02	E	key-pj
9783	9783	KEYCORP	KEY	493267108	91576	6020	522110.0	C	01	LC	64995	2535	1994-03-02	E	key-pi
9783	9783	KEYCORP	KEY	493267108	91576	6020	522110.0	C	01	LC	64995	2535	1994-03-02	E	key-pl
9815	9815	SONOCO PRODUCTS CO	SON	835495102	91767	2650	322219.0	P	01	LU	71176	4196	1972-12-14	E	son
9818	9818	SONY GROUP CORPORATION	SONY	835699307	313838	3600	335.0	P	90	LC	51131	21633	1970-09-17	E	sony
9818	9818	SONY GROUP CORPORATION	SONY	835699307	313838	3600	335.0	P	90	LC	51131	21633	1970-09-17	E	snejf
9831	9831	SOUTH JERSEY INDUSTRIES INC	SJI	838518108	91928	4924	221210.0	P	01	LC	26614	21637	1970-04-20	2023-02-28	sji
9831	9831	SOUTH JERSEY INDUSTRIES INC	SJI	838518108	91928	4924	221210.0	P	01	LC	26614	21637	1970-04-20	2023-02-28	sjij
9831	9831	SOUTH JERSEY INDUSTRIES INC	SJI	838518108	91928	4924	221210.0	P	01	LC	26614	21637	1970-04-20	2023-02-28	sjiv
9835	9835	PIONEER ENERGY SERVICES CORP	PESXQ	723664108	320575	1389	213112.0	C	01	LC	63335	4202	1981-02-04	2019-08-13	
9846	9846	EDISON INTERNATIONAL	EIX	281020107	827052	4911	22111.0	C	00X	LU	15720	21543	1951-01-01	1962-01-30	eix
9846	9846	EDISON INTERNATIONAL	EIX	281020107	827052	4911	22111.0	P	01	LU	15720	21543	1962-01-31	E	eix
9849	9849	AMERICAN STATES WATER CO	AWR	029899101	1056903	4941	221310.0	P	01	LU	71475	4350	1975-01-31	E	awr
9849	9849	AMERICAN STATES WATER CO	AWR	029899101	1056903	4941	221310.0	C	00X	LU	71475	4350	1974-01-01	1975-01-30	awr
9850	9850	SOUTHERN CO	SO	842587107	92122	4911	2211.0	P	01	LC	18411	21640	1962-01-31	E	so
9850	9850	SOUTHERN CO	SO	842587107	92122	4911	2211.0	P	01	LC	18411	21640	1962-01-31	E	sojc
9850	9850	SOUTHERN CO	SO	842587107	92122	4911	2211.0	P	01	LC	18411	21640	1962-01-31	E	sojd
9850	9850	SOUTHERN CO	SO	842587107	92122	4911	2211.0	P	01	LC	18411	21640	1962-01-31	E	soje
9850	9850	SOUTHERN CO	SO	842587107	92122	4911	2211.0	C	00X	LC	18411	21640	1951-01-01	1962-01-30	so
9850	9850	SOUTHERN CO	SO	842587107	92122	4911	2211.0	C	00X	LC	18411	21640	1951-01-01	1962-01-30	sojc
9850	9850	SOUTHERN CO	SO	842587107	92122	4911	2211.0	C	00X	LC	18411	21640	1951-01-01	1962-01-30	sojd
9850	9850	SOUTHERN CO	SO	842587107	92122	4911	2211.0	C	00X	LC	18411	21640	1951-01-01	1962-01-30	soje
9882	9882	SOUTHWEST AIRLINES	LUV	844741108	92380	4512	481111.0	P	01	LU	58683	4181	1972-12-14	E	luv
9890	9890	SOUTHWEST GAS HOLDINGS INC	SWX	844895102	1692115	4923	221210.0	P	01	LU	61188	4342	1972-12-14	E	swx
9899	9899	AT&T INC	T	00206R102	732717	4812	517112.0	P	01	LC	66093	21645	1984-02-16	E	t
9899	9899	AT&T INC	T	00206R102	732717	4812	517112.0	P	01	LC	66093	21645	1984-02-16	E	tbb
9899	9899	AT&T INC	T	00206R102	732717	4812	517112.0	P	01	LC	66093	21645	1984-02-16	E	tbc
9899	9899	AT&T INC	T	00206R102	732717	4812	517112.0	P	01	LC	66093	21645	1984-02-16	E	t-pa
9899	9899	AT&T INC	T	00206R102	732717	4812	517112.0	P	01	LC	66093	21645	1984-02-16	E	t-pc
9904	9904	SOUTHWESTERN ENERGY CO	SWN	845467109	7332	1311	2111.0	P	01	LU	63765	4338	1973-01-31	E	swn
9904	9904	SOUTHWESTERN ENERGY CO	SWN	845467109	7332	1311	2111.0	C	00X	LU	63765	4338	1973-01-01	1973-01-30	swn
9919	9919	THE SHYFT GROUP INC	SHYF	825698103	743238	3537	333924.0	P	01	LC	71985	7064	1984-06-19	E	shyf
9969	9969	STAAR SURGICAL CO	STAA	852312305	718937	3851	339115.0	C	02	LU	72304	6144	1984-01-31	E	staa
9969	9969	STAAR SURGICAL CO	STAA	852312305	718937	3851	339115.0	C	00X	LU	72304	6144	1984-01-01	1984-01-30	staa
10000	10000	STANDARD MOTOR PRODS	SMP	853666105	93389	3690	336320.0	P	01	LU	39220	21658	1963-05-23	E	smp
10008	10008	STANDEX INTERNATIONAL CORP	SXI	854231107	310354	3670	33441.0	P	01	LU	43481	21662	1966-07-11	E	sxi
10016	10016	STANLEY BLACK & DECKER INC	SWK	854502101	93556	3540	333991.0	P	01	LC	43350	21664	1966-06-15	E	swk
10016	10016	STANLEY BLACK & DECKER INC	SWK	854502101	93556	3540	333991.0	P	01	LC	43350	21664	1966-06-15	E	swt
10035	10035	STATE STREET CORP	STT	857477103	93751	6282	523940.0	C	01	LU	72726	4260	1972-12-14	E	stt
10035	10035	STATE STREET CORP	STT	857477103	93751	6282	523940.0	C	01	LU	72726	4260	1972-12-14	E	stt-pd
10035	10035	STATE STREET CORP	STT	857477103	93751	6282	523940.0	C	01	LU	72726	4260	1972-12-14	E	stt-pg
10056	10056	STEPAN CO	SCL	858586100	94049	2840	325613.0	P	01	LU	36898	21669	1966-01-31	E	scl
10086	10086	STEWART INFORMATION SERVICES	STC	860372101	94344	6361	524127.0	P	01	LU	72980	4120	1972-12-14	E	stc
10096	10096	PUBLIC STORAGE	PSA	74460D109	1393311	6798	531130.0	P	01	LC	64653	4289	1981-01-30	E	psa
10096	10096	PUBLIC STORAGE	PSA	74460D109	1393311	6798	531130.0	P	01	LC	64653	4289	1981-01-30	E	psa-ph
10096	10096	PUBLIC STORAGE	PSA	74460D109	1393311	6798	531130.0	P	01	LC	64653	4289	1981-01-30	E	psa-pk
10096	10096	PUBLIC STORAGE	PSA	74460D109	1393311	6798	531130.0	P	01	LC	64653	4289	1981-01-30	E	psa-pi
10096	10096	PUBLIC STORAGE	PSA	74460D109	1393311	6798	531130.0	P	01	LC	64653	4289	1981-01-30	E	psa-pj
10096	10096	PUBLIC STORAGE	PSA	74460D109	1393311	6798	531130.0	P	01	LC	64653	4289	1981-01-30	E	psa-pf
10096	10096	PUBLIC STORAGE	PSA	74460D109	1393311	6798	531130.0	P	01	LC	64653	4289	1981-01-30	E	psa-pg
10096	10096	PUBLIC STORAGE	PSA	74460D109	1393311	6798	531130.0	P	01	LC	64653	4289	1981-01-30	E	psa-pl
10096	10096	PUBLIC STORAGE	PSA	74460D109	1393311	6798	531130.0	P	01	LC	64653	4289	1981-01-30	E	psa-pm
10096	10096	PUBLIC STORAGE	PSA	74460D109	1393311	6798	531130.0	P	01	LC	64653	4289	1981-01-30	E	psa-pn
10096	10096	PUBLIC STORAGE	PSA	74460D109	1393311	6798	531130.0	P	01	LC	64653	4289	1981-01-30	E	psa-po
10096	10096	PUBLIC STORAGE	PSA	74460D109	1393311	6798	531130.0	P	01	LC	64653	4289	1981-01-30	E	psa-pp
10096	10096	PUBLIC STORAGE	PSA	74460D109	1393311	6798	531130.0	P	01	LC	64653	4289	1981-01-30	E	psa-pq
10096	10096	PUBLIC STORAGE	PSA	74460D109	1393311	6798	531130.0	P	01	LC	64653	4289	1981-01-30	E	psa-pr
10096	10096	PUBLIC STORAGE	PSA	74460D109	1393311	6798	531130.0	P	01	LC	64653	4289	1981-01-30	E	psa-ps
10096	10096	PUBLIC STORAGE	PSA	74460D109	1393311	6798	531130.0	C	00X	LC	64653	4289	1981-01-01	1981-01-29	psa
10096	10096	PUBLIC STORAGE	PSA	74460D109	1393311	6798	531130.0	C	00X	LC	64653	4289	1981-01-01	1981-01-29	psa-ph
10096	10096	PUBLIC STORAGE	PSA	74460D109	1393311	6798	531130.0	C	00X	LC	64653	4289	1981-01-01	1981-01-29	psa-pk
10096	10096	PUBLIC STORAGE	PSA	74460D109	1393311	6798	531130.0	C	00X	LC	64653	4289	1981-01-01	1981-01-29	psa-pi
10096	10096	PUBLIC STORAGE	PSA	74460D109	1393311	6798	531130.0	C	00X	LC	64653	4289	1981-01-01	1981-01-29	psa-pj
10096	10096	PUBLIC STORAGE	PSA	74460D109	1393311	6798	531130.0	C	00X	LC	64653	4289	1981-01-01	1981-01-29	psa-pf
10096	10096	PUBLIC STORAGE	PSA	74460D109	1393311	6798	531130.0	C	00X	LC	64653	4289	1981-01-01	1981-01-29	psa-pg
10096	10096	PUBLIC STORAGE	PSA	74460D109	1393311	6798	531130.0	C	00X	LC	64653	4289	1981-01-01	1981-01-29	psa-pl
10096	10096	PUBLIC STORAGE	PSA	74460D109	1393311	6798	531130.0	C	00X	LC	64653	4289	1981-01-01	1981-01-29	psa-pm
10096	10096	PUBLIC STORAGE	PSA	74460D109	1393311	6798	531130.0	C	00X	LC	64653	4289	1981-01-01	1981-01-29	psa-pn
10096	10096	PUBLIC STORAGE	PSA	74460D109	1393311	6798	531130.0	C	00X	LC	64653	4289	1981-01-01	1981-01-29	psa-po
10096	10096	PUBLIC STORAGE	PSA	74460D109	1393311	6798	531130.0	C	00X	LC	64653	4289	1981-01-01	1981-01-29	psa-pp
10096	10096	PUBLIC STORAGE	PSA	74460D109	1393311	6798	531130.0	C	00X	LC	64653	4289	1981-01-01	1981-01-29	psa-pq
10096	10096	PUBLIC STORAGE	PSA	74460D109	1393311	6798	531130.0	C	00X	LC	64653	4289	1981-01-01	1981-01-29	psa-pr
10096	10096	PUBLIC STORAGE	PSA	74460D109	1393311	6798	531130.0	C	00X	LC	64653	4289	1981-01-01	1981-01-29	psa-ps
10115	10115	STRYKER CORP	SYK	863667101	310764	3841	339112.0	P	01	LU	73139	4298	1979-05-02	E	syk
10121	10121	NAVIENT CORP	NAVI	63938C108	1593538	6111	522299.0	P	04	LC	66325	6412	1992-07-24	2014-04-30	navi
10121	10121	NAVIENT CORP	NAVI	63938C108	1593538	6111	522299.0	P	04	LC	66325	6412	1992-07-24	2014-04-30	jsm
10121	10121	NAVIENT CORP	NAVI	63938C108	1593538	6111	522299.0	J	01	LC	66325	6412	1992-07-01	1992-07-23	navi
10121	10121	NAVIENT CORP	NAVI	63938C108	1593538	6111	522299.0	J	01	LC	66325	6412	1992-07-01	1992-07-23	jsm
10121	10121	NAVIENT CORP	NAVI	63938C108	1593538	6111	522299.0	P	01	LC	66325	6412	1983-10-31	1992-06-30	navi
10121	10121	NAVIENT CORP	NAVI	63938C108	1593538	6111	522299.0	P	01	LC	66325	6412	1983-10-31	1992-06-30	jsm
10121	10121	NAVIENT CORP	NAVI	63938C108	1593538	6111	522299.0	J	02	LC	66325	6412	1983-10-01	1983-10-30	navi
10121	10121	NAVIENT CORP	NAVI	63938C108	1593538	6111	522299.0	J	02	LC	66325	6412	1983-10-01	1983-10-30	jsm
10121	10121	NAVIENT CORP	NAVI	63938C108	1593538	6111	522299.0	P	02	LC	66325	6412	1983-09-23	1983-09-30	navi
10121	10121	NAVIENT CORP	NAVI	63938C108	1593538	6111	522299.0	P	02	LC	66325	6412	1983-09-23	1983-09-30	jsm
10121	10121	NAVIENT CORP	NAVI	63938C108	1593538	6111	522299.0	P	04	LC	14601	54824	2014-05-01	E	navi
10121	10121	NAVIENT CORP	NAVI	63938C108	1593538	6111	522299.0	P	04	LC	14601	54824	2014-05-01	E	jsm
10121	10121	NAVIENT CORP	NAVI	63938C108	1593538	6111	522299.0	J	02	LC	12092	6412	1986-09-10	1992-07-22	navi
10121	10121	NAVIENT CORP	NAVI	63938C108	1593538	6111	522299.0	J	02	LC	12092	6412	1986-09-10	1992-07-22	jsm
10124	10124	STURM RUGER & CO INC	RGR	864159108	95029	3480	332994.0	P	01	LU	73219	4295	1972-12-14	E	rgr
10187	10187	SUNTRUST BANKS INC	STI.1	867914103	750556	6020	522110.0	P	01	LC	68144	21691	1985-07-01	2019-12-31	
10187	10187	SUNTRUST BANKS INC	STI.1	867914103	750556	6020	522110.0	P	01	LC	63343	4165	1972-12-14	1985-06-28	
10190	10190	SUPERVALU INC	SVU	868536301	95521	5141	424410.0	P	01	LC	44951	21692	1967-09-13	2018-10-31	
10195	10195	SUPERIOR INDUSTRIES INTL	SUP	868168105	95552	3714	336390.0	C	01	LU	52396	21693	1971-05-04	E	sup
10198	10198	SUPERIOR GROUP OF COS INC	SGC	868358102	95574	2300	315.0	P	01	LU	47861	21694	1969-03-03	E	sgc
10221	10221	SILVERBOW RESOURCES INC	SBOW	82836G102	351817	1311	211130.0	P	02	LC	66739	4340	2017-05-05	2024-07-31	sbow
10221	10221	SILVERBOW RESOURCES INC	SBOW	82836G102	351817	1311	211130.0	P	01	LC	66739	4340	1981-07-24	2015-12-18	sbow
10236	10236	ASCENT INDUSTRIES CO	ACNT	871565107	95953	3317	331210.0	P	01	LU	43334	21696	1966-06-08	E	acnt
10247	10247	SYSCO CORP	SYY	871829107	96021	5140	4244.0	P	01	LU	52038	21698	1971-02-26	E	syy
10275	10275	TDK CORPORATION	TTDKY	872351408	203383	3670	3344.0	P	90	LC	64362	4398	1979-12-31	2009-04-24	
10353	10353	TEAM INC	TISI	878155308	318833	8734	541380.0	P	01	LU	65752	4402	1980-10-07	E	tisi
10385	10385	TECK RESOURCES LTD	TECK	878742204	886986	1000	212.0	P	01	LC	91321	50848	2006-06-29	E	teck
10385	10385	TECK RESOURCES LTD	TECK	878742204	886986	1000	212.0	P	01	LC	91321	50848	2006-06-29	E	tckrf
10405	10405	ATI INC -NEW	ATI	01741R102	1018963	3350	331491.0	P	01	LU	43123	21722	1966-05-02	E	ati
10407	10407	TELEFLEX INC	TFX	879369106	96943	3841	339112.0	P	01	LU	44329	21723	1967-04-24	E	tfx
10411	10411	TELEPHONE & DATA SYSTEMS INC	TDS	879433829	1051512	4812	517112.0	J	07	LC	90655	5230	2005-05-16	2012-01-31	tds
10411	10411	TELEPHONE & DATA SYSTEMS INC	TDS	879433829	1051512	4812	517112.0	J	07	LC	90655	5230	2005-05-16	2012-01-31	tds-pu
10411	10411	TELEPHONE & DATA SYSTEMS INC	TDS	879433829	1051512	4812	517112.0	J	07	LC	90655	5230	2005-05-16	2012-01-31	tds-pv
10411	10411	TELEPHONE & DATA SYSTEMS INC	TDS	879433829	1051512	4812	517112.0	P	01	LC	63773	5230	1981-12-15	E	tds
10411	10411	TELEPHONE & DATA SYSTEMS INC	TDS	879433829	1051512	4812	517112.0	P	01	LC	63773	5230	1981-12-15	E	tds-pu
10411	10411	TELEPHONE & DATA SYSTEMS INC	TDS	879433829	1051512	4812	517112.0	P	01	LC	63773	5230	1981-12-15	E	tds-pv
10441	10441	TENNANT CO	TNC	880345103	97134	3580	333310.0	P	01	LU	75460	4375	1972-12-14	E	tnc
10443	10443	TENNECO INC	TEN.2	880349105	1024725	3714	336390.0	P	01	LC	84375	31841	1996-12-12	2022-11-30	ten
10443	10443	TENNECO INC	TEN.2	880349105	1024725	3714	336390.0	P	01	LC	26542	21729	1962-01-31	1996-12-11	ten
10443	10443	TENNECO INC	TEN.2	880349105	1024725	3714	336390.0	C	00X	LC	26542	21729	1957-01-01	1962-01-30	ten
10453	10453	TERADYNE INC	TER	880770102	97210	3825	334515.0	P	01	LC	51369	21731	1970-10-19	E	ter
10466	10466	ANDEAVOR	ANDV	03349M105	50104	2911	324110.0	P	01	LC	37284	21732	1966-01-31	2018-09-28	
10466	10466	ANDEAVOR	ANDV	03349M105	50104	2911	324110.0	C	00X	LC	37284	21732	1965-10-01	1966-01-30	
10499	10499	TEXAS INSTRUMENTS INC	TXN	882508104	97476	3674	334413.0	P	01	LC	15579	21737	1962-02-28	E	txn
10499	10499	TEXAS INSTRUMENTS INC	TXN	882508104	97476	3674	334413.0	C	00X	LC	15579	21737	1953-01-01	1962-02-27	txn
10504	10504	TEXAS PACIFIC LAND CORP	TPL	88262P102	1811074	6792	533110.0	P	01	LC	20391	57695	2021-01-09	E	tpl
10504	10504	TEXAS PACIFIC LAND CORP	TPL	88262P102	1811074	6792	533110.0	C	00X	LC	14752	21739	1972-01-01	1972-01-30	tpl
10504	10504	TEXAS PACIFIC LAND CORP	TPL	88262P102	1811074	6792	533110.0	P	01	LC	14752	21739	1972-01-31	2021-01-08	tpl
10519	10519	TEXTRON INC	TXT	883203101	217346	3721	336411.0	P	01	LC	23579	21743	1962-01-31	E	txt
10519	10519	TEXTRON INC	TXT	883203101	217346	3721	336411.0	C	00X	LC	23579	21743	1950-01-01	1962-01-30	txt
10530	10530	THERMO FISHER SCIENTIFIC INC	TMO	883556102	97745	3826	334516.0	P	01	LC	62092	4557	1972-12-14	E	tmo
10565	10565	TIDEWATER INC	TDW	88642R109	98222	4400	488390.0	P	02	LC	50606	21752	2017-08-01	E	tdw
10565	10565	TIDEWATER INC	TDW	88642R109	98222	4400	488390.0	P	02	LC	50606	21752	2017-08-01	E	tdw-wt
10565	10565	TIDEWATER INC	TDW	88642R109	98222	4400	488390.0	P	02	LC	50606	21752	2017-08-01	E	tdw-wta
10565	10565	TIDEWATER INC	TDW	88642R109	98222	4400	488390.0	P	02	LC	50606	21752	2017-08-01	E	tdw-wtb
10565	10565	TIDEWATER INC	TDW	88642R109	98222	4400	488390.0	P	02	LC	50606	21752	2017-08-01	E	tdgmw
10565	10565	TIDEWATER INC	TDW	88642R109	98222	4400	488390.0	P	01	LC	50606	21752	1970-05-19	2017-07-31	tdw
10565	10565	TIDEWATER INC	TDW	88642R109	98222	4400	488390.0	P	01	LC	50606	21752	1970-05-19	2017-07-31	tdw-wt
10565	10565	TIDEWATER INC	TDW	88642R109	98222	4400	488390.0	P	01	LC	50606	21752	1970-05-19	2017-07-31	tdw-wta
10565	10565	TIDEWATER INC	TDW	88642R109	98222	4400	488390.0	P	01	LC	50606	21752	1970-05-19	2017-07-31	tdw-wtb
10565	10565	TIDEWATER INC	TDW	88642R109	98222	4400	488390.0	P	01	LC	50606	21752	1970-05-19	2017-07-31	tdgmw
10567	10567	SIX FLAGS ENTERTAINMENT -OLD	SIX	83001A102	701374	7996	713110.0	P	04	LC	93423	53440	2010-06-21	E	six
10567	10567	SIX FLAGS ENTERTAINMENT -OLD	SIX	83001A102	701374	7996	713110.0	C	01	LC	76209	4450	1996-05-30	2009-04-17	six
10567	10567	SIX FLAGS ENTERTAINMENT -OLD	SIX	83001A102	701374	7996	713110.0	C	01	LC	76209	4450	1979-01-31	1990-10-08	six
10567	10567	SIX FLAGS ENTERTAINMENT -OLD	SIX	83001A102	701374	7996	713110.0	C	00X	LC	76209	4450	1977-10-28	1979-01-30	six
10581	10581	TIMKEN CO	TKR	887389104	98362	3562	332991.0	P	01	LC	14795	21758	1962-01-31	E	tkr
10581	10581	TIMKEN CO	TKR	887389104	98362	3562	332991.0	C	00X	LC	14795	21758	1950-01-01	1962-01-30	tkr
10614	10614	GLOBE LIFE INC	GL	37959E102	320335	6311	524113.0	P	01	LC	62308	21764	1972-12-14	E	gl
10614	10614	GLOBE LIFE INC	GL	37959E102	320335	6311	524113.0	P	01	LC	62308	21764	1972-12-14	E	gl-pd
10618	10618	TORO CO	TTC	891092108	737758	3523	333111.0	P	01	LU	60580	4516	1972-12-14	E	ttc
10622	10622	TOSHIBA CORP	TOSYY	891493306	98573	3600	335.0	C	01	LC	76559	4509	1977-12-30	1978-11-20	
10622	10622	TOSHIBA CORP	TOSYY	891493306	98573	3600	335.0	C	00X	LC	76559	4509	1975-04-01	1977-12-29	
10631	10631	TOTAL SYSTEM SERVICES INC	TSS	891906109	721683	7389	522320.0	P	01	LU	76639	6278	1983-08-10	2019-09-30	
10671	10671	TC ENERGY CORP	TRP	87807B107	1232384	4922	486210.0	P	01	LC	67774	21771	1985-05-30	E	trp
10685	10685	TRANSCAT INC	TRNS	893529107	99302	8734	541380.0	P	01	LU	76946	4560	1979-01-31	E	trns
10685	10685	TRANSCAT INC	TRNS	893529107	99302	8734	541380.0	C	00X	LU	76946	4560	1973-04-01	1979-01-30	trns
10726	10726	TRIBUNE MEDIA CO	TRCO	896047503	726513	4833	515120.0	P	01	LC	65787	21782	1983-10-12	2007-12-20	
10726	10726	TRIBUNE MEDIA CO	TRCO	896047503	726513	4833	515120.0	P	06	LC	15117	21782	2014-12-05	2019-09-30	
10735	10735	TRINITY INDUSTRIES INC	TRN	896522109	99780	3743	336510.0	P	01	LU	55001	21783	1972-06-28	E	trn
10761	10761	VOLITIONRX LTD	VNRX	928661107	93314	2835	325413.0	P	01	LC	15215	55187	2015-02-06	E	vnrx
10777	10777	TWIN DISC INC	TWIN	901476101	100378	3560	333613.0	P	01	LU	59600	4604	1972-12-14	E	twin
10789	10789	TYLER TECHNOLOGIES INC	TYL	902252105	860731	7373	541512.0	P	01	LC	76185	26080	1990-05-22	E	tyl
10789	10789	TYLER TECHNOLOGIES INC	TYL	902252105	860731	7373	541512.0	P	01	LC	44759	24773	1967-07-31	1989-08-24	tyl
10793	10793	TYSON FOODS INC  -CL A	TSN	902494103	100493	2011	311611.0	P	01	LC	77730	4620	1972-12-14	E	tsn
10795	10795	UNITED AIRLINES HOLDINGS INC	UAL	910047109	100517	4512	481111.0	P	04	LC	91103	21793	2006-02-02	E	ual
10795	10795	UNITED AIRLINES HOLDINGS INC	UAL	910047109	100517	4512	481111.0	C	00X	LC	19596	21793	1950-01-01	1962-01-30	ual
10795	10795	UNITED AIRLINES HOLDINGS INC	UAL	910047109	100517	4512	481111.0	P	01	LC	19596	21793	1962-01-31	2003-04-02	ual
10801	10801	UGI CORP	UGI	902681105	884614	4932	221210.0	P	01	LU	17929	21794	1962-01-31	E	ugi
10801	10801	UGI CORP	UGI	902681105	884614	4932	221210.0	P	01	LU	17929	21794	1962-01-31	E	ugic
10801	10801	UGI CORP	UGI	902681105	884614	4932	221210.0	C	00X	LU	17929	21794	1951-01-01	1962-01-30	ugi
10801	10801	UGI CORP	UGI	902681105	884614	4932	221210.0	C	00X	LU	17929	21794	1951-01-01	1962-01-30	ugic
10816	10816	USG CORP	USG.1	903293405	757011	3270	327420.0	P	01	LU	79244	21800	1993-05-21	2019-04-30	
10816	10816	USG CORP	USG.1	903293405	757011	3270	327420.0	P	01	LU	19131	21800	1962-01-31	1993-05-06	
10816	10816	USG CORP	USG.1	903293405	757011	3270	327420.0	C	00X	LU	19131	21800	1950-01-01	1962-01-30	
10839	10839	UNIFI INC	UFI	904677200	100726	2200	313110.0	P	01	LC	78044	4685	1972-12-22	E	ufi
10840	10840	UNIFIRST CORP	UNF	904708104	717954	2300	315.0	P	01	LU	65306	6051	1983-06-07	E	unf
10846	10846	UNILEVER PLC	UL	904767704	217410	2840	3256.0	P	91	LC	28302	21802	2020-11-01	E	ul
10846	10846	UNILEVER PLC	UL	904767704	217410	2840	3256.0	P	91	LC	28302	21802	2020-11-01	E	unlyf
10846	10846	UNILEVER PLC	UL	904767704	217410	2840	3256.0	J	91	LC	28302	21802	1994-01-01	2020-10-31	ul
10846	10846	UNILEVER PLC	UL	904767704	217410	2840	3256.0	J	91	LC	28302	21802	1994-01-01	2020-10-31	unlyf
10846	10846	UNILEVER PLC	UL	904767704	217410	2840	3256.0	J	90	LC	28310	21803	2020-11-01	2020-11-30	ul
10846	10846	UNILEVER PLC	UL	904767704	217410	2840	3256.0	J	90	LC	28310	21803	2020-11-01	2020-11-30	unlyf
10846	10846	UNILEVER PLC	UL	904767704	217410	2840	3256.0	P	90	LC	28310	21803	1962-01-31	2020-10-31	ul
10846	10846	UNILEVER PLC	UL	904767704	217410	2840	3256.0	P	90	LC	28310	21803	1962-01-31	2020-10-31	unlyf
10846	10846	UNILEVER PLC	UL	904767704	217410	2840	3256.0	C	00X	LC	28310	21803	1961-12-29	1962-01-30	ul
10846	10846	UNILEVER PLC	UL	904767704	217410	2840	3256.0	C	00X	LC	28310	21803	1961-12-29	1962-01-30	unlyf
10860	10860	AMEREN CORP	AEE	023608102	1002910	4931	2211.0	C	00X	LU	24985	21808	1952-12-15	1962-01-30	aee
10860	10860	AMEREN CORP	AEE	023608102	1002910	4931	2211.0	P	01	LU	24985	21808	1962-01-31	E	aee
10867	10867	UNION PACIFIC CORP	UNP	907818108	100885	4011	482111.0	P	01	LU	48725	21810	1969-07-16	E	unp
10877	10877	UNIT CORP	UNTC	909218406	798949	1311	2111.0	P	01	LC	63781	4691	1979-04-06	2020-05-22	untc
10877	10877	UNIT CORP	UNTC	909218406	798949	1311	2111.0	P	01	LC	63781	4691	1979-04-06	2020-05-22	untcw
10894	10894	UDR INC	UDR	902653104	74208	6798	531110.0	P	01	LU	59300	3334	1980-02-11	E	udr
10903	10903	UNITEDHEALTH GROUP INC	UNH	91324P102	731766	6324	524114.0	P	01	LC	92655	7267	1984-10-17	E	unh
10916	10916	UMB FINANCIAL CORP	UMBF	902788108	101382	6020	522110.0	C	00X	LU	78829	4673	1974-01-01	1974-01-30	umbf
10916	10916	UMB FINANCIAL CORP	UMBF	902788108	101382	6020	522110.0	P	01	LU	78829	4673	1974-01-31	E	umbf
10917	10917	UMH PROPERTIES INC	UMH	903002103	752642	6798	531110.0	P	01	LC	92690	7428	1985-02-14	E	umh
10917	10917	UMH PROPERTIES INC	UMH	903002103	752642	6798	531110.0	P	01	LC	92690	7428	1985-02-14	E	umh-pd
10920	10920	UNITED PARCEL SERVICE INC	UPS	911312106	1090727	4210	492110.0	P	01	LC	87447	36383	1999-11-10	E	ups
10930	10930	U S ANTIMONY CORP	UAMY	911549103	101538	3330	331410.0	C	01	LC	78960	4715	1980-07-31	1991-04-17	uamy
10930	10930	U S ANTIMONY CORP	UAMY	911549103	101538	3330	331410.0	C	01	LC	78960	4715	2012-05-21	E	uamy
10981	10981	ESSENDANT INC	ESND	296689102	355999	5045	423430.0	C	01	LC	79303	5203	1981-11-24	2019-01-31	
10983	10983	RTX CORP	RTX	75513E101	101829	3724	336412.0	P	01	LC	17830	21832	1962-01-31	E	rtx
10983	10983	RTX CORP	RTX	75513E101	101829	3724	336412.0	C	00X	LC	17830	21832	1950-01-01	1962-01-30	rtx
10984	10984	SPRINT CORP	S.4	85207U105	101830	4812	517312.0	P	01	LC	39087	21833	1963-04-10	2013-06-30	
10984	10984	SPRINT CORP	S.4	85207U105	101830	4812	517312.0	P	10	LC	14040	54473	2013-07-12	2020-03-31	
10984	10984	SPRINT CORP	S.4	85207U105	101830	4812	517312.0	C	01	LC	39087	21833	2013-07-01	2013-07-10	
10991	10991	LIGHT & WONDER INC	LNW	80874P109	750004	3570	334118.0	P	01	LC	79338	7195	1984-08-23	E	lnw
10999	10999	UNITIL CORP	UTL	913259107	755001	4931	22111.0	P	01	LU	67360	21835	1985-03-07	E	utl
11012	11012	SENSIENT TECHNOLOGIES CORP	SXT	81725T100	310142	2860	325199.0	P	01	LU	59619	4684	1972-12-14	E	sxt
11017	11017	UNIVERSAL CORP/VA	UVV	913456109	102037	5150	424590.0	P	01	LU	16555	21838	1962-01-31	E	uvv
11017	11017	UNIVERSAL CORP/VA	UVV	913456109	102037	5150	424590.0	C	00X	LU	16555	21838	1949-07-01	1962-01-30	uvv
11032	11032	UNIVERSAL HEALTH SVCS INC	UHS	913903100	352915	8062	622110.0	P	01	LU	79637	4655	1981-07-09	E	uhs
11032	11032	UNIVERSAL HEALTH SVCS INC	UHS	913903100	352915	8062	622110.0	P	01	LU	79637	4655	1981-07-09	E	uhid
11060	11060	VF CORP	VFC	918204108	103379	2300	315.0	P	01	LC	43553	21849	1966-07-25	E	vfc
11065	11065	VSE CORP	VSEC	918284100	102752	4581	488190.0	P	01	LU	79864	5653	1977-12-30	E	vsec
11065	11065	VSE CORP	VSEC	918284100	102752	4581	488190.0	C	00X	LU	79864	5653	1974-01-01	1977-12-29	vsec
11094	11094	VALMONT INDUSTRIES INC	VMI	920253101	102729	3440	332312.0	P	01	LU	80128	4761	1972-12-14	E	vmi
11115	11115	VARIAN MEDICAL SYSTEMS INC	VAR	92220P105	203527	3845	334510.0	P	01	LU	27043	21859	1962-01-31	2021-04-30	
11124	11124	VEECO INSTRUMENTS INC	VECO	922417100	103145	3559	333242.0	C	01	LC	81116	13447	1994-11-29	E	veco
11124	11124	VEECO INSTRUMENTS INC	VECO	922417100	103145	3559	333242.0	C	01	LC	48944	25035	1969-08-13	1989-02-22	veco
11191	11191	VISHAY INTERTECHNOLOGY INC	VSH	928298108	103730	3670	33441.0	P	01	LC	57808	21869	1973-03-06	E	vsh
11213	11213	VOLT INFO SCIENCES INC	VOLT.3	928703107	103872	7363	561320.0	P	01	LC	81190	4825	1975-06-30	2011-01-26	
11213	11213	VOLT INFO SCIENCES INC	VOLT.3	928703107	103872	7363	561320.0	P	01	LC	81190	4825	2014-08-26	2022-04-29	
11217	11217	VOLVO AB	VLVLY	928854108	753762	3711	336120.0	P	90	LC	92930	7323	1985-01-31	2007-12-12	
11220	11220	VORNADO REALTY TRUST	VNO	929042109	899689	6798	531120.0	P	01	LC	28388	21874	1963-03-29	E	vno
11220	11220	VORNADO REALTY TRUST	VNO	929042109	899689	6798	531120.0	P	01	LC	28388	21874	1963-03-29	E	vno-pl
11220	11220	VORNADO REALTY TRUST	VNO	929042109	899689	6798	531120.0	P	01	LC	28388	21874	1963-03-29	E	vno-pm
11220	11220	VORNADO REALTY TRUST	VNO	929042109	899689	6798	531120.0	P	01	LC	28388	21874	1963-03-29	E	vnorp
11220	11220	VORNADO REALTY TRUST	VNO	929042109	899689	6798	531120.0	P	01	LC	28388	21874	1963-03-29	E	vno-pn
11220	11220	VORNADO REALTY TRUST	VNO	929042109	899689	6798	531120.0	P	01	LC	28388	21874	1963-03-29	E	vno-po
11220	11220	VORNADO REALTY TRUST	VNO	929042109	899689	6798	531120.0	C	00X	LC	28388	21874	1962-01-31	1963-03-28	vno
11220	11220	VORNADO REALTY TRUST	VNO	929042109	899689	6798	531120.0	C	00X	LC	28388	21874	1962-01-31	1963-03-28	vno-pl
11220	11220	VORNADO REALTY TRUST	VNO	929042109	899689	6798	531120.0	C	00X	LC	28388	21874	1962-01-31	1963-03-28	vno-pm
11220	11220	VORNADO REALTY TRUST	VNO	929042109	899689	6798	531120.0	C	00X	LC	28388	21874	1962-01-31	1963-03-28	vnorp
11220	11220	VORNADO REALTY TRUST	VNO	929042109	899689	6798	531120.0	C	00X	LC	28388	21874	1962-01-31	1963-03-28	vno-pn
11220	11220	VORNADO REALTY TRUST	VNO	929042109	899689	6798	531120.0	C	00X	LC	28388	21874	1962-01-31	1963-03-28	vno-po
11228	11228	VULCAN MATERIALS CO	VMC	929160109	1396009	1400	212319.0	P	01	LC	15202	21876	1962-01-31	E	vmc
11228	11228	VULCAN MATERIALS CO	VMC	929160109	1396009	1400	212319.0	C	00X	LC	15202	21876	1960-01-01	1962-01-30	vmc
11234	11234	WD-40 CO	WDFC	929236107	105132	2890	325998.0	P	01	LU	81294	4881	1973-01-23	E	wdfc
11259	11259	WALMART INC	WMT	931142103	104169	5331	455219.0	P	01	LU	55976	21880	1972-11-20	E	wmt
11264	11264	WALGREENS BOOTS ALLIANCE INC	WBA	931427108	1618921	5912	456110.0	P	01	LU	19502	21881	1962-01-31	E	wba
11264	11264	WALGREENS BOOTS ALLIANCE INC	WBA	931427108	1618921	5912	456110.0	C	00X	LU	19502	21881	1949-10-01	1962-01-30	wba
11301	11301	ELME COMMUNITIES	ELME	939653101	104894	6798	531110.0	P	01	LU	52425	21889	1972-01-31	E	wre
11301	11301	ELME COMMUNITIES	ELME	939653101	104894	6798	531110.0	C	00X	LU	52425	21889	1972-01-01	1972-01-30	wre
11304	11304	AVISTA CORP	AVA	05379B107	104918	4931	2211.0	P	01	LU	24969	21890	1962-01-31	E	ava
11304	11304	AVISTA CORP	AVA	05379B107	104918	4931	2211.0	C	00X	LU	24969	21890	1952-09-24	1962-01-30	ava
11313	11313	WATSCO INC	WSO	942622200	105016	5070	423730.0	P	02	LU	66376	21893	1993-09-01	E	wso
11313	11313	WATSCO INC	WSO	942622200	105016	5070	423730.0	P	02	LU	66376	21893	1993-09-01	E	wso-b
11313	11313	WATSCO INC	WSO	942622200	105016	5070	423730.0	N	02	LU	66376	21893	1984-06-18	1993-08-31	wso
11313	11313	WATSCO INC	WSO	942622200	105016	5070	423730.0	N	02	LU	66376	21893	1984-06-18	1993-08-31	wso-b
11313	11313	WATSCO INC	WSO	942622200	105016	5070	423730.0	J	01	LU	46068	21893	1993-09-01	E	wso
11313	11313	WATSCO INC	WSO	942622200	105016	5070	423730.0	J	01	LU	46068	21893	1993-09-01	E	wso-b
11313	11313	WATSCO INC	WSO	942622200	105016	5070	423730.0	P	01	LU	46068	21893	1982-01-29	1993-08-31	wso
11313	11313	WATSCO INC	WSO	942622200	105016	5070	423730.0	P	01	LU	46068	21893	1982-01-29	1993-08-31	wso-b
11340	11340	WEINGARTEN REALTY INVST	WRI	948741103	828916	6798	531120.0	P	01	LU	68187	21899	1985-08-16	2021-08-31	
11376	11376	WEST PHARMACEUTICAL SVSC INC	WST	955306105	105770	3060	326299.0	P	01	LU	62498	4998	1972-12-14	E	wst
11399	11399	WESTERN DIGITAL CORP	WDC	958102105	106040	3572	334112.0	P	01	LC	66384	4879	1978-11-30	E	wdc
11399	11399	WESTERN DIGITAL CORP	WDC	958102105	106040	3572	334112.0	C	00X	LC	66384	4879	1977-07-01	1978-11-29	wdc
11455	11455	WEYCO GROUP INC	WEYS	962149100	106532	5130	424340.0	P	01	LU	38033	4905	1962-07-02	E	weys
11456	11456	WEYERHAEUSER CO	WY	962166104	106535	2400	321.0	P	01	LC	39917	21914	1963-12-06	E	wy
11465	11465	WHIRLPOOL CORP	WHR	963320106	106640	3630	3352.0	P	01	LC	25419	21916	1962-01-31	E	whr
11465	11465	WHIRLPOOL CORP	WHR	963320106	106640	3630	3352.0	C	00X	LC	25419	21916	1956-01-01	1962-01-30	whr
11499	11499	WILEY (JOHN) & SONS  -CL A	WLY	968223206	107140	2721	513120.0	J	02	LU	82932	4922	1982-09-28	E	wly
11499	11499	WILEY (JOHN) & SONS  -CL A	WLY	968223206	107140	2721	513120.0	J	02	LU	82932	4922	1982-09-28	E	wlyb
11499	11499	WILEY (JOHN) & SONS  -CL A	WLY	968223206	107140	2721	513120.0	P	01	LU	82924	4922	1982-09-28	E	wly
11499	11499	WILEY (JOHN) & SONS  -CL A	WLY	968223206	107140	2721	513120.0	P	01	LU	82924	4922	1982-09-28	E	wlyb
11506	11506	WILLIAMS COS INC	WMB	969457100	107263	4922	486210.0	C	01	LU	38156	21923	1962-07-02	E	wmb
11511	11511	WILLIAMS-SONOMA INC	WSM	969904101	719955	5961	449110.0	P	01	LU	83011	6149	1983-07-07	E	wsm
11537	11537	WINNEBAGO INDUSTRIES	WGO	974637100	107687	3790	336214.0	P	01	LU	51086	21927	1970-09-08	E	wgo
11538	11538	J. ALEXANDER'S HOLDINGS INC	JAX	46609J106	1617227	5812	722511.0	P	01	LC	66747	4814	1972-12-14	2012-10-26	
11538	11538	J. ALEXANDER'S HOLDINGS INC	JAX	46609J106	1617227	5812	722511.0	P	02	LC	15648	55401	2015-09-29	2021-09-30	
11550	11550	WEC ENERGY GROUP INC	WEC	92939U106	783325	4931	2211.0	P	01	LC	23536	21931	1962-01-31	E	wec
11554	11554	ALLIANT ENERGY CORP	LNT	018802108	352541	4931	2211.0	P	01	LC	58819	4980	1972-12-14	E	lnt
11566	11566	WOLVERINE WORLD WIDE	WWW	978097103	110471	3140	3162.0	P	01	LU	42286	21935	1965-07-20	E	www
11580	11580	WOODWARD INC	WWD	980745103	108312	3720	3364.0	P	01	LU	84403	27497	1997-01-14	E	wwd
11584	11584	FOOT LOCKER INC	FL	344849104	850209	5661	458210.0	C	00X	LU	15456	21936	1950-01-01	1962-01-30	fl
11584	11584	FOOT LOCKER INC	FL	344849104	850209	5661	458210.0	P	01	LU	15456	21936	1962-01-31	E	fl
11600	11600	WORTHINGTON ENTERPRISES INC	WOR	981811102	108516	3390	332.0	P	01	LU	83601	5009	1972-12-14	E	wor
11636	11636	XEROX HOLDINGS CORP	XRX	98421M106	1770450	3577	333316.0	P	01	LC	27983	21945	1962-01-31	E	xrx
11644	11644	KEY ENERGY SERVICES INC	KEGX	49309J202	318996	1381	213111.0	P	01	LC	63079	5036	1980-10-16	2016-07-27	kegx
11644	11644	KEY ENERGY SERVICES INC	KEGX	49309J202	318996	1381	213111.0	C	03	LC	63079	5036	2016-12-16	2019-11-27	kegx
11649	11649	YELLOW CORP	YELLQ	985510106	716006	4213	484122.0	P	01	LC	59483	5037	1972-12-14	2023-08-15	yell
11670	11670	SPECTRUM BRND HLDG INC	SPB	84790A105	109177	3634	335210.0	P	01	LC	38295	21948	1966-01-31	E	spb
11670	11670	SPECTRUM BRND HLDG INC	SPB	84790A105	109177	3634	335210.0	C	00X	LC	38295	21948	1962-07-02	1966-01-30	spb
11672	11672	TJX COS INC (THE)	TJX	872540109	109198	5651	458110.0	P	01	LU	40539	21949	1964-05-12	E	tjx
11687	11687	ZIONS BANCORPORATION NA	ZION	989701107	109380	6020	522110.0	P	01	LC	84129	5057	1974-01-01	E	zion
11687	11687	ZIONS BANCORPORATION NA	ZION	989701107	109380	6020	522110.0	P	01	LC	84129	5057	1974-01-01	E	zionl
11687	11687	ZIONS BANCORPORATION NA	ZION	989701107	109380	6020	522110.0	P	01	LC	84129	5057	1974-01-01	E	ziono
11687	11687	ZIONS BANCORPORATION NA	ZION	989701107	109380	6020	522110.0	P	01	LC	84129	5057	1974-01-01	E	zionp
11703	11703	FLUX POWER HOLDINGS INC	FLUX	344057302	1083743	3690	335910.0	P	01	LC	19624	57232	2020-08-14	E	flux
11721	11721	OSHKOSH CORP	OSK	688239201	775158	3711	336120.0	P	01	LC	90756	7765	1985-10-02	E	osk
11745	11745	QUALYS INC	QLYS	74758T303	1107843	7372	513210.0	P	01	LC	13600	54195	2012-09-28	E	qlys
11749	11749	SKF AB	SKFRY	784375404	777504	3562	332991.0	P	90	LC	91620	7813	1985-10-25	2003-09-19	
11756	11756	ALEXANDER & BALDWIN INC	ALEX	014491104	1545654	6798	5311.0	P	01	LC	13429	54099	2012-07-02	E	alex
11770	11770	STIFEL FINANCIAL CORP	SF	860630102	720672	6211	523150.0	P	01	LC	72996	6185	1983-07-19	E	sf
11770	11770	STIFEL FINANCIAL CORP	SF	860630102	720672	6211	523150.0	P	01	LC	72996	6185	1983-07-19	E	sf-pb
11770	11770	STIFEL FINANCIAL CORP	SF	860630102	720672	6211	523150.0	P	01	LC	72996	6185	1983-07-19	E	sf-pc
11770	11770	STIFEL FINANCIAL CORP	SF	860630102	720672	6211	523150.0	P	01	LC	72996	6185	1983-07-19	E	sf-pd
11770	11770	STIFEL FINANCIAL CORP	SF	860630102	720672	6211	523150.0	P	01	LC	72996	6185	1983-07-19	E	sfb
11781	11781	OVINTIV INC	OVV	69047Q102	1792580	1311	2111.0	P	01	LC	89134	42001	2001-10-03	E	ovv
11796	11796	LCI INDUSTRIES	LCII	50189K103	763744	3711	336211.0	P	02	LC	87426	7557	1985-05-23	E	lcii
11805	11805	CAS MEDICAL SYSTEMS INC	CASM	124769209	764579	3845	334510.0	C	01	LU	86191	7732	1985-09-10	2019-04-30	
11811	11811	HENRY (JACK) & ASSOCIATES	JKHY	426281101	779152	7373	541512.0	P	01	LU	88664	7864	1985-11-20	E	jkhy
11842	11842	ASSOCIATED BANC-CORP	ASB	045487105	7789	6020	522110.0	P	01	LC	15318	362	1982-01-29	E	asb
11842	11842	ASSOCIATED BANC-CORP	ASB	045487105	7789	6020	522110.0	P	01	LC	15318	362	1982-01-29	E	asb-pe
11842	11842	ASSOCIATED BANC-CORP	ASB	045487105	7789	6020	522110.0	P	01	LC	15318	362	1982-01-29	E	asb-pf
11854	11854	NMI HOLDINGS INC	NMIH	629209305	1547903	6351	524126.0	P	01	LC	14318	54658	2013-11-08	E	nmih
11856	11856	TRUIST FINANCIAL CORP	TFC	89832Q109	92230	6020	522110.0	P	01	LC	71563	4163	1982-01-29	E	tfc
11856	11856	TRUIST FINANCIAL CORP	TFC	89832Q109	92230	6020	522110.0	P	01	LC	71563	4163	1982-01-29	E	tfc-pi
11856	11856	TRUIST FINANCIAL CORP	TFC	89832Q109	92230	6020	522110.0	P	01	LC	71563	4163	1982-01-29	E	tfc-po
11856	11856	TRUIST FINANCIAL CORP	TFC	89832Q109	92230	6020	522110.0	P	01	LC	71563	4163	1982-01-29	E	tfc-pr
11856	11856	TRUIST FINANCIAL CORP	TFC	89832Q109	92230	6020	522110.0	C	00X	LC	71563	4163	1982-01-01	1982-01-28	tfc
11856	11856	TRUIST FINANCIAL CORP	TFC	89832Q109	92230	6020	522110.0	C	00X	LC	71563	4163	1982-01-01	1982-01-28	tfc-pi
11856	11856	TRUIST FINANCIAL CORP	TFC	89832Q109	92230	6020	522110.0	C	00X	LC	71563	4163	1982-01-01	1982-01-28	tfc-po
11856	11856	TRUIST FINANCIAL CORP	TFC	89832Q109	92230	6020	522110.0	C	00X	LC	71563	4163	1982-01-01	1982-01-28	tfc-pr
11861	11861	VALLEY NATIONAL BANCORP	VLY	919794107	714310	6020	522110.0	P	01	LC	80072	4818	1982-01-29	E	vly
11861	11861	VALLEY NATIONAL BANCORP	VLY	919794107	714310	6020	522110.0	P	01	LC	80072	4818	1982-01-29	E	vlypo
11861	11861	VALLEY NATIONAL BANCORP	VLY	919794107	714310	6020	522110.0	P	01	LC	80072	4818	1982-01-29	E	vlypp
11872	11872	ARK RESTAURANTS CORP	ARKR	040712101	779544	5812	722511.0	P	01	LU	85586	7914	1985-12-12	E	arkr
11877	11877	BLUEGREEN VACATNS CORP	BXG	09629F108	778946	7011	721199.0	P	01	LC	90916	7869	1985-11-21	2013-04-02	
11877	11877	BLUEGREEN VACATNS CORP	BXG	09629F108	778946	7011	721199.0	P	02	LC	17047	56130	2017-11-17	2021-05-28	
11896	11896	FIRST MIDWEST BANCORP INC	FMBI	320867104	702325	6020	522110.0	P	01	LU	35917	5908	1987-01-30	2022-02-28	
11896	11896	FIRST MIDWEST BANCORP INC	FMBI	320867104	702325	6020	522110.0	C	00X	LU	35917	5908	1987-01-01	1987-01-29	
11922	11922	NATURAL GROCERS VITAMIN CTGE	NGVC	63888U108	1547459	5400	456191.0	P	01	LC	13508	54136	2012-07-25	E	ngvc
11923	11923	ANADARKO PETROLEUM CORP	APC	032511107	773910	1311	2111.0	P	01	LU	70332	20194	1986-10-02	2019-08-30	
11925	11925	NOBLE CORP PLC	NE	G65431127	1895262	1381	213111.0	P	01	LC	90537	7752	1985-09-23	2020-07-30	
11925	11925	NOBLE CORP PLC	NE	G65431127	1895262	1381	213111.0	P	03	LC	23344	7752	2022-09-30	E	
11925	11925	NOBLE CORP PLC	NE	G65431127	1895262	1381	213111.0	P	03	LC	21430	58352	2021-09-30	2022-09-29	
11944	11944	TUESDAY MORNING CORP	TUEMQ	89904V200	878726	5331	455219.0	C	05	LC	86866	8037	2021-06-01	2022-12-30	tuem
11944	11944	TUESDAY MORNING CORP	TUEMQ	89904V200	878726	5331	455219.0	C	05	LC	86866	8037	2021-05-25	2021-05-31	tuem
11944	11944	TUESDAY MORNING CORP	TUEMQ	89904V200	878726	5331	455219.0	P	04	LC	86866	8037	1999-04-22	2020-06-07	tuem
11944	11944	TUESDAY MORNING CORP	TUEMQ	89904V200	878726	5331	455219.0	P	01	LC	10094	8037	1986-03-07	1997-12-26	tuem
11976	11976	ROCKY MOUNTAIN CHOC FACT INC	RMCF	77467X101	1616262	2060	311352.0	P	01	LC	10044	7992	1986-02-11	E	rmcf
12010	12010	INTELSAT SA	INTEQ	L5140P101	1525773	4899	517919.0	P	01	LC	13866	54370	2013-04-18	2022-02-28	
12035	12035	RBB BANCORP	RBB	74930B105	1499422	6020	522110.0	P	01	LC	16828	56013	2017-07-26	E	rbb
12081	12081	GLADSTONE LAND CORP	LAND	376549101	1495240	6798	531190.0	P	01	LC	13756	54310	2013-01-29	E	land
12081	12081	GLADSTONE LAND CORP	LAND	376549101	1495240	6798	531190.0	P	01	LC	13756	54310	2013-01-29	E	landm
12081	12081	GLADSTONE LAND CORP	LAND	376549101	1495240	6798	531190.0	P	01	LC	13756	54310	2013-01-29	E	lando
12123	12123	BIG LOTS INC	BIGGQ	089302103	768835	5331	455219.0	P	01	LU	67467	20505	1985-06-20	E	big
12124	12124	MORGAN STANLEY	MS	617446448	895421	6211	523110.0	P	01	LC	69032	21224	1986-03-21	E	ms
12124	12124	MORGAN STANLEY	MS	617446448	895421	6211	523110.0	P	01	LC	69032	21224	1986-03-21	E	ms-pa
12124	12124	MORGAN STANLEY	MS	617446448	895421	6211	523110.0	P	01	LC	69032	21224	1986-03-21	E	ms-pi
12124	12124	MORGAN STANLEY	MS	617446448	895421	6211	523110.0	P	01	LC	69032	21224	1986-03-21	E	ms-pk
12124	12124	MORGAN STANLEY	MS	617446448	895421	6211	523110.0	P	01	LC	69032	21224	1986-03-21	E	ms-pf
12124	12124	MORGAN STANLEY	MS	617446448	895421	6211	523110.0	P	01	LC	69032	21224	1986-03-21	E	ms-pe
12124	12124	MORGAN STANLEY	MS	617446448	895421	6211	523110.0	P	01	LC	69032	21224	1986-03-21	E	ms-pl
12124	12124	MORGAN STANLEY	MS	617446448	895421	6211	523110.0	P	01	LC	69032	21224	1986-03-21	E	ms-po
12124	12124	MORGAN STANLEY	MS	617446448	895421	6211	523110.0	P	01	LC	69032	21224	1986-03-21	E	ms-pp
12140	12140	NNN REIT INC	NNN	637417106	751364	6798	531120.0	P	01	LC	88373	7257	1985-01-31	E	nnn
12140	12140	NNN REIT INC	NNN	637417106	751364	6798	531120.0	C	00X	LC	88373	7257	1985-01-01	1985-01-30	nnn
12141	12141	MICROSOFT CORP	MSFT	594918104	789019	7372	513210.0	P	01	LC	10107	8048	1986-03-13	E	msft
12142	12142	ORACLE CORP	ORCL	68389X105	1341439	7372	513210.0	P	01	LC	10104	8045	1986-03-12	E	orcl
12151	12151	COTY INC	COTY	222070203	1024305	2844	325620.0	P	01	LC	13983	54444	2013-06-13	E	coty
12171	12171	TECH DATA CORP	TECD	878237106	790703	5045	423430.0	P	01	LU	10182	8125	1986-04-23	2020-06-30	
12181	12181	REPLIGEN CORP	RGEN	759916109	730272	2836	325414.0	P	01	LU	10200	8135	1986-04-29	E	rgen
12215	12215	CYPRESS SEMICONDUCTOR CORP	CY	232806109	791915	3674	334413.0	P	01	LU	10302	8222	1986-05-29	2020-04-30	
12250	12250	AMAG PHARMACEUTICALS INC	AMAG	00163U106	792977	2834	325412.0	P	01	LU	10363	8284	1986-06-11	2020-11-30	
12262	12262	ASTEC INDUSTRIES INC	ASTE	046224101	792987	3531	333120.0	P	01	LU	10382	8299	1986-06-18	E	aste
12266	12266	WERNER ENTERPRISES INC	WERN	950755108	793074	4213	484121.0	P	01	LU	10397	8317	1986-06-20	E	wern
12294	12294	MPLX LP	MPLX	55336V100	1552000	4610	486110.0	P	01	LC	13618	54205	2012-10-26	E	mplx
12304	12304	DLH HOLDINGS CORP	DLHC	23335Q100	785557	8090	621999.0	P	01	LC	10257	8185	1986-05-15	E	dlhc
12321	12321	VISTA GOLD CORP	VGZ	927926303	783324	1040	212221.0	P	01	LC	69446	20842	1986-06-18	E	vgz
12368	12368	SVENSKA CELLULOSA AKTIEBOLAG	SVCBY	869587402	801667	2400	321.0	C	90	LU	73825	6756	1984-01-04	1990-07-16	
12377	12377	RESEARCH FRONTIERS INC	REFR	760911107	793524	8731	541715.0	P	01	LU	10463	8377	1986-07-08	E	refr
12379	12379	AMERICAN WOODMARK CORP	AMWD	030506109	794619	2430	337110.0	P	01	LU	10501	8418	1986-07-18	E	amwd
12383	12383	NORSK HYDRO ASA	NHYDY	656531605	900268	3350	331318.0	P	90	LC	69606	21295	1986-06-25	2007-11-21	
12384	12384	SHELL PLC	SHEL	780259305	1306965	2911	324110.0	P	92	LC	90794	47003	2022-01-31	E	shel
12384	12384	SHELL PLC	SHEL	780259305	1306965	2911	324110.0	P	92	LC	90794	47003	2022-01-31	E	rydaf
12384	12384	SHELL PLC	SHEL	780259305	1306965	2911	324110.0	N	91	LC	90793	47003	2005-07-25	2022-01-28	shel
12384	12384	SHELL PLC	SHEL	780259305	1306965	2911	324110.0	N	91	LC	90793	47003	2005-07-25	2022-01-28	rydaf
12384	12384	SHELL PLC	SHEL	780259305	1306965	2911	324110.0	C	91	LC	90793	47003	2005-07-20	2005-07-24	shel
12384	12384	SHELL PLC	SHEL	780259305	1306965	2911	324110.0	C	91	LC	90793	47003	2005-07-20	2005-07-24	rydaf
12384	12384	SHELL PLC	SHEL	780259305	1306965	2911	324110.0	P	90	LC	90794	47003	2005-07-25	2021-12-31	shel
12384	12384	SHELL PLC	SHEL	780259305	1306965	2911	324110.0	P	90	LC	90794	47003	2005-07-25	2021-12-31	rydaf
12384	12384	SHELL PLC	SHEL	780259305	1306965	2911	324110.0	J	90	LC	90794	47003	2022-01-01	2022-01-30	shel
12384	12384	SHELL PLC	SHEL	780259305	1306965	2911	324110.0	J	90	LC	90794	47003	2022-01-01	2022-01-30	rydaf
12389	12389	HARLEY-DAVIDSON INC	HOG	412822108	793952	3751	336991.0	P	01	LU	70033	20881	1986-07-08	E	hog
12392	12392	SKYWEST INC	SKYW	830879102	793733	4512	481111.0	P	01	LU	10421	8340	1986-06-26	E	skyw
12395	12395	TOLL BROTHERS INC	TOL	889478103	794170	1531	236117.0	P	01	LU	70228	8372	1986-07-08	E	tol
12403	12403	FREDS INC	FREDQ	356108100	724571	5331	452319.0	P	01	LU	77420	11413	1992-03-19	2020-06-30	
12407	12407	U S GLOBAL INVESTORS INC	GROW	902952100	754811	6282	523920.0	P	01	LC	91287	27739	1996-06-03	E	grow
12413	12413	VALINAR LLC	EGL	29286C107	1544229	8711	541330.0	P	01	LC	13502	54135	2012-07-09	2019-01-31	
12421	12421	KASPIEN HOLDINGS INC	KSPN	485837108	795212	5961	455.0	C	01	LC	10514	8431	1986-07-24	2023-06-09	kspn
12428	12428	PORTLAND GENERAL ELECTRIC CO	POR	736508847	784977	4911	2211.0	P	04	LC	91204	21430	2006-04-10	E	por
12432	12432	HI-CRUSH INC	HCRSQ	428337109	1549848	1400	212399.0	P	01	LC	13544	54158	2012-08-16	2020-10-30	
12433	12433	MERIDIAN BIOSCIENCE INC	VIVO	589584101	794172	2835	325413.0	P	01	LU	10530	8441	1986-07-29	2023-02-28	vivo
12441	12441	GARTNER INC	IT	366651107	749251	8700	541910.0	J	02	LC	87030	12457	2003-10-01	2005-07-06	it
12441	12441	GARTNER INC	IT	366651107	749251	8700	541910.0	P	02	LC	87030	12457	1999-07-27	2003-09-30	it
12441	12441	GARTNER INC	IT	366651107	749251	8700	541910.0	P	01	LC	79698	12457	2003-10-01	E	it
12441	12441	GARTNER INC	IT	366651107	749251	8700	541910.0	N	01	LC	79698	12457	1999-07-27	2003-09-30	it
12441	12441	GARTNER INC	IT	366651107	749251	8700	541910.0	C	01	LC	79698	12457	1999-07-01	1999-07-26	it
12441	12441	GARTNER INC	IT	366651107	749251	8700	541910.0	C	01	LC	79698	12457	1993-10-05	1999-06-30	it
12441	12441	GARTNER INC	IT	366651107	749251	8700	541910.0	C	01	LC	10490	8408	1986-07-17	1988-08-08	it
12445	12445	WATTS WATER TECHNOLOGIES INC	WTS	942749102	795403	3490	332919.0	P	01	LU	10606	8508	1986-08-21	E	wts
12471	12471	WORLD KINECT CORP	WKC	981475106	789460	5172	424720.0	P	01	LU	75070	8526	1986-08-28	E	int
12482	12482	CLEARFIELD INC	CLFD	18482P103	796505	3679	334419.0	P	01	LC	10547	8458	1986-08-06	E	clfd
12485	12485	ALTICE USA INC	ATUS	02156K103	1702780	4841	516120.0	P	01	LC	68857	20373	1986-01-17	2016-06-21	atus
12485	12485	ALTICE USA INC	ATUS	02156K103	1702780	4841	516120.0	P	12	LC	16753	55965	2017-06-22	E	atus
12522	12522	RADA ELECTRONIC INDUSTRIES	RADA	M81863124	761238	3812	334511.0	P	02	LC	78569	26255	1985-06-24	2022-11-30	rada
12540	12540	ADOBE INC	ADBE	00724F101	796343	7370	518210.0	P	01	LC	75510	8476	1986-08-13	E	adbe
12545	12545	HARTE HANKS INC	HHS	416196202	45919	7331	541860.0	P	01	LC	79903	30030	2021-12-01	E	hhs
12545	12545	HARTE HANKS INC	HHS	416196202	45919	7331	541860.0	P	01	LC	79903	30030	1993-11-04	2020-07-10	hhs
12575	12575	CYANOTECH CORP	CYAN	232437301	768408	2833	325411.0	C	02	LU	10661	8565	1986-09-15	E	cyan
12589	12589	ENCOMPASS HEALTH CORP	EHC	29261A100	785161	8060	622310.0	P	01	LC	10693	8596	1986-09-24	E	ehc
12597	12597	LAKELAND INDUSTRIES INC	LAKE	511795106	798081	3842	339113.0	P	01	LU	10645	8549	1986-09-09	E	lake
12603	12603	CNO FINANCIAL GROUP INC	CNO	12621E103	1224608	6321	524114.0	P	01	LC	86976	7850	1985-12-31	2002-08-08	cno
12603	12603	CNO FINANCIAL GROUP INC	CNO	12621E103	1224608	6321	524114.0	P	01	LC	86976	7850	1985-12-31	2002-08-08	cno-pa
12603	12603	CNO FINANCIAL GROUP INC	CNO	12621E103	1224608	6321	524114.0	P	04	LC	89841	7850	2003-09-12	E	cno
12603	12603	CNO FINANCIAL GROUP INC	CNO	12621E103	1224608	6321	524114.0	P	04	LC	89841	7850	2003-09-12	E	cno-pa
12615	12615	M/I HOMES INC	MHO	55305B101	799292	1531	236117.0	C	01	LC	79909	30036	1993-11-03	E	mho
12615	12615	M/I HOMES INC	MHO	55305B101	799292	1531	236117.0	C	00X	LC	10723	8622	1986-10-03	1986-12-30	mho
12615	12615	M/I HOMES INC	MHO	55305B101	799292	1531	236117.0	C	01	LC	10723	8622	1986-12-31	1990-06-29	mho
12635	12635	FISERV INC	FI	337738108	798354	7389	522320.0	P	01	LC	10696	8598	1986-09-25	E	fisv
12673	12673	BARCLAYS PLC	BCS	06738E204	312069	6020	522110.0	P	90	LU	69761	20269	1986-09-09	E	bcs
12673	12673	BARCLAYS PLC	BCS	06738E204	312069	6020	522110.0	P	90	LU	69761	20269	1986-09-09	E	bclyf
12689	12689	KB HOME	KBH	48666K109	795266	1531	236117.0	J	02	LU	77459	21037	1992-03-13	1994-05-31	kbh
12689	12689	KB HOME	KBH	48666K109	795266	1531	236117.0	P	01	LU	70092	21037	1986-08-01	E	kbh
12713	12713	ABEONA THERAPEUTICS INC	ABEO	00289Y206	318306	2836	325414.0	C	01	LC	87656	36949	2000-03-30	2006-01-31	abeo
12713	12713	ABEONA THERAPEUTICS INC	ABEO	00289Y206	318306	2836	325414.0	C	01	LC	23019	887	1984-01-31	1995-04-26	abeo
12713	12713	ABEONA THERAPEUTICS INC	ABEO	00289Y206	318306	2836	325414.0	C	01	LC	87656	36949	2014-12-19	E	abeo
12719	12719	APYX MEDICAL CORP	APYX	03837C106	719135	3845	334510.0	C	01	LC	89891	44602	2003-11-05	E	apyx
12719	12719	APYX MEDICAL CORP	APYX	03837C106	719135	3845	334510.0	C	00X	LC	14171	6200	1985-01-01	1985-10-30	apyx
12719	12719	APYX MEDICAL CORP	APYX	03837C106	719135	3845	334510.0	C	01	LC	14171	6200	1985-10-31	1992-05-01	apyx
12726	12726	UNUM GROUP	UNM	91529Y106	5513	6321	524114.0	P	01	LU	71175	21798	1986-12-31	E	unm
12726	12726	UNUM GROUP	UNM	91529Y106	5513	6321	524114.0	P	01	LU	71175	21798	1986-12-31	E	unma
12756	12756	COCA-COLA EUROPACIFIC PARTNE	CCEP	G25839104	1650107	2086	312111.0	P	01	LC	70500	20469	1986-11-21	2016-05-30	ccep
12756	12756	COCA-COLA EUROPACIFIC PARTNE	CCEP	G25839104	1650107	2086	312111.0	P	01	LC	16048	55559	2016-05-31	E	ccep
12761	12761	SUNOPTA INC	STKL	8676EP108	351834	2090	3119.0	C	01	LU	78418	26251	1982-11-01	E	stkl
12785	12785	PILGRIM'S PRIDE CORP	PPC	72147K108	802481	2015	311615.0	P	01	LC	93179	53305	2009-12-29	E	ppc
12785	12785	PILGRIM'S PRIDE CORP	PPC	72147K108	802481	2015	311615.0	J	02	LC	87040	21407	1999-08-02	2003-11-21	ppc
12785	12785	PILGRIM'S PRIDE CORP	PPC	72147K108	802481	2015	311615.0	P	01	LC	70965	21407	1986-11-14	2008-12-01	ppc
12796	12796	CORELOGIC INC	CLGX	21871D103	36047	7374	518210.0	J	02	LC	75868	1629	1989-11-21	1992-09-24	
12796	12796	CORELOGIC INC	CLGX	21871D103	36047	7374	518210.0	C	00X	LC	35124	1629	1980-01-01	1980-01-30	
12796	12796	CORELOGIC INC	CLGX	21871D103	36047	7374	518210.0	P	03	LC	35124	1629	1980-01-31	2021-06-30	
12818	12818	PERSPECTIVE THERAPEUTICS INC	CATX	46489V302	728387	2836	325414.0	C	01	LC	22323	6905	2007-04-19	E	isr
12818	12818	PERSPECTIVE THERAPEUTICS INC	CATX	46489V302	728387	2836	325414.0	C	01	LC	22323	6905	1990-03-05	1992-03-22	isr
12818	12818	PERSPECTIVE THERAPEUTICS INC	CATX	46489V302	728387	2836	325414.0	C	01	LC	22323	6905	1984-03-08	1989-09-11	isr
12825	12825	J & J SNACK FOODS CORP	JJSF	466032109	785956	2050	311812.0	P	01	LU	10026	7976	1986-02-04	E	jjsf
12833	12833	DELEK LOGISTICS PARTNERS LP	DKL	24664T103	1552797	5171	424710.0	P	01	LC	13681	54259	2012-11-02	E	dkl
12850	12850	CERNER CORP	CERN	156782104	804753	7373	541512.0	P	01	LU	10909	8786	1987-01-30	2022-06-30	
12874	12874	ICAD INC	ICAD	44934S206	749660	3845	334510.0	P	01	LC	88779	7343	1985-01-31	E	icad
12874	12874	ICAD INC	ICAD	44934S206	749660	3845	334510.0	C	00X	LC	88779	7343	1985-01-01	1985-01-30	icad
12886	12886	TWENTY-FIRST CENTURY FOX INC	TFCFA	90130A309	1308161	4888	515210.0	J	01	LC	90442	21287	2004-12-01	E	
12886	12886	TWENTY-FIRST CENTURY FOX INC	TFCFA	90130A309	1308161	4888	515210.0	P	01	LC	90442	21287	2004-11-12	2004-11-30	
12886	12886	TWENTY-FIRST CENTURY FOX INC	TFCFA	90130A309	1308161	4888	515210.0	P	04	LC	90441	21287	2004-12-01	E	
12886	12886	TWENTY-FIRST CENTURY FOX INC	TFCFA	90130A309	1308161	4888	515210.0	J	04	LC	90441	21287	2004-11-12	2004-11-30	
12886	12886	TWENTY-FIRST CENTURY FOX INC	TFCFA	90130A309	1308161	4888	515210.0	P	01	LC	69593	21287	1986-05-20	2004-11-02	
12892	12892	SUNOCO LP	SUN	86765K109	1552275	5172	424720.0	P	01	LC	13584	54183	2012-09-21	E	sun
12909	12909	MARKEL GROUP INC	MKL	570535104	1096343	6331	524126.0	P	01	LU	10933	8811	1986-12-12	E	mkl
12915	12915	ORASURE TECHNOLOGIES INC	OSUR	68554V108	1116463	2835	325413.0	P	01	LU	10860	8743	1986-11-17	E	osur
12926	12926	FRP HOLDINGS INC	FRPH	30292L107	844059	6513	531110.0	P	01	LC	10443	8360	1986-07-02	E	frph
12945	12945	PLEXUS CORP	PLXS	729132100	785786	3672	334412.0	P	01	LU	10032	7980	1986-02-05	E	plxs
12987	12987	XWELL INC	XWEL	98420U802	1410428	7990	713940.0	P	01	LC	12017	53444	2012-07-31	E	xspa
13041	13041	SYNOVUS FINANCIAL CORP	SNV	87161C501	18349	6020	522110.0	P	01	LC	20053	781	1981-01-01	E	snv
13041	13041	SYNOVUS FINANCIAL CORP	SNV	87161C501	18349	6020	522110.0	P	01	LC	20053	781	1981-01-01	E	snv-pd
13041	13041	SYNOVUS FINANCIAL CORP	SNV	87161C501	18349	6020	522110.0	P	01	LC	20053	781	1981-01-01	E	snv-pe
13071	13071	RADNET INC	RDNT	750491102	790526	8071	621512.0	P	01	LC	76672	27836	2007-02-14	E	rdnt
13071	13071	RADNET INC	RDNT	750491102	790526	8071	621512.0	P	01	LC	76672	27836	1991-02-26	1995-04-12	rdnt
13092	13092	JACK IN THE BOX INC	JACK	466367109	807882	5812	722513.0	C	03	LC	77453	25865	1992-03-05	E	jack
13092	13092	JACK IN THE BOX INC	JACK	466367109	807882	5812	722513.0	C	01	LC	71933	25865	1988-12-01	1988-12-02	jack
13092	13092	JACK IN THE BOX INC	JACK	466367109	807882	5812	722513.0	P	01	LC	71933	25865	1987-02-24	1988-11-30	jack
13125	13125	HEALTHPEAK PROPERTIES INC	DOC	42250P103	765880	6798	531120.0	P	01	LC	67598	20891	1986-01-31	E	peak
13125	13125	HEALTHPEAK PROPERTIES INC	DOC	42250P103	765880	6798	531120.0	C	00X	LC	67598	20891	1986-01-01	1986-01-30	peak
13128	13128	ECOLOGY AND ENVIRONMENT INC	EEI	278878103	809933	8711	541620.0	P	01	LU	71837	20631	1987-03-09	2020-01-31	
13142	13142	CAPSTEAD MORTGAGE CORP	CMO	14067E506	766701	6798	525990.0	P	01	LU	68021	21114	1986-01-31	2021-10-29	
13142	13142	CAPSTEAD MORTGAGE CORP	CMO	14067E506	766701	6798	525990.0	C	00X	LU	68021	21114	1986-01-01	1986-01-30	
13145	13145	INTL CONSOL AIRLINES GROUP	ICAGY	459348108	1505706	4512	481111.0	P	90	LC	71589	20332	1987-02-11	2007-05-17	
13176	13176	SONO-TEK CORP	SOTK	835483108	806172	3690	333310.0	C	01	LC	11153	9009	1987-03-06	1992-04-05	sotk
13176	13176	SONO-TEK CORP	SOTK	835483108	806172	3690	333310.0	C	01	LC	11153	9009	2021-08-27	E	sotk
13184	13184	LADRX CORP	LADX	232828707	799698	2836	325414.0	P	01	LC	10838	8721	1986-11-10	2019-06-03	cytr
13189	13189	CEDAR REALTY TRUST INC	CDR	150602605	761648	6798	531120.0	P	01	LU	10952	8826	1986-12-17	2022-08-31	cdr-pc
13189	13189	CEDAR REALTY TRUST INC	CDR	150602605	761648	6798	531120.0	P	01	LU	10952	8826	1986-12-17	2022-08-31	cdr-pb
13200	13200	PHOTRONICS INC	PLAB	719405102	810136	3674	334413.0	P	01	LU	11154	9010	1987-03-10	E	plab
13235	13235	IMMUCELL CORP	ICCC	452525306	811641	2835	325413.0	P	02	LU	11292	9146	1987-05-01	E	iccc
13239	13239	KORU MEDICAL SYSTEMS INC	KRMD	759910102	704440	3841	339112.0	C	01	LC	11275	9128	2019-10-17	E	krmd
13239	13239	KORU MEDICAL SYSTEMS INC	KRMD	759910102	704440	3841	339112.0	C	01	LC	11275	9128	1987-04-27	1990-06-04	krmd
13312	13312	BHP GROUP LTD	BHP	088606108	811809	1000	212.0	J	91	LC	89760	44121	2003-06-25	2022-04-29	bhp
13312	13312	BHP GROUP LTD	BHP	088606108	811809	1000	212.0	J	91	LC	89760	44121	2003-06-25	2022-04-29	bhplf
13312	13312	BHP GROUP LTD	BHP	088606108	811809	1000	212.0	P	90	LC	75039	653	1982-01-29	E	bhp
13312	13312	BHP GROUP LTD	BHP	088606108	811809	1000	212.0	P	90	LC	75039	653	1982-01-29	E	bhplf
13323	13323	SANDERSON FARMS INC	SAFM	800013104	812128	2015	311615.0	P	01	LU	11343	9188	1987-05-19	2022-07-29	
13341	13341	PROGRESSIVE CORP-OHIO	PGR	743315103	80661	6331	524126.0	P	01	LU	64390	3682	1979-01-31	E	pgr
13341	13341	PROGRESSIVE CORP-OHIO	PGR	743315103	80661	6331	524126.0	C	00X	LU	64390	3682	1979-01-01	1979-01-30	pgr
13342	13342	RLI CORP	RLI	749607107	84246	6331	524126.0	P	01	LU	65294	3860	1977-01-31	E	rli
13342	13342	RLI CORP	RLI	749607107	84246	6331	524126.0	C	00X	LU	65294	3860	1977-01-01	1977-01-30	rli
13354	13354	VOXX INTERNATIONAL CORP	VOXX	91829F104	807707	3651	334310.0	P	01	LU	75033	20232	1987-05-29	E	voxx
13381	13381	DESTINATION XL GROUP INC	DXLG	25065K104	813298	5651	458110.0	P	01	LC	11379	9222	2021-09-08	E	dxlg
13381	13381	DESTINATION XL GROUP INC	DXLG	25065K104	813298	5651	458110.0	P	01	LC	11379	9222	1987-06-02	2020-12-21	dxlg
13400	13400	AVINO SILVER & GOLD MINS LTD	ASM	053906103	316888	1044	212220.0	C	01	LC	78236	26169	2011-08-02	E	asm
13400	13400	AVINO SILVER & GOLD MINS LTD	ASM	053906103	316888	1044	212220.0	C	01	LC	78236	26169	1986-01-31	1992-07-12	asm
13421	13421	CADENCE DESIGN SYSTEMS INC	CDNS	127387108	813672	7372	513210.0	P	01	LU	11403	9245	1987-06-10	E	cdns
13431	13431	BERRY CORP	BRY	08579X101	1705873	1311	211120.0	C	03	LC	17956	56450	2018-07-31	E	bry
13431	13431	BERRY CORP	BRY	08579X101	1705873	1311	211120.0	P	01	LC	11478	9309	1987-07-01	2013-12-16	bry
13480	13480	EBIX INC	EBIXQ	278715206	814549	7372	513210.0	P	01	LC	11481	9312	1987-07-01	2023-12-27	ebix
13498	13498	CARNIVAL CORPORATION & PLC	CCL	143658300	815097	4400	483112.0	J	90	LC	89728	56248	2003-04-21	E	ccl
13498	13498	CARNIVAL CORPORATION & PLC	CCL	143658300	815097	4400	483112.0	P	01	LC	75154	20394	1987-07-24	E	ccl
13510	13510	DUKE REALTY CORP	DRE	264411505	783280	6798	531120.0	P	01	LU	75341	20609	1988-08-31	2022-10-31	dre
13520	13520	CALEDONIA MINING CORP PLC	CMCL	G1757E113	766011	1040	212220.0	P	01	LU	77563	7222	1984-10-31	1998-10-15	cmcl
13520	13520	CALEDONIA MINING CORP PLC	CMCL	G1757E113	766011	1040	212220.0	P	01	LC	16849	56023	2017-07-27	E	cmcl
13526	13526	BUCKEYE PARTNERS LP	BPL	118230101	805022	4610	486910.0	P	01	LU	70420	20346	1986-12-16	2019-10-31	
13556	13556	THALES SA	THLLY	883219206	1884735	3812	334511.0	P	90	LC	75508	8424	1986-07-23	1996-07-02	
13561	13561	MBIA INC	MBI	55262C100	814585	6351	524126.0	P	01	LU	75175	21128	1987-07-01	E	mbi
13562	13562	BRANDYWINE REALTY TRUST	BDN	105368203	790816	6798	531120.0	P	01	LU	70121	21107	1986-07-23	E	bdn
13570	13570	MIDDLEBY CORP	MIDD	596278101	769520	3580	333310.0	P	01	LU	75470	9375	1987-08-31	E	midd
13579	13579	EQUITY COMMONWEALTH	EQC	294628102	803649	6798	531120.0	P	01	LC	70703	20894	1986-12-17	E	eqc
13579	13579	EQUITY COMMONWEALTH	EQC	294628102	803649	6798	531120.0	P	01	LC	70703	20894	1986-12-17	E	eqc-pd
13582	13582	CPS TECHNOLOGIES CORP	CPSH	12619F104	814676	3679	334419.0	C	01	LC	11511	9340	2015-01-15	E	cpsh
13582	13582	CPS TECHNOLOGIES CORP	CPSH	12619F104	814676	3679	334419.0	C	01	LC	11511	9340	1987-07-15	1993-06-18	cpsh
13599	13599	CELGENE CORP	CELG	151020104	816284	2834	325412.0	P	01	LU	11552	9374	1987-09-30	2019-11-29	
13602	13602	AMERICA'S CAR-MART INC	CRMT	03062T105	799850	5500	441120.0	P	01	LU	11174	9023	1987-03-13	E	crmt
13619	13619	ABIOMED INC	ABMD	003654100	815094	3841	339112.0	P	01	LU	75107	20018	1987-07-29	2022-12-30	abmd
13623	13623	CONMED CORP	CNMD	207410101	816956	3845	334510.0	P	01	LU	11547	9370	1987-07-23	E	cnmd
13646	13646	TIFFANY & CO	TIF	886547108	98246	5944	448310.0	P	01	LU	75100	21753	1987-05-05	2021-01-07	
13649	13649	NATIONAL HOLDINGS CORP	NHLD	636375206	1023844	6211	523120.0	P	01	LC	11441	9278	2015-03-03	2021-02-26	
13649	13649	NATIONAL HOLDINGS CORP	NHLD	636375206	1023844	6211	523120.0	P	01	LC	11441	9278	1987-06-23	2004-10-29	
13664	13664	GCI LIBERTY INC	GLIBA	36164V305	808461	4812	517312.0	P	01	LC	17334	9914	2018-03-10	2020-12-31	
13664	13664	GCI LIBERTY INC	GLIBA	36164V305	808461	4812	517312.0	J	02	LC	13554	41998	2012-08-10	2018-03-09	
13664	13664	GCI LIBERTY INC	GLIBA	36164V305	808461	4812	517312.0	P	01	LC	13553	41998	2012-08-10	2018-03-09	
13679	13679	RM2 INTERNATIONAL INC	RMTO	00213H105	826326	3490	332999.0	P	01	LC	91954	52129	2012-08-08	2019-07-19	
13683	13683	TELEFONICA SA	TEF	879382208	814052	4812	517112.0	P	90	LU	75049	21724	1987-06-12	E	tef
13683	13683	TELEFONICA SA	TEF	879382208	814052	4812	517112.0	P	90	LU	75049	21724	1987-06-12	E	tefof
13700	13700	DENTSPLY SIRONA INC	XRAY	24906P109	818479	3843	339114.0	P	01	LC	11600	9424	1987-08-12	E	xray
13709	13709	ICAHN ENTERPRISES LP	IEP	451100101	813762	9997	999977.0	P	01	LU	75113	20097	1987-07-23	E	iep
13710	13710	SIX FLAGS ENTERTAINMENT CORP	FUN	83001C108	1999001	7996	713110.0	P	01	LC	75041	20409	1987-04-23	2024-07-01	
13710	13710	SIX FLAGS ENTERTAINMENT CORP	FUN	83001C108	1999001	7996	713110.0	P	01	LC	25147	59892	2024-07-02	E	
13712	13712	ALERIS CORP	6685B	014475107	1518587	3350	331315.0	P	01	LC	75558	9452	1987-08-25	2006-12-29	
13714	13714	PARAMOUNT GLOBAL	PARA	92556H206	813828	4833	516120.0	P	03	LC	76226	21866	1994-10-01	E	para
13714	13714	PARAMOUNT GLOBAL	PARA	92556H206	813828	4833	516120.0	P	03	LC	76226	21866	1994-10-01	E	paraa
13714	13714	PARAMOUNT GLOBAL	PARA	92556H206	813828	4833	516120.0	P	03	LC	76226	21866	1994-10-01	E	parap
13714	13714	PARAMOUNT GLOBAL	PARA	92556H206	813828	4833	516120.0	J	03	LC	76226	21866	1990-06-14	1994-09-30	para
13714	13714	PARAMOUNT GLOBAL	PARA	92556H206	813828	4833	516120.0	J	03	LC	76226	21866	1990-06-14	1994-09-30	paraa
13714	13714	PARAMOUNT GLOBAL	PARA	92556H206	813828	4833	516120.0	J	03	LC	76226	21866	1990-06-14	1994-09-30	parap
13714	13714	PARAMOUNT GLOBAL	PARA	92556H206	813828	4833	516120.0	J	01	LC	75104	21866	1994-10-01	E	para
13714	13714	PARAMOUNT GLOBAL	PARA	92556H206	813828	4833	516120.0	J	01	LC	75104	21866	1994-10-01	E	paraa
13714	13714	PARAMOUNT GLOBAL	PARA	92556H206	813828	4833	516120.0	J	01	LC	75104	21866	1994-10-01	E	parap
13714	13714	PARAMOUNT GLOBAL	PARA	92556H206	813828	4833	516120.0	P	01	LC	75104	21866	1987-06-10	1994-09-30	para
13714	13714	PARAMOUNT GLOBAL	PARA	92556H206	813828	4833	516120.0	P	01	LC	75104	21866	1987-06-10	1994-09-30	paraa
13714	13714	PARAMOUNT GLOBAL	PARA	92556H206	813828	4833	516120.0	P	01	LC	75104	21866	1987-06-10	1994-09-30	parap
13714	13714	PARAMOUNT GLOBAL	PARA	92556H206	813828	4833	516120.0	P	01	LC	51617	25194	1970-12-03	1987-06-09	para
13714	13714	PARAMOUNT GLOBAL	PARA	92556H206	813828	4833	516120.0	P	01	LC	51617	25194	1970-12-03	1987-06-09	paraa
13714	13714	PARAMOUNT GLOBAL	PARA	92556H206	813828	4833	516120.0	P	01	LC	51617	25194	1970-12-03	1987-06-09	parap
13721	13721	ZOETIS INC	ZTS	98978V103	1555280	2834	325412.0	P	01	LC	13788	54327	2013-02-01	E	zts
13782	13782	MULTI-COLOR CORP	LABL	625383104	819220	2750	323111.0	P	01	LU	11638	9459	1987-08-27	2019-07-31	
13786	13786	HERON THERAPEUTICS INC	HRTX	427746102	818033	2836	325414.0	P	01	LC	11636	9457	2014-01-23	E	hrtx
13786	13786	HERON THERAPEUTICS INC	HRTX	427746102	818033	2836	325414.0	P	01	LC	11636	9457	1987-08-26	2011-03-31	hrtx
13794	13794	THERMOGENESIS HOLDINGS INC	THMO	88362L209	811212	3821	339113.0	P	01	LC	11394	9235	1987-06-05	2024-06-14	thmo
13824	13824	FAIR ISAAC CORP	FICO	303250104	814547	7373	541512.0	P	01	LU	11533	9360	1987-07-22	E	fico
13835	13835	REGULUS THERAPEUTICS INC	RGLS	75915K309	1505512	2836	325414.0	P	01	LC	13652	54232	2012-10-04	E	rgls
13839	13839	CAMBREX CORP	CBM	132011107	820081	2833	325411.0	P	01	LU	11707	9526	1987-09-22	2019-12-31	
13861	13861	TILE SHOP HOLDINGS INC	TTSH	88677Q109	1552800	5700	449121.0	P	01	LC	13563	54170	2021-06-17	E	ttsh
13861	13861	TILE SHOP HOLDINGS INC	TTSH	88677Q109	1552800	5700	449121.0	P	01	LC	13563	54170	2012-08-22	2019-11-10	ttsh
13871	13871	SUMMIT MIDSTREAM CORP	SMC	86614G101	2024218	1311	211130.0	P	01	LC	13583	54182	2012-09-28	E	
13888	13888	MR COOPER GROUP INC	COOP	62482R107	933136	6162	522292.0	P	01	LC	81593	5849	2015-09-28	E	coop
13906	13906	JOHNSON OUTDOORS INC  -CL A	JOUT	479167108	788329	3690	336320.0	P	01	LU	11775	9576	1987-10-09	E	jout
13913	13913	SELECTIS HEALTH INC	GBCS	816291108	727346	6798	531120.0	C	02	LU	11561	9385	1987-07-31	1999-07-07	gbcs
13932	13932	SAMSONITE GROUP SA	3SAMC	79604V105	1560968	3100	316991.0	C	01	LU	80731	13219	1994-07-25	2002-01-14	
13962	13962	FERRELLGAS PARTNERS  -LP	FGPR	315293209	922358	5900	457210.0	P	01	LC	80682	30422	1994-11-30	2020-01-09	fgpr
13962	13962	FERRELLGAS PARTNERS  -LP	FGPR	315293209	922358	5900	457210.0	P	01	LC	80682	30422	1994-11-30	2020-01-09	fgprb
13963	13963	VECTOR GROUP LTD	VGR	92240M108	59440	2111	312230.0	P	01	LU	75233	21100	1987-10-08	2024-10-31	vgr
13971	13971	METHANEX CORP	MEOH	59151K108	886977	2860	325110.0	P	03	LC	77735	11530	1998-04-30	E	meoh
13988	13988	SCHWAB (CHARLES) CORP	SCHW	808513105	316709	6282	523940.0	P	01	LC	75186	21578	1987-09-22	E	schw
13988	13988	SCHWAB (CHARLES) CORP	SCHW	808513105	316709	6282	523940.0	P	01	LC	75186	21578	1987-09-22	E	schw-pd
13988	13988	SCHWAB (CHARLES) CORP	SCHW	808513105	316709	6282	523940.0	P	01	LC	75186	21578	1987-09-22	E	schw-pj
13992	13992	EXTENDICARE INC	EXETF	30224T863	1012881	8051	623110.0	P	01	LC	83448	28217	1996-05-16	2006-11-09	
14007	14007	NEIMAN MARCUS GROUP LTD LLC	1641B	640204939	1644147	5311	452111.0	P	01	LC	87281	21266	1999-10-07	2005-10-06	
14007	14007	NEIMAN MARCUS GROUP LTD LLC	1641B	640204939	1644147	5311	452111.0	P	01	LC	75179	21266	1987-09-11	1999-10-06	
14007	14007	NEIMAN MARCUS GROUP LTD LLC	1641B	640204939	1644147	5311	452111.0	J	03	LC	87283	21266	1999-10-25	2005-10-06	
14010	14010	TRANSGLOBE ENERGY CORP	TGA	893662106	736744	1311	211120.0	P	01	LU	77729	6913	1984-03-12	2022-10-31	tga
14027	14027	CLEAN HARBORS INC	CLH	184496107	822818	4955	562211.0	P	01	LU	11809	9616	1987-11-24	E	clh
14084	14084	ALBANY INTL CORP  -CL A	AIN	012348108	819793	2221	313210.0	P	01	LU	11731	9550	1987-09-30	E	ain
14108	14108	CYBEROPTICS CORP	CYBE	232517102	768411	3827	333314.0	P	01	LU	11825	9632	1987-12-17	2022-11-30	cybe
14113	14113	MITEK SYSTEMS INC	MITK	606710200	807863	7372	513210.0	C	01	LC	11803	9604	2011-07-14	E	mitk
14113	14113	MITEK SYSTEMS INC	MITK	606710200	807863	7372	513210.0	C	01	LC	11803	9604	1987-12-31	1995-03-08	mitk
14113	14113	MITEK SYSTEMS INC	MITK	606710200	807863	7372	513210.0	C	01	LC	11803	9604	1995-05-26	2004-05-24	mitk
14140	14140	BANCO SANTANDER SA	SAN	05964H105	891478	6020	522110.0	P	90	LC	75152	20260	1987-07-30	E	san
14140	14140	BANCO SANTANDER SA	SAN	05964H105	891478	6020	522110.0	P	90	LC	75152	20260	1987-07-30	E	bcdrf
14163	14163	MCCLATCHY CO  -CL A	MNIQQ	579489303	1056087	2711	511110.0	P	01	LC	75261	21174	1988-02-05	2020-10-05	
14172	14172	FULTON FINANCIAL CORP	FULT	360271100	700564	6020	522110.0	P	01	LU	88197	5440	1985-09-03	E	fult
14172	14172	FULTON FINANCIAL CORP	FULT	360271100	700564	6020	522110.0	P	01	LU	88197	5440	1985-09-03	E	fultp
14219	14219	CADENCE BANK	CADE	12740C103	1299939	6020	522110.0	P	01	LC	85789	7784	1985-10-14	E	cade
14219	14219	CADENCE BANK	CADE	12740C103	1299939	6020	522110.0	P	01	LC	85789	7784	1985-10-14	E	cade-pa
14225	14225	FASTENAL CO	FAST	311900104	815556	5000	423.0	P	01	LU	11618	9440	1987-08-20	E	fast
14242	14242	ANSELL LTD	ANSLY	03634M208	791440	3842	339113.0	P	90	LC	11486	9319	2002-04-30	2006-06-02	
14256	14256	MAXIM INTEGRATED PRODUCTS	MXIM	57772K101	743316	3674	334413.0	P	01	LC	11896	9698	2008-10-08	2021-08-31	
14256	14256	MAXIM INTEGRATED PRODUCTS	MXIM	57772K101	743316	3674	334413.0	P	01	LC	11896	9698	1988-02-29	2007-10-01	
14269	14269	HERBALIFE LTD	HLF	G4412G101	1180262	2834	325412.0	P	02	LC	85694	9324	1998-06-01	2002-07-31	hlf
14269	14269	HERBALIFE LTD	HLF	G4412G101	1180262	2834	325412.0	P	04	LC	90516	46036	2004-12-16	E	hlf
14269	14269	HERBALIFE LTD	HLF	G4412G101	1180262	2834	325412.0	J	01	LC	11490	9324	1998-06-01	2002-07-31	hlf
14269	14269	HERBALIFE LTD	HLF	G4412G101	1180262	2834	325412.0	P	01	LC	11490	9324	1987-07-07	1998-05-31	hlf
14269	14269	HERBALIFE LTD	HLF	G4412G101	1180262	2834	325412.0	J	02	LC	85694	9324	1997-12-15	1998-05-31	hlf
14275	14275	FIRST REPUBLIC BANK	FRCB	33616C100	1132979	6020	522110.0	P	01	LC	10623	8523	1986-08-27	2007-09-21	frc
14275	14275	FIRST REPUBLIC BANK	FRCB	33616C100	1132979	6020	522110.0	P	01	LC	10623	8523	1986-08-27	2007-09-21	frc-pi
14275	14275	FIRST REPUBLIC BANK	FRCB	33616C100	1132979	6020	522110.0	P	01	LC	10623	8523	1986-08-27	2007-09-21	frc-ph
14275	14275	FIRST REPUBLIC BANK	FRCB	33616C100	1132979	6020	522110.0	P	01	LC	10623	8523	1986-08-27	2007-09-21	frc-pj
14275	14275	FIRST REPUBLIC BANK	FRCB	33616C100	1132979	6020	522110.0	P	01	LC	10623	8523	1986-08-27	2007-09-21	frc-pk
14275	14275	FIRST REPUBLIC BANK	FRCB	33616C100	1132979	6020	522110.0	P	01	LC	10623	8523	1986-08-27	2007-09-21	frc-pl
14275	14275	FIRST REPUBLIC BANK	FRCB	33616C100	1132979	6020	522110.0	P	01	LC	10623	8523	1986-08-27	2007-09-21	frc-pm
14275	14275	FIRST REPUBLIC BANK	FRCB	33616C100	1132979	6020	522110.0	P	01	LC	10623	8523	1986-08-27	2007-09-21	frc-pn
14275	14275	FIRST REPUBLIC BANK	FRCB	33616C100	1132979	6020	522110.0	P	04	LC	12448	53609	2010-12-09	E	frc
14275	14275	FIRST REPUBLIC BANK	FRCB	33616C100	1132979	6020	522110.0	P	04	LC	12448	53609	2010-12-09	E	frc-pi
14275	14275	FIRST REPUBLIC BANK	FRCB	33616C100	1132979	6020	522110.0	P	04	LC	12448	53609	2010-12-09	E	frc-ph
14275	14275	FIRST REPUBLIC BANK	FRCB	33616C100	1132979	6020	522110.0	P	04	LC	12448	53609	2010-12-09	E	frc-pj
14275	14275	FIRST REPUBLIC BANK	FRCB	33616C100	1132979	6020	522110.0	P	04	LC	12448	53609	2010-12-09	E	frc-pk
14275	14275	FIRST REPUBLIC BANK	FRCB	33616C100	1132979	6020	522110.0	P	04	LC	12448	53609	2010-12-09	E	frc-pl
14275	14275	FIRST REPUBLIC BANK	FRCB	33616C100	1132979	6020	522110.0	P	04	LC	12448	53609	2010-12-09	E	frc-pm
14275	14275	FIRST REPUBLIC BANK	FRCB	33616C100	1132979	6020	522110.0	P	04	LC	12448	53609	2010-12-09	E	frc-pn
14282	14282	AMPHENOL CORP	APH	032095101	820313	3678	334417.0	P	01	LC	77118	27471	1991-11-08	1997-05-19	aph
14282	14282	AMPHENOL CORP	APH	032095101	820313	3678	334417.0	P	01	LC	84769	31967	1997-05-20	E	aph
14304	14304	AKORN OPERATING COMPANY LLC	AKRXQ	009728106	3116	2834	325412.0	P	01	LU	10180	9743	1988-04-08	2020-10-05	
14309	14309	INTERPARFUMS INC	IPAR	458334109	822663	2844	325620.0	P	02	LU	11884	9677	1988-02-04	E	ipar
14311	14311	POLARIS INC	PII	731068102	931015	3790	336999.0	P	01	LU	75182	21425	1987-09-16	E	pii
14313	14313	NORBORD INC	OSB	65548P403	877365	2400	321219.0	C	01	LC	15929	55518	2016-02-19	2021-02-26	
14320	14320	INTERCEPT PHARMA INC	ICPT	45845P108	1270073	2836	325414.0	P	01	LC	13643	54224	2012-10-11	2023-11-30	icpt
14330	14330	WEST FRSER TMBR CO LTD	WFG	952845105	1402388	2421	321113.0	P	01	LC	20558	57881	2021-02-01	E	wfg
14353	14353	SHAW COMMUNICATIONS INC-CL B	SJR	82028K200	932872	4841	515210.0	P	01	LC	86218	28124	1998-07-01	2023-04-28	sjr
14353	14353	SHAW COMMUNICATIONS INC-CL B	SJR	82028K200	932872	4841	515210.0	P	01	LC	86218	28124	1998-07-01	2023-04-28	sjrwf
14359	14359	PIONEER NATURAL RESOURCES CO	PXD	723787107	1038357	1311	211120.0	P	02	LU	75241	21366	1987-12-22	E	pxd
14370	14370	MANPOWERGROUP	MAN	56418H100	871763	7363	561320.0	P	01	LC	75285	20312	1991-05-03	E	man
14370	14370	MANPOWERGROUP	MAN	56418H100	871763	7363	561320.0	P	01	LC	19581	57197	1988-05-03	1991-05-02	man
14390	14390	FORTIS INC	FTS	349553107	1666175	4911	2211.0	P	01	LC	16341	55714	2016-10-14	E	fts
14390	14390	FORTIS INC	FTS	349553107	1666175	4911	2211.0	P	01	LC	16341	55714	2016-10-14	E	ftrsf
14391	14391	TRANSALTA CORP	TAC	89346D107	1144800	4911	22111.0	P	01	LC	89068	41867	2001-07-31	E	tac
14403	14403	DYNEX CAPITAL INC	DX	26817Q886	826675	6798	525990.0	P	01	LC	75269	21478	1988-02-10	E	dx
14403	14403	DYNEX CAPITAL INC	DX	26817Q886	826675	6798	525990.0	P	01	LC	75269	21478	1988-02-10	E	dx-pc
14412	14412	SOTHEBY'S	BID	835898107	823094	7389	561990.0	P	01	LU	75316	21635	1988-05-13	2019-10-31	
14418	14418	MGM RESORTS INTERNATIONAL	MGM	552953101	789570	7990	721120.0	P	01	LU	11891	9764	1988-05-02	E	mgm
14447	14447	LVMH MOET HENNESSY LOUIS V	LVMUY	502441306	824046	2330	3152.0	P	90	LC	11785	9587	1987-10-23	2002-10-18	lvmuy
14447	14447	LVMH MOET HENNESSY LOUIS V	LVMUY	502441306	824046	2330	3152.0	P	90	LC	11785	9587	1987-10-23	2002-10-18	lvmhf
14477	14477	WASTE MANAGEMENT INC	WM	94106L109	823768	4953	562111.0	P	01	LU	11955	9804	1988-06-03	E	wm
14489	14489	DELL TECHNOLOGIES INC	DELL	24703L202	1571996	3571	334111.0	P	08	LC	18267	55676	2018-12-28	E	dell
14489	14489	DELL TECHNOLOGIES INC	DELL	24703L202	1571996	3571	334111.0	P	01	LC	11081	9833	1988-06-22	2013-10-31	dell
14535	14535	EW SCRIPPS  -CL A	SSP	811054402	832428	4833	515120.0	P	01	LC	84176	31806	1996-11-14	E	ssp
14535	14535	EW SCRIPPS  -CL A	SSP	811054402	832428	4833	515120.0	P	01	LC	11936	9842	1988-06-29	1996-11-13	ssp
14538	14538	TEVA PHARMACEUTICALS	TEVA	881624209	818686	2834	325412.0	P	90	LC	75652	5310	1985-01-31	E	teva
14538	14538	TEVA PHARMACEUTICALS	TEVA	881624209	818686	2834	325412.0	P	90	LC	75652	5310	1985-01-31	E	tevjf
14551	14551	SILVERCREST ASSET MGT	SAMG	828359109	1549966	6282	523940.0	P	01	LC	13969	54438	2013-06-27	E	samg
14561	14561	COHERENT CORP	COHR	19247G107	820318	3827	333310.0	P	01	LC	11752	9558	1987-10-02	E	cohr
14561	14561	COHERENT CORP	COHR	19247G107	820318	3827	333310.0	P	01	LC	11752	9558	1987-10-02	E	iivi
14561	14561	COHERENT CORP	COHR	19247G107	820318	3827	333310.0	P	01	LC	11752	9558	1987-10-02	E	iivip
14563	14563	MERCER INTL INC	MERC	588056101	1333274	2611	322110.0	P	02	LC	75578	9868	1988-07-19	E	merc
14590	14590	FREEPORT-MCMORAN INC	FCX	35671D857	831259	1000	212230.0	P	02	LC	81774	20763	1995-07-31	E	fcx
14590	14590	FREEPORT-MCMORAN INC	FCX	35671D857	831259	1000	212230.0	C	01	LC	75294	20763	1995-07-01	1995-07-30	fcx
14590	14590	FREEPORT-MCMORAN INC	FCX	35671D857	831259	1000	212230.0	P	01	LC	75294	20763	1988-05-05	1995-06-30	fcx
14590	14590	FREEPORT-MCMORAN INC	FCX	35671D857	831259	1000	212230.0	N	01	LC	75294	20763	1995-07-31	2002-05-03	fcx
14592	14592	ALLIANCEBERNSTEIN HOLDING LP	AB	01881G106	825313	6799	523999.0	P	01	LU	75278	20048	1988-04-14	E	ab
14597	14597	JUNIPER PHARMACEUTICALS INC	JNP	48203L107	821995	2834	325412.0	P	01	LC	12149	9879	1988-07-28	2018-08-31	
14603	14603	AVID BIOSERVICES INC	CDMO	05368M106	704562	2835	325413.0	C	01	LC	12266	9899	1988-08-11	E	cdmo
14605	14605	WPP PLC	WPP	92937A102	806968	7311	541810.0	P	90	LC	11845	9646	1987-12-29	E	wpp
14605	14605	WPP PLC	WPP	92937A102	806968	7311	541810.0	P	90	LC	11845	9646	1987-12-29	E	wppgf
14611	14611	UBM PLC	UBMPY	90265U203	813811	7389	561920.0	P	90	LC	11643	9464	1987-08-28	2005-03-21	
14620	14620	ELECTROLUX AB	ELUXY	010198208	813810	3630	3352.0	P	90	LU	11485	9318	1987-07-01	2005-03-31	
14624	14624	ODP CORP	ODP	88337F105	800240	5940	459410.0	P	01	LC	75573	9798	1988-06-01	E	odp
14790	14790	MERITAGE HOMES CORP	MTH	59001A102	833079	1531	236117.0	P	01	LU	75342	20642	1988-07-21	E	mth
14793	14793	ARCH RESOURCES INC	ARCH	03940R107	1037676	1220	21211.0	P	01	LC	75326	20221	1988-08-11	2016-01-08	arch
14793	14793	ARCH RESOURCES INC	ARCH	03940R107	1037676	1220	21211.0	P	06	LC	16436	20221	2016-10-05	E	arch
14794	14794	CORE MOLDING TECHNOLOGIES	CMT	218683100	1026655	3089	326199.0	P	01	LC	84387	31894	1997-01-02	E	cmt
14794	14794	CORE MOLDING TECHNOLOGIES	CMT	218683100	1026655	3089	326199.0	P	01	LC	75360	21544	1988-09-16	1996-12-31	cmt
14802	14802	NATIONAL AUSTRALIA BK	NABZY	632525408	833029	6020	522110.0	P	90	LC	75301	21252	1988-06-24	2007-06-15	
14822	14822	BERKLEY (W R) CORP	WRB	084423102	11544	6331	524126.0	C	00X	LC	17743	544	1987-01-01	1987-01-29	wrb
14822	14822	BERKLEY (W R) CORP	WRB	084423102	11544	6331	524126.0	C	00X	LC	17743	544	1987-01-01	1987-01-29	wrb-pe
14822	14822	BERKLEY (W R) CORP	WRB	084423102	11544	6331	524126.0	C	00X	LC	17743	544	1987-01-01	1987-01-29	wrb-pf
14822	14822	BERKLEY (W R) CORP	WRB	084423102	11544	6331	524126.0	C	00X	LC	17743	544	1987-01-01	1987-01-29	wrb-pg
14822	14822	BERKLEY (W R) CORP	WRB	084423102	11544	6331	524126.0	C	00X	LC	17743	544	1987-01-01	1987-01-29	wrb-ph
14822	14822	BERKLEY (W R) CORP	WRB	084423102	11544	6331	524126.0	P	01	LC	17743	544	1987-01-30	E	wrb
14822	14822	BERKLEY (W R) CORP	WRB	084423102	11544	6331	524126.0	P	01	LC	17743	544	1987-01-30	E	wrb-pe
14822	14822	BERKLEY (W R) CORP	WRB	084423102	11544	6331	524126.0	P	01	LC	17743	544	1987-01-30	E	wrb-pf
14822	14822	BERKLEY (W R) CORP	WRB	084423102	11544	6331	524126.0	P	01	LC	17743	544	1987-01-30	E	wrb-pg
14822	14822	BERKLEY (W R) CORP	WRB	084423102	11544	6331	524126.0	P	01	LC	17743	544	1987-01-30	E	wrb-ph
14824	14824	CINCINNATI FINANCIAL CORP	CINF	172062101	20286	6331	524126.0	C	00X	LC	23473	912	1982-01-01	1982-01-28	cinf
14824	14824	CINCINNATI FINANCIAL CORP	CINF	172062101	20286	6331	524126.0	P	01	LC	23473	912	1982-01-29	E	cinf
14828	14828	OLD REPUBLIC INTL CORP	ORI	680223104	74260	6331	524126.0	P	01	LU	59396	3363	1980-01-31	E	ori
14828	14828	OLD REPUBLIC INTL CORP	ORI	680223104	74260	6331	524126.0	C	00X	LU	59396	3363	1980-01-01	1980-01-30	ori
14891	14891	MGP INGREDIENTS INC	MGPI	55303J106	835011	2085	312140.0	P	01	LC	12226	9977	1988-10-20	E	mgpi
14894	14894	VODAFONE GROUP PUBLIC LTD	VOD	92857W308	839923	4812	517112.0	P	90	LC	75418	21996	1988-10-27	E	vod
14894	14894	VODAFONE GROUP PUBLIC LTD	VOD	92857W308	839923	4812	517112.0	P	90	LC	75418	21996	1988-10-27	E	vodpf
14898	14898	3D SYSTEMS CORP	DDD	88554D205	910638	3559	333248.0	P	01	LU	78664	26127	1993-08-02	E	ddd
14934	14934	DEVON ENERGY CORP	DVN	25179M103	1090012	1311	2111.0	P	01	LC	75390	21971	1988-10-26	1999-08-17	dvn
14934	14934	DEVON ENERGY CORP	DVN	25179M103	1090012	1311	2111.0	P	01	LC	87137	35222	1999-08-18	E	dvn
14954	14954	LINDSAY CORP	LNN	535555106	836157	3523	333111.0	P	01	LU	12211	9971	1988-10-12	E	lnn
14960	14960	LABCORP HOLDINGS INC	LH	504922105	920148	8071	621511.0	P	01	LC	12062	9848	1988-07-07	E	lh
14983	14983	CHAMPIONS ONCOLOGY INC	CSBR	15870P307	771856	2836	325414.0	C	02	LC	12146	10020	2015-08-21	E	csbr
14983	14983	CHAMPIONS ONCOLOGY INC	CSBR	15870P307	771856	2836	325414.0	C	02	LC	12146	10020	1988-11-25	1994-06-23	csbr
15037	15037	GOLDCORP INC	GG	380956409	919239	1040	212221.0	J	03	LC	69905	20580	1994-05-04	2000-10-31	
15037	15037	GOLDCORP INC	GG	380956409	919239	1040	212221.0	P	01	LC	69892	20580	1994-04-29	2019-04-30	
15044	15044	WORKDAY INC	WDAY	98138H101	1327811	7370	518210.0	P	01	LC	13628	54213	2012-10-12	E	wday
15055	15055	CANADIAN NATURAL RESOURCES	CNQ	136385101	1017413	1311	2111.0	P	01	LC	88391	37900	2000-07-31	E	cnq
15060	15060	CALLON PETROLEUM CO/DE	CPE	13123X508	928022	1311	2111.0	C	01	LC	80926	13311	1995-01-31	2024-04-30	cpe
15060	15060	CALLON PETROLEUM CO/DE	CPE	13123X508	928022	1311	2111.0	C	01	LC	78691	28240	1989-01-12	1994-09-16	cpe
15070	15070	SUNCOR ENERGY INC	SU	867224107	311337	2911	324110.0	P	01	LU	80070	29139	1993-12-01	E	su
15087	15087	LIFEWAY FOODS INC	LWAY	531914109	814586	2020	311511.0	P	01	LU	12209	10059	1988-12-29	E	lway
15092	15092	CEC ENTERTAINMENT INC	9614B	12599M939	813920	5812	722511.0	P	01	LC	75432	10065	1989-01-03	2014-02-13	
15093	15093	CVR REFINING LP	CVRR	12663P107	1558785	2911	324110.0	P	01	LC	13740	54298	2013-01-17	2019-01-31	
15101	15101	MFA FINANCIAL INC	MFA	55272X607	1055160	6798	525990.0	P	01	LC	85935	34710	1998-04-13	E	mfa
15101	15101	MFA FINANCIAL INC	MFA	55272X607	1055160	6798	525990.0	P	01	LC	85935	34710	1998-04-13	E	mfa-pb
15101	15101	MFA FINANCIAL INC	MFA	55272X607	1055160	6798	525990.0	P	01	LC	85935	34710	1998-04-13	E	mfa-pc
15101	15101	MFA FINANCIAL INC	MFA	55272X607	1055160	6798	525990.0	P	01	LC	75377	21962	1988-12-01	1998-04-09	mfa
15101	15101	MFA FINANCIAL INC	MFA	55272X607	1055160	6798	525990.0	P	01	LC	75377	21962	1988-12-01	1998-04-09	mfa-pb
15101	15101	MFA FINANCIAL INC	MFA	55272X607	1055160	6798	525990.0	P	01	LC	75377	21962	1988-12-01	1998-04-09	mfa-pc
15111	15111	RPT REALTY	RPT.1	74971D101	842183	6798	531120.0	P	01	LC	75416	21995	1988-12-28	2024-01-31	rpt
15111	15111	RPT REALTY	RPT.1	74971D101	842183	6798	531120.0	P	01	LC	75416	21995	1988-12-28	2024-01-31	rpt-pd
15117	15117	TALLGRASS ENERGY PRT LP	TEP	874697105	1569134	4922	486210.0	P	01	LC	13915	54403	2013-05-14	2018-06-30	
15142	15142	ISTAR INC	STAR	45031U101	0	6798	531190.0	P	01	LC	75846	22124	1989-11-15	2023-03-30	
15153	15153	FEDERAL AGRICULTURE MTG CP	AGM	313148306	845877	6162	522292.0	J	03	LC	80169	28392	1994-01-27	1998-05-31	agm
15153	15153	FEDERAL AGRICULTURE MTG CP	AGM	313148306	845877	6162	522292.0	J	03	LC	80169	28392	1994-01-27	1998-05-31	agm-a
15153	15153	FEDERAL AGRICULTURE MTG CP	AGM	313148306	845877	6162	522292.0	J	03	LC	80169	28392	1994-01-27	1998-05-31	agm-pc
15153	15153	FEDERAL AGRICULTURE MTG CP	AGM	313148306	845877	6162	522292.0	J	03	LC	80169	28392	1994-01-27	1998-05-31	agm-pd
15153	15153	FEDERAL AGRICULTURE MTG CP	AGM	313148306	845877	6162	522292.0	J	03	LC	80169	28392	1994-01-27	1998-05-31	agm-pe
15153	15153	FEDERAL AGRICULTURE MTG CP	AGM	313148306	845877	6162	522292.0	J	03	LC	80169	28392	1994-01-27	1998-05-31	agm-pf
15153	15153	FEDERAL AGRICULTURE MTG CP	AGM	313148306	845877	6162	522292.0	J	03	LC	80169	28392	1994-01-27	1998-05-31	agm-pg
15153	15153	FEDERAL AGRICULTURE MTG CP	AGM	313148306	845877	6162	522292.0	J	01	LC	80168	28392	1998-06-01	E	agm
15153	15153	FEDERAL AGRICULTURE MTG CP	AGM	313148306	845877	6162	522292.0	J	01	LC	80168	28392	1998-06-01	E	agm-a
15153	15153	FEDERAL AGRICULTURE MTG CP	AGM	313148306	845877	6162	522292.0	J	01	LC	80168	28392	1998-06-01	E	agm-pc
15153	15153	FEDERAL AGRICULTURE MTG CP	AGM	313148306	845877	6162	522292.0	J	01	LC	80168	28392	1998-06-01	E	agm-pd
15153	15153	FEDERAL AGRICULTURE MTG CP	AGM	313148306	845877	6162	522292.0	J	01	LC	80168	28392	1998-06-01	E	agm-pe
15153	15153	FEDERAL AGRICULTURE MTG CP	AGM	313148306	845877	6162	522292.0	J	01	LC	80168	28392	1998-06-01	E	agm-pf
15153	15153	FEDERAL AGRICULTURE MTG CP	AGM	313148306	845877	6162	522292.0	J	01	LC	80168	28392	1998-06-01	E	agm-pg
15153	15153	FEDERAL AGRICULTURE MTG CP	AGM	313148306	845877	6162	522292.0	C	01	LC	80168	28392	1994-01-27	1998-05-31	agm
15153	15153	FEDERAL AGRICULTURE MTG CP	AGM	313148306	845877	6162	522292.0	C	01	LC	80168	28392	1994-01-27	1998-05-31	agm-a
15153	15153	FEDERAL AGRICULTURE MTG CP	AGM	313148306	845877	6162	522292.0	C	01	LC	80168	28392	1994-01-27	1998-05-31	agm-pc
15153	15153	FEDERAL AGRICULTURE MTG CP	AGM	313148306	845877	6162	522292.0	C	01	LC	80168	28392	1994-01-27	1998-05-31	agm-pd
15153	15153	FEDERAL AGRICULTURE MTG CP	AGM	313148306	845877	6162	522292.0	C	01	LC	80168	28392	1994-01-27	1998-05-31	agm-pe
15153	15153	FEDERAL AGRICULTURE MTG CP	AGM	313148306	845877	6162	522292.0	C	01	LC	80168	28392	1994-01-27	1998-05-31	agm-pf
15153	15153	FEDERAL AGRICULTURE MTG CP	AGM	313148306	845877	6162	522292.0	C	01	LC	80168	28392	1994-01-27	1998-05-31	agm-pg
15153	15153	FEDERAL AGRICULTURE MTG CP	AGM	313148306	845877	6162	522292.0	P	03	LC	80169	28392	1998-06-01	E	agm
15153	15153	FEDERAL AGRICULTURE MTG CP	AGM	313148306	845877	6162	522292.0	P	03	LC	80169	28392	1998-06-01	E	agm-a
15153	15153	FEDERAL AGRICULTURE MTG CP	AGM	313148306	845877	6162	522292.0	P	03	LC	80169	28392	1998-06-01	E	agm-pc
15153	15153	FEDERAL AGRICULTURE MTG CP	AGM	313148306	845877	6162	522292.0	P	03	LC	80169	28392	1998-06-01	E	agm-pd
15153	15153	FEDERAL AGRICULTURE MTG CP	AGM	313148306	845877	6162	522292.0	P	03	LC	80169	28392	1998-06-01	E	agm-pe
15153	15153	FEDERAL AGRICULTURE MTG CP	AGM	313148306	845877	6162	522292.0	P	03	LC	80169	28392	1998-06-01	E	agm-pf
15153	15153	FEDERAL AGRICULTURE MTG CP	AGM	313148306	845877	6162	522292.0	P	03	LC	80169	28392	1998-06-01	E	agm-pg
15172	15172	FIAT CHRYSLER AUTOMOBILES NV	FCAU	N31738102	0	3711	336111.0	P	07	LC	14987	55064	2014-10-13	2021-01-18	
15172	15172	FIAT CHRYSLER AUTOMOBILES NV	FCAU	N31738102	0	3711	336111.0	C	90	LC	75456	1720	1989-02-14	2007-08-22	
15181	15181	BANCO BILBAO VIZCAYA ARGENTA	BBVA	05946K101	842180	6020	522110.0	P	90	LC	75381	21963	1988-12-14	E	bbva
15181	15181	BANCO BILBAO VIZCAYA ARGENTA	BBVA	05946K101	842180	6020	522110.0	P	90	LC	75381	21963	1988-12-14	E	bbvxf
15197	15197	CHEMICAL FINANCIAL CORP	CHFC	163731102	814184	6020	522110.0	P	01	LC	11992	9882	1988-08-02	2019-07-31	
15208	15208	FEDERAL HOME LOAN MORTG CORP	FMCC	313400301	1026214	6111	522299.0	P	01	LC	75789	22096	1989-08-10	2010-07-07	fmcc
15208	15208	FEDERAL HOME LOAN MORTG CORP	FMCC	313400301	1026214	6111	522299.0	P	01	LC	75789	22096	1989-08-10	2010-07-07	fmcct
15208	15208	FEDERAL HOME LOAN MORTG CORP	FMCC	313400301	1026214	6111	522299.0	P	01	LC	75789	22096	1989-08-10	2010-07-07	fmckj
15208	15208	FEDERAL HOME LOAN MORTG CORP	FMCC	313400301	1026214	6111	522299.0	P	01	LC	75789	22096	1989-08-10	2010-07-07	fmckl
15208	15208	FEDERAL HOME LOAN MORTG CORP	FMCC	313400301	1026214	6111	522299.0	P	01	LC	75789	22096	1989-08-10	2010-07-07	fmcko
15208	15208	FEDERAL HOME LOAN MORTG CORP	FMCC	313400301	1026214	6111	522299.0	P	01	LC	75789	22096	1989-08-10	2010-07-07	fmckm
15208	15208	FEDERAL HOME LOAN MORTG CORP	FMCC	313400301	1026214	6111	522299.0	P	01	LC	75789	22096	1989-08-10	2010-07-07	fmckn
15208	15208	FEDERAL HOME LOAN MORTG CORP	FMCC	313400301	1026214	6111	522299.0	P	01	LC	75789	22096	1989-08-10	2010-07-07	fmccs
15208	15208	FEDERAL HOME LOAN MORTG CORP	FMCC	313400301	1026214	6111	522299.0	P	01	LC	75789	22096	1989-08-10	2010-07-07	fmcki
15208	15208	FEDERAL HOME LOAN MORTG CORP	FMCC	313400301	1026214	6111	522299.0	P	01	LC	75789	22096	1989-08-10	2010-07-07	fmccj
15208	15208	FEDERAL HOME LOAN MORTG CORP	FMCC	313400301	1026214	6111	522299.0	P	01	LC	75789	22096	1989-08-10	2010-07-07	fmcci
15208	15208	FEDERAL HOME LOAN MORTG CORP	FMCC	313400301	1026214	6111	522299.0	P	01	LC	75789	22096	1989-08-10	2010-07-07	fmccl
15208	15208	FEDERAL HOME LOAN MORTG CORP	FMCC	313400301	1026214	6111	522299.0	P	01	LC	75789	22096	1989-08-10	2010-07-07	fmccn
15208	15208	FEDERAL HOME LOAN MORTG CORP	FMCC	313400301	1026214	6111	522299.0	P	01	LC	75789	22096	1989-08-10	2010-07-07	fmcck
15208	15208	FEDERAL HOME LOAN MORTG CORP	FMCC	313400301	1026214	6111	522299.0	P	01	LC	75789	22096	1989-08-10	2010-07-07	fmcco
15208	15208	FEDERAL HOME LOAN MORTG CORP	FMCC	313400301	1026214	6111	522299.0	P	01	LC	75789	22096	1989-08-10	2010-07-07	fmcch
15208	15208	FEDERAL HOME LOAN MORTG CORP	FMCC	313400301	1026214	6111	522299.0	P	01	LC	75789	22096	1989-08-10	2010-07-07	fmccg
15208	15208	FEDERAL HOME LOAN MORTG CORP	FMCC	313400301	1026214	6111	522299.0	P	01	LC	75789	22096	1989-08-10	2010-07-07	fmccm
15208	15208	FEDERAL HOME LOAN MORTG CORP	FMCC	313400301	1026214	6111	522299.0	P	01	LC	75789	22096	1989-08-10	2010-07-07	fmccp
15208	15208	FEDERAL HOME LOAN MORTG CORP	FMCC	313400301	1026214	6111	522299.0	P	01	LC	75789	22096	1989-08-10	2010-07-07	fmckp
15208	15208	FEDERAL HOME LOAN MORTG CORP	FMCC	313400301	1026214	6111	522299.0	P	01	LC	75789	22096	1989-08-10	2010-07-07	fregp
15208	15208	FEDERAL HOME LOAN MORTG CORP	FMCC	313400301	1026214	6111	522299.0	P	01	LC	75789	22096	1989-08-10	2010-07-07	frejn
15208	15208	FEDERAL HOME LOAN MORTG CORP	FMCC	313400301	1026214	6111	522299.0	P	01	LC	75789	22096	1989-08-10	2010-07-07	frejp
15208	15208	FEDERAL HOME LOAN MORTG CORP	FMCC	313400301	1026214	6111	522299.0	P	01	LC	75789	22096	1989-08-10	2010-07-07	fmckk
15212	15212	CROSSAMERICA PARTNERS LP	CAPL	22758A105	1538849	5172	424720.0	P	01	LC	13615	54202	2012-10-25	E	capl
15215	15215	OVASCIENCE INC	OVAS	69014Q101	0	2836	325414.0	P	01	LC	13883	54381	2013-04-30	2018-12-09	
15240	15240	WESTWATER RESOURCES INC	WWR	961684206	839470	3620	335991.0	P	02	LC	75672	10070	2007-04-12	E	wwr
15240	15240	WESTWATER RESOURCES INC	WWR	961684206	839470	3620	335991.0	P	02	LC	75672	10070	1989-01-06	1999-03-23	wwr
15247	15247	VALERO ENERGY CORP	VLO	91913Y100	1035002	2911	324110.0	P	01	LC	85269	32066	1997-08-12	E	vlo
15247	15247	VALERO ENERGY CORP	VLO	91913Y100	1035002	2911	324110.0	P	01	LC	61671	21855	1980-01-02	1997-07-31	vlo
15252	15252	TRIMAS CORP	TRS	896215209	842633	3460	332119.0	P	03	LC	92029	10110	2007-05-18	E	trs
15252	15252	TRIMAS CORP	TRS	896215209	842633	3460	332119.0	P	01	LC	75449	10110	1989-02-14	1998-01-16	trs
15267	15267	IDEX CORP	IEX	45167R104	832101	3561	333914.0	P	01	LU	75591	22075	1989-06-02	E	iex
15319	15319	REPSOL SA	REPYY	76026T205	901576	2911	324110.0	P	90	LC	75632	22044	1989-05-11	2011-03-04	
15321	15321	ENDESA SA	ELEZY	29258N206	1046649	4911	22111.0	P	90	LC	75290	20648	1988-06-01	2007-12-06	
15334	15334	AKZO NOBEL NV	AKZOY	010199503	3124	2851	325510.0	P	90	LC	75633	10177	1989-05-08	2007-08-24	
15337	15337	EMMIS CORP	EMMS	291525400	783005	4832	515112.0	P	01	LC	80297	28344	1994-02-23	2020-05-13	emms
15362	15362	WESTPAC BANKING CORP	WEBNF	Q97417101	719245	6020	522110.0	P	90	LC	75466	22027	1989-03-17	2021-12-31	webnf
15362	15362	WESTPAC BANKING CORP	WEBNF	Q97417101	719245	6020	522110.0	C	90	LC	75466	22027	2022-01-01	2022-01-28	webnf
15363	15363	TCF FINANCIAL CORP	TCF	872307103	19612	6020	522110.0	P	01	LC	10375	8292	1986-06-17	2019-07-31	
15363	15363	TCF FINANCIAL CORP	TCF	872307103	19612	6020	522110.0	P	01	LC	11992	9882	2019-08-01	2021-06-30	
15364	15364	ARGO GROUP INTL HOLDINGS LTD	ARGO	G0464B107	1091748	6351	524126.0	P	01	LC	10843	8727	1986-11-13	2007-08-06	argo
15364	15364	ARGO GROUP INTL HOLDINGS LTD	ARGO	G0464B107	1091748	6351	524126.0	P	01	LC	10843	8727	1986-11-13	2007-08-06	argo-pa
15364	15364	ARGO GROUP INTL HOLDINGS LTD	ARGO	G0464B107	1091748	6351	524126.0	P	01	LC	10843	8727	1986-11-13	2007-08-06	argd
15364	15364	ARGO GROUP INTL HOLDINGS LTD	ARGO	G0464B107	1091748	6351	524126.0	P	01	LC	11203	9053	2007-08-07	2023-11-30	argo
15364	15364	ARGO GROUP INTL HOLDINGS LTD	ARGO	G0464B107	1091748	6351	524126.0	P	01	LC	11203	9053	2007-08-07	2023-11-30	argo-pa
15364	15364	ARGO GROUP INTL HOLDINGS LTD	ARGO	G0464B107	1091748	6351	524126.0	P	01	LC	11203	9053	2007-08-07	2023-11-30	argd
15396	15396	SUNCOKE ENERGY PARTNERS LP	SXCP	86722Y101	1555538	3312	324199.0	P	01	LC	13747	54302	2013-01-18	2019-06-28	
15414	15414	BIO-TECHNE CORP	TECH	09073M104	842023	2836	325414.0	P	01	LC	75694	10107	1989-02-09	E	tech
15417	15417	BROWN & BROWN INC	BRO	115236101	79282	6411	524210.0	P	01	LU	63467	3624	1984-01-31	E	bro
15417	15417	BROWN & BROWN INC	BRO	115236101	79282	6411	524210.0	C	00X	LU	63467	3624	1984-01-01	1984-01-30	bro
15420	15420	AMBARELLA INC	AMBA	G037AX101	1280263	3674	334413.0	P	01	LC	13634	54217	2012-10-10	E	amba
15444	15444	CRH PLC	CRH	G25508105	849395	3241	327310.0	P	90	LC	75650	10241	1989-07-10	2023-08-31	crh
15444	15444	CRH PLC	CRH	G25508105	849395	3241	327310.0	P	90	LC	75650	10241	1989-07-10	2023-08-31	crhcf
15444	15444	CRH PLC	CRH	G25508105	849395	3241	327310.0	P	01	LC	24294	10241	2023-09-25	E	crh
15444	15444	CRH PLC	CRH	G25508105	849395	3241	327310.0	P	01	LC	24294	10241	2023-09-25	E	crhcf
15444	15444	CRH PLC	CRH	G25508105	849395	3241	327310.0	J	90	LC	75650	10241	2023-09-01	2023-09-22	crh
15444	15444	CRH PLC	CRH	G25508105	849395	3241	327310.0	J	90	LC	75650	10241	2023-09-01	2023-09-22	crhcf
15505	15505	AIB GROUP PLC	AIBYY	019228808	1728918	6020	522110.0	C	90	LC	76493	28692	1990-11-28	2011-08-25	
15508	15508	ANGLO AMERICAN PLC	NGLOY	03485P300	801973	1000	212.0	P	90	LC	14382	277	1983-12-01	2009-07-31	
15508	15508	ANGLO AMERICAN PLC	NGLOY	03485P300	801973	1000	212.0	C	90	LC	14382	277	1982-01-29	1983-11-30	
15509	15509	HSBC HLDGS PLC	HSBC	404280406	1089113	6020	522110.0	C	90	LC	87033	35175	1999-07-16	E	hsbc
15509	15509	HSBC HLDGS PLC	HSBC	404280406	1089113	6020	522110.0	C	90	LC	87033	35175	1999-07-16	E	hbcyf
15520	15520	SIGNET JEWELERS LTD	SIG	G81276100	832988	5944	458310.0	P	01	LC	12076	9857	2008-09-11	E	sig
15520	15520	SIGNET JEWELERS LTD	SIG	G81276100	832988	5944	458310.0	P	01	LC	19662	9857	1988-07-13	2008-09-10	sig
15539	15539	PARATEK PHARMACEUTCLS INC	PRTK	699374302	1178711	2834	325412.0	P	01	LC	91279	50732	2014-10-31	2023-09-29	prtk
15543	15543	SRAX INC	SRAX	78472M106	1538217	7370	518210.0	P	01	LC	16399	55759	2016-10-13	E	srax
15545	15545	AVIVA PLC	AVVIY	05382A302	1140022	6311	524113.0	P	90	LC	93053	53229	2009-10-20	2016-12-22	
15576	15576	DEUTSCHE BANK AG	DB	D18190898	1159508	6020	522110.0	P	01	LC	89199	42291	2001-10-03	E	db
15576	15576	DEUTSCHE BANK AG	DB	D18190898	1159508	6020	522110.0	P	01	LC	89199	42291	2001-10-03	E	dgp
15576	15576	DEUTSCHE BANK AG	DB	D18190898	1159508	6020	522110.0	P	01	LC	89199	42291	2001-10-03	E	dgz
15576	15576	DEUTSCHE BANK AG	DB	D18190898	1159508	6020	522110.0	P	01	LC	89199	42291	2001-10-03	E	dzz
15580	15580	BANK OF MONTREAL	BMO	063671101	927971	6020	522110.0	C	01	LC	81284	29146	1998-02-27	E	bmo
15580	15580	BANK OF MONTREAL	BMO	063671101	927971	6020	522110.0	C	01	LC	81284	29146	1998-02-27	E	fngd
15580	15580	BANK OF MONTREAL	BMO	063671101	927971	6020	522110.0	C	01	LC	81284	29146	1998-02-27	E	bulz
15580	15580	BANK OF MONTREAL	BMO	063671101	927971	6020	522110.0	C	01	LC	81284	29146	1998-02-27	E	bnku
15580	15580	BANK OF MONTREAL	BMO	063671101	927971	6020	522110.0	C	01	LC	81284	29146	1998-02-27	E	bnkd
15580	15580	BANK OF MONTREAL	BMO	063671101	927971	6020	522110.0	C	01	LC	81284	29146	1998-02-27	E	berz
15580	15580	BANK OF MONTREAL	BMO	063671101	927971	6020	522110.0	C	01	LC	81284	29146	1998-02-27	E	gdxd
15580	15580	BANK OF MONTREAL	BMO	063671101	927971	6020	522110.0	C	01	LC	81284	29146	1998-02-27	E	gdxu
15580	15580	BANK OF MONTREAL	BMO	063671101	927971	6020	522110.0	C	01	LC	81284	29146	1998-02-27	E	fngo
15580	15580	BANK OF MONTREAL	BMO	063671101	927971	6020	522110.0	C	01	LC	81284	29146	1998-02-27	E	fngs
15580	15580	BANK OF MONTREAL	BMO	063671101	927971	6020	522110.0	C	01	LC	81284	29146	1998-02-27	E	fngu
15580	15580	BANK OF MONTREAL	BMO	063671101	927971	6020	522110.0	C	01	LC	81284	29146	1998-02-27	E	flyd
15580	15580	BANK OF MONTREAL	BMO	063671101	927971	6020	522110.0	C	01	LC	81284	29146	1998-02-27	E	flyu
15580	15580	BANK OF MONTREAL	BMO	063671101	927971	6020	522110.0	C	01	LC	81284	29146	1998-02-27	E	nrgd
15580	15580	BANK OF MONTREAL	BMO	063671101	927971	6020	522110.0	C	01	LC	81284	29146	1998-02-27	E	nrgu
15580	15580	BANK OF MONTREAL	BMO	063671101	927971	6020	522110.0	C	01	LC	81284	29146	1998-02-27	E	oild
15580	15580	BANK OF MONTREAL	BMO	063671101	927971	6020	522110.0	C	01	LC	81284	29146	1998-02-27	E	oilu
15581	15581	CANADIAN IMPERIAL BANK	CM	136069101	1045520	6020	522110.0	P	01	LC	85636	29148	1998-03-31	E	cm
15582	15582	BANK OF NOVA SCOTIA	BNS	064149107	9631	6020	522110.0	P	01	LC	89428	43264	2002-09-30	E	bns
15598	15598	AEGON LTD	AEG	0076CA104	769218	6311	524113.0	P	90	LC	85172	7622	1985-06-28	E	aeg
15598	15598	AEGON LTD	AEG	0076CA104	769218	6311	524113.0	P	90	LC	85172	7622	1985-06-28	E	aegof
15598	15598	AEGON LTD	AEG	0076CA104	769218	6311	524113.0	P	90	LC	85172	7622	1985-06-28	E	aefc
15613	15613	NOMURA HOLDINGS INC	NMR	65535H208	1163653	6211	523150.0	P	91	LC	89256	42522	2001-12-20	E	nmr
15613	15613	NOMURA HOLDINGS INC	NMR	65535H208	1163653	6211	523150.0	P	91	LC	89256	42522	2001-12-20	E	nrscf
15617	15617	ING GROEP NV	ING	456837103	1039765	6199	522110.0	P	90	LU	85081	32020	1997-06-13	E	ing
15617	15617	ING GROEP NV	ING	456837103	1039765	6199	522110.0	P	90	LU	85081	32020	1997-06-13	E	ingvf
15633	15633	ROYAL BANK OF CANADA	RY	780087102	1000275	6020	522110.0	P	01	LC	82654	29151	1995-10-16	E	ry
15633	15633	ROYAL BANK OF CANADA	RY	780087102	1000275	6020	522110.0	P	01	LC	82654	29151	1995-10-16	E	ry-pt
15634	15634	NATWEST GROUP PLC	NWG	639057207	844150	6020	522110.0	P	99	LC	92355	28711	2007-12-01	E	nwg
15634	15634	NATWEST GROUP PLC	NWG	639057207	844150	6020	522110.0	P	99	LC	92355	28711	2007-12-01	E	rbspf
15634	15634	NATWEST GROUP PLC	NWG	639057207	844150	6020	522110.0	P	99	LC	92355	28711	2007-12-01	E	rbspd
15634	15634	NATWEST GROUP PLC	NWG	639057207	844150	6020	522110.0	N	99	LC	92355	28711	2007-10-18	2007-11-30	nwg
15634	15634	NATWEST GROUP PLC	NWG	639057207	844150	6020	522110.0	N	99	LC	92355	28711	2007-10-18	2007-11-30	rbspf
15634	15634	NATWEST GROUP PLC	NWG	639057207	844150	6020	522110.0	N	99	LC	92355	28711	2007-10-18	2007-11-30	rbspd
15659	15659	TOKIO MARINE HOLDINGS INC	TKOMY	889094108	1169486	6331	524126.0	P	90	LC	76428	4466	1982-01-29	2007-07-25	
15664	15664	RSA INSURANCE GROUP PLC	RSNAY	74971A206	1126313	6331	524126.0	C	02	LC	88674	40153	2000-10-24	2006-10-27	
15668	15668	ORIX CORP	IX	686330101	1070304	6172	522220.0	P	90	LU	86349	34869	1998-09-16	E	ix
15668	15668	ORIX CORP	IX	686330101	1070304	6172	522220.0	P	90	LU	86349	34869	1998-09-16	E	orxcf
15704	15704	THOMSON-REUTERS CORP	TRI	884903808	1075124	7370	519290.0	P	01	LC	89444	28754	2002-06-12	E	tri
15706	15706	TORONTO DOMINION BANK	TD	891160509	947263	6020	522110.0	P	01	LC	83835	29152	1996-08-30	E	td
15724	15724	ALLIANZ SE	ALIZY	018820100	1796335	6331	524126.0	P	90	LC	88815	41003	2000-11-03	2009-10-23	
15782	15782	PRUDENTIAL PLC	PUK	74435K204	1116578	6311	524113.0	C	90	LC	88310	37675	2000-06-28	E	puk
15782	15782	PRUDENTIAL PLC	PUK	74435K204	1116578	6311	524113.0	C	90	LC	88310	37675	2000-06-28	E	pukpf
15824	15824	HERITAGE GLOBAL INC	HGBL	42727E103	849145	6799	523999.0	C	01	LC	78988	10238	2020-08-31	E	hgbl
15824	15824	HERITAGE GLOBAL INC	HGBL	42727E103	849145	6799	523999.0	C	01	LC	78988	10238	1993-03-23	2001-09-30	hgbl
15824	15824	HERITAGE GLOBAL INC	HGBL	42727E103	849145	6799	523999.0	C	01	LC	75955	10238	1989-07-07	1991-10-03	hgbl
15855	15855	GEN DIGITAL INC	GEN	668771108	849399	7372	513210.0	P	01	LC	75607	10224	1989-06-23	E	nlok
15889	15889	ANZ GROUP HOLDINGS LIMITED	ANZGY	03736N104	1947559	6020	522110.0	P	90	LC	81120	29798	1994-12-06	2007-07-11	
15929	15929	LLOYDS BANKING GROUP PLC	LYG	539439109	1160106	6020	522110.0	P	90	LC	89238	42417	2001-11-27	E	lyg
15929	15929	LLOYDS BANKING GROUP PLC	LYG	539439109	1160106	6020	522110.0	P	90	LC	89238	42417	2001-11-27	E	lldtf
16009	16009	SPORTSMANS WAREHOUSE HLDGS	SPWH	84920Y106	1132105	5940	459110.0	P	01	LC	14609	54831	2014-04-17	E	spwh
16011	16011	JOYY INC	JOYY	46591M109	1530238	7370	519130.0	P	90	LC	13701	54274	2012-11-21	E	yy
16015	16015	QUEST RESOURCE HOLDING CORP	QRHC	74836W203	1442236	4950	562.0	P	01	LC	14663	54866	2014-05-19	E	qrhc
16058	16058	SCORE MEDIA AND GAMING INC	SCR	80919D202	1787134	7812	512110.0	N	01	LC	20625	57975	2021-02-25	2021-10-29	
16066	16066	MONROE CAPITAL CORP	MRCC	610335101	1512931	6797	523910.0	P	01	LC	13650	54231	2012-10-25	E	mrcc
16101	16101	ABBVIE INC	ABBV	00287Y109	1551152	2836	325414.0	P	01	LC	13721	54287	2013-01-02	E	abbv
16113	16113	ARTISAN PARTNERS ASSET MGMT	APAM	04316A108	1517302	6282	523940.0	P	01	LC	13802	54336	2013-03-07	E	apam
16116	16116	CYRUSONE INC	CONE	23283R100	1553023	6798	531120.0	P	01	LC	13752	54307	2013-01-18	2022-03-31	
16125	16125	GLOBAL MEDICAL REIT	GMRE	37954A204	1533615	6798	531120.0	P	01	LC	16136	55599	2016-06-29	E	gmre
16125	16125	GLOBAL MEDICAL REIT	GMRE	37954A204	1533615	6798	531120.0	P	01	LC	16136	55599	2016-06-29	E	gmre-pa
16149	16149	OFS CAPITAL CORP	OFS	67103B100	1487918	6797	523910.0	P	01	LC	13698	54271	2012-11-08	E	ofs
16149	16149	OFS CAPITAL CORP	OFS	67103B100	1487918	6797	523910.0	P	01	LC	13698	54271	2012-11-08	E	ofssh
16150	16150	STELLUS CAPITAL INVESTMENT	SCM	858568108	1551901	6797	523910.0	P	01	LC	13692	54268	2012-11-08	E	scm
16188	16188	COGNEX CORP	CGNX	192422103	851205	3823	334513.0	P	01	LU	75654	10256	1989-07-20	E	cgnx
16225	16225	WESTERN MIDSTRM PRTNRS LP	WES	958669103	1423902	4922	486210.0	P	01	LC	13738	54296	2012-12-07	E	wes
16245	16245	PEOPLE'S UNITED FINL INC	PBCT	712704105	1378946	6020	522110.0	P	01	LC	12073	9847	1988-07-06	2022-04-29	
16269	16269	ENANTA PHARMACEUTICALS INC	ENTA	29251M106	1177648	2836	325414.0	P	01	LC	13825	54351	2013-03-21	E	enta
16384	16384	VOYA FINANCIAL INC	VOYA	929089100	1535929	6311	524113.0	P	01	LC	13904	54396	2013-05-02	E	voya
16384	16384	VOYA FINANCIAL INC	VOYA	929089100	1535929	6311	524113.0	P	01	LC	13904	54396	2013-05-02	E	voya-pb
16401	16401	CIRRUS LOGIC INC	CRUS	172755100	772406	3674	334413.0	P	01	LU	75603	10210	1989-06-09	E	crus
16403	16403	STOLT NIELSEN LTD	SNSAY	861565109	1458660	4412	483111.0	P	91	LC	82752	28860	1996-01-02	2007-05-21	
16428	16428	FAIRFAX FINANCIAL HOLDINGS	FRFHF	303901102	915191	6331	524126.0	P	01	LC	89627	43793	2002-12-18	2009-12-09	frfhf
16428	16428	FAIRFAX FINANCIAL HOLDINGS	FRFHF	303901102	915191	6331	524126.0	P	01	LC	89627	43793	2002-12-18	2009-12-09	fxflf
16428	16428	FAIRFAX FINANCIAL HOLDINGS	FRFHF	303901102	915191	6331	524126.0	P	01	LC	89627	43793	2002-12-18	2009-12-09	frfff
16428	16428	FAIRFAX FINANCIAL HOLDINGS	FRFHF	303901102	915191	6331	524126.0	P	01	LC	89627	43793	2002-12-18	2009-12-09	frfzf
16453	16453	NEOGEN CORP	NEOG	640491106	711377	2834	325412.0	P	01	LU	75976	10288	1989-08-23	E	neog
16456	16456	HANGER INC	HNGR	41043F208	722723	8093	621498.0	P	02	LC	10051	7999	2018-09-12	2022-10-31	hngr
16456	16456	HANGER INC	HNGR	41043F208	722723	8093	621498.0	P	02	LC	10051	7999	1989-08-14	2016-02-28	hngr
16456	16456	HANGER INC	HNGR	41043F208	722723	8093	621498.0	C	00X	LC	10051	7999	1989-04-29	1989-08-13	hngr
16476	16476	LEVI STRAUSS & CO	LEVI	52736R102	94845	2300	315.0	P	01	LC	52564	25260	1971-05-24	1985-08-30	levi
16476	16476	LEVI STRAUSS & CO	LEVI	52736R102	94845	2300	315.0	P	03	LC	18424	25260	2019-03-21	E	levi
16477	16477	LEAR CORP	LEA	521865204	842162	2531	336360.0	P	03	LC	93101	30388	2009-11-20	E	lea
16477	16477	LEAR CORP	LEA	521865204	842162	2531	336360.0	P	01	LC	80422	30388	1994-04-07	2009-07-01	lea
16478	16478	EOG RESOURCES INC	EOG	26875P101	821189	1311	2111.0	P	01	LU	75825	22113	1989-10-04	E	eog
16486	16486	BOISE CASCADE CO	BCC	09739D100	1328581	5031	423310.0	P	01	LC	13766	54318	2013-02-06	E	bcc
16531	16531	ZIX CORP	ZIXI	98974P100	855612	7370	518210.0	P	01	LU	75853	10358	1989-11-09	2021-12-31	
16549	16549	SERVISFIRST BANCSHARES INC	SFBS	81768T108	1430723	6020	522110.0	P	01	LC	14670	54870	2014-05-14	E	sfbs
16560	16560	ALUMINA LTD	AWCMY	022205108	857071	3330	3313.0	P	90	LU	75941	22152	1990-01-02	2024-08-30	
16582	16582	NUTRIEN LTD	NTR	67077M108	1725964	2870	325311.0	P	01	LC	75844	22122	1989-11-02	E	ntr
16597	16597	LATTICE SEMICONDUCTOR CORP	LSCC	518415104	855658	3674	334413.0	P	01	LU	75854	10359	1989-11-09	E	lscc
16608	16608	WHITEHORSE FINANCE INC	WHF	96524V106	1552198	6797	523910.0	P	01	LC	13714	54286	2012-12-05	E	whf
16641	16641	GREYSTONE HSG IMPT INVTS LP	GHI	02364V206	1059142	6799	523999.0	P	01	LC	92726	30985	2008-07-01	E	atax
16648	16648	ADVANCED DISPOSAL SERVICES	ADSW	00790X101	1585790	4953	562111.0	P	01	LC	16435	55776	2016-10-06	2020-10-30	
16653	16653	TAYLOR MORRISON HOME CORP	TMHC	87724P106	1562476	1531	236117.0	P	01	LC	13862	54368	2013-04-10	E	tmhc
16689	16689	NORTHEAST BANK	NBN	66405S100	811831	6020	522110.0	P	01	LU	75556	9438	1987-08-19	E	
16698	16698	BRYN MAWR BANK CORP	BMTC	117665109	802681	6020	522110.0	P	01	LU	86124	7676	1985-08-02	2022-01-31	
16700	16700	FRONT YARD RESIDENTIAL CORP	RESI.1	35904G107	1555039	6798	531110.0	P	01	LC	13723	54288	2012-12-24	2021-01-29	resi
16705	16705	CENTRAL PACIFIC FINANCIAL CP	CPF	154760409	701347	6020	522110.0	C	01	LC	11628	9449	1987-08-24	E	cpf
16710	16710	DIGI INTERNATIONAL INC	DGII	253798102	854775	3576	334210.0	P	01	LU	75831	10323	1989-10-05	E	dgii
16714	16714	DONEGAL GROUP INC	DGICA	257701201	800457	6331	524126.0	P	02	LC	88963	8686	2004-06-01	E	dgica
16714	16714	DONEGAL GROUP INC	DGICA	257701201	800457	6331	524126.0	P	02	LC	88963	8686	2004-06-01	E	dgicb
16714	16714	DONEGAL GROUP INC	DGICA	257701201	800457	6331	524126.0	J	02	LC	88963	8686	2001-04-20	2004-05-31	dgica
16714	16714	DONEGAL GROUP INC	DGICA	257701201	800457	6331	524126.0	J	02	LC	88963	8686	2001-04-20	2004-05-31	dgicb
16714	16714	DONEGAL GROUP INC	DGICA	257701201	800457	6331	524126.0	J	01	LC	11748	8686	2004-06-01	E	dgica
16714	16714	DONEGAL GROUP INC	DGICA	257701201	800457	6331	524126.0	J	01	LC	11748	8686	2004-06-01	E	dgicb
16714	16714	DONEGAL GROUP INC	DGICA	257701201	800457	6331	524126.0	P	01	LC	11748	8686	1986-10-29	2004-05-31	dgica
16714	16714	DONEGAL GROUP INC	DGICA	257701201	800457	6331	524126.0	P	01	LC	11748	8686	1986-10-29	2004-05-31	dgicb
16716	16716	EMC INSURANCE GROUP INC	EMCI	268664109	356130	6331	524126.0	P	01	LU	31238	5300	1982-02-04	2019-09-30	
16719	16719	HARVARD APPARATUS REGE T INC	HRGN	09074M202	1563665	2836	325414.0	P	01	LC	14253	54611	2013-11-04	2017-10-05	bstg
16721	16721	ELECTRONIC ARTS INC	EA	285512109	712515	7372	513210.0	P	01	LU	75828	10303	1989-09-20	E	ea
16738	16738	HOUGHTON MIFFLIN HARCOURT CO	HMHC	44157R109	1580156	2731	511130.0	P	01	LC	14312	54653	2013-11-14	2022-04-29	
16745	16745	PROTHENA CORPORATION PLC	PRTA	G72800108	1559053	2836	325414.0	P	01	LC	13706	54280	2012-12-21	E	prta
16790	16790	COMMUNITY FINANCIAL SYST INC	CBU	203607106	723188	6020	522110.0	P	01	LU	86896	7871	1985-11-22	E	cbu
16821	16821	FIRST BANCORP P R	FBP	318672706	1057706	6020	522110.0	P	01	LC	11018	8889	1987-01-13	E	fbp
16832	16832	GLACIER BANCORP INC	GBCI	37637Q105	868671	6020	522110.0	P	01	LC	87952	6944	1984-03-22	E	gbci
16845	16845	FIRST MERCHANTS CORP	FRME	320817109	712534	6020	522110.0	P	01	LU	75605	10218	1989-06-20	E	frme
16845	16845	FIRST MERCHANTS CORP	FRME	320817109	712534	6020	522110.0	P	01	LU	75605	10218	1989-06-20	E	frmep
16848	16848	TRAVERE THERAPEUTICS INC	TVTX	89422G107	1438533	2836	325414.0	P	01	LC	14440	54724	2014-01-10	E	tvtx
16884	16884	LUMENT FINANCE TRUST INC	LFT	55025L108	1547546	6798	525990.0	P	01	LC	13809	54342	2013-03-22	E	lft
16884	16884	LUMENT FINANCE TRUST INC	LFT	55025L108	1547546	6798	525990.0	P	01	LC	13809	54342	2013-03-22	E	lft-pa
16886	16886	BENEFYTT TECHNOLOGIES INC	BFYT	08182C106	1561387	6411	524210.0	P	01	LC	13794	54330	2013-02-08	2020-08-31	
16889	16889	INDEPENDENT BANK CORP/MA	INDB	453836108	776901	6020	522110.0	P	01	LU	10252	8179	1986-05-14	E	indb
16890	16890	INDEPENDENT BANK CORP/MI	IBCP	453838609	39311	6020	522110.0	P	01	LC	88912	7720	1985-09-04	E	ibcp
16981	16981	OFG BANCORP	OFG	67103X102	1030469	6020	522110.0	C	01	LU	11208	9058	1990-01-31	E	ofg
17001	17001	FUBOTV INC	FUBO	35953D104	1484769	7370	518210.0	P	01	LC	19893	57384	2020-10-08	E	fubo
17010	17010	LIBERTY MEDIA SIRIUSXM GROUP	LSXMK	531229789	0	4832	516110.0	P	03	LC	16000	54311	2018-01-01	2024-09-10	
17010	17010	LIBERTY MEDIA SIRIUSXM GROUP	LSXMK	531229789	0	4832	516110.0	J	02	LC	15999	54311	2016-04-18	2024-09-10	
17010	17010	LIBERTY MEDIA SIRIUSXM GROUP	LSXMK	531229789	0	4832	516110.0	J	01	LC	15998	54311	2018-01-01	2024-09-10	
17010	17010	LIBERTY MEDIA SIRIUSXM GROUP	LSXMK	531229789	0	4832	516110.0	P	01	LC	15998	54311	2016-04-18	2017-12-31	
17010	17010	LIBERTY MEDIA SIRIUSXM GROUP	LSXMK	531229789	0	4832	516110.0	J	03	LC	14811	54311	2014-07-24	2016-04-17	
17010	17010	LIBERTY MEDIA SIRIUSXM GROUP	LSXMK	531229789	0	4832	516110.0	J	02	LC	13758	54311	2013-01-14	2016-04-17	
17010	17010	LIBERTY MEDIA SIRIUSXM GROUP	LSXMK	531229789	0	4832	516110.0	P	01	LC	13757	54311	2013-01-14	2016-04-17	
17010	17010	LIBERTY MEDIA SIRIUSXM GROUP	LSXMK	531229789	0	4832	516110.0	J	03	LC	16000	54311	2016-04-18	2017-12-31	
17012	17012	EXONE CO	XONE.1	302104104	1561627	3550	3332.0	P	01	LC	13799	54334	2013-02-07	2021-11-30	xone
17035	17035	MERCURY GENERAL CORP	MCY	589400100	64996	6331	524126.0	P	01	LC	52936	7863	1988-01-29	E	mcy
17035	17035	MERCURY GENERAL CORP	MCY	589400100	64996	6331	524126.0	C	00X	LC	52936	7863	1988-01-01	1988-01-28	mcy
17074	17074	NAVIGATORS GROUP INC	NAVG	638904102	793547	6331	524126.0	P	01	LU	10395	8314	1986-06-19	2019-05-31	
17095	17095	OLD NATIONAL BANCORP	ONB	680033107	707179	6020	522110.0	P	01	LU	12068	7067	1987-01-30	E	onb
17095	17095	OLD NATIONAL BANCORP	ONB	680033107	707179	6020	522110.0	P	01	LU	12068	7067	1987-01-30	E	onbpo
17095	17095	OLD NATIONAL BANCORP	ONB	680033107	707179	6020	522110.0	P	01	LU	12068	7067	1987-01-30	E	onbpp
17095	17095	OLD NATIONAL BANCORP	ONB	680033107	707179	6020	522110.0	C	00X	LU	12068	7067	1987-01-01	1987-01-29	onb
17095	17095	OLD NATIONAL BANCORP	ONB	680033107	707179	6020	522110.0	C	00X	LU	12068	7067	1987-01-01	1987-01-29	onbpo
17095	17095	OLD NATIONAL BANCORP	ONB	680033107	707179	6020	522110.0	C	00X	LU	12068	7067	1987-01-01	1987-01-29	onbpp
17101	17101	IMMUNOGEN INC	IMGN	45253H101	855654	2836	325414.0	P	01	LU	75860	10380	1989-11-17	2024-02-29	imgn
17106	17106	PEOPLES BANCORP INC/OH	PEBO	709789101	318300	6020	522110.0	P	01	LU	78903	11950	1993-02-10	E	pebo
17115	17115	SELECTIVE INS GROUP INC	SIGI	816300107	230557	6331	524126.0	C	01	LU	68292	4234	1987-01-30	E	sigi
17115	17115	SELECTIVE INS GROUP INC	SIGI	816300107	230557	6331	524126.0	C	01	LU	68292	4234	1987-01-30	E	sigip
17115	17115	SELECTIVE INS GROUP INC	SIGI	816300107	230557	6331	524126.0	C	00X	LU	68292	4234	1987-01-01	1987-01-29	sigi
17115	17115	SELECTIVE INS GROUP INC	SIGI	816300107	230557	6331	524126.0	C	00X	LU	68292	4234	1987-01-01	1987-01-29	sigip
17120	17120	SVB FINANCIAL GROUP	SIVBQ	78486Q101	719739	6020	522110.0	P	01	LC	11786	9588	1987-10-23	2024-11-07	sivb
17120	17120	SVB FINANCIAL GROUP	SIVBQ	78486Q101	719739	6020	522110.0	P	01	LC	11786	9588	1987-10-23	2024-11-07	sivbp
17132	17132	WSFS FINANCIAL CORP	WSFS	929328102	828944	6035	522180.0	P	01	LU	10892	8766	1986-11-26	E	wsfs
17150	17150	WEBSTER FINANCIAL CORP	WBS	947890109	801337	6020	522110.0	P	01	LC	10932	8810	1986-12-12	E	wbs
17150	17150	WEBSTER FINANCIAL CORP	WBS	947890109	801337	6020	522110.0	P	01	LC	10932	8810	1986-12-12	E	wbs-pf
17150	17150	WEBSTER FINANCIAL CORP	WBS	947890109	801337	6020	522110.0	P	01	LC	10932	8810	1986-12-12	E	wbs-pg
17151	17151	WESBANCO INC	WSBC	950810101	203596	6020	522110.0	P	01	LU	11293	9147	1987-05-04	E	wsbc
17151	17151	WESBANCO INC	WSBC	950810101	203596	6020	522110.0	P	01	LU	11293	9147	1987-05-04	E	wsbcp
17184	17184	SEACOAST BANKING CORP/FL	SBCF	811707801	730708	6020	522110.0	P	01	LC	69586	6827	1984-02-02	E	sbcf
17185	17185	22ND CENTURY GROUP INC	XXII	90137F400	1347858	2111	312230.0	P	01	LC	14523	54774	2014-03-11	E	xxii
17195	17195	FIRST FINL BANCORP INC/OH	FFBC	320209109	708955	6020	522110.0	P	01	LC	35685	6736	1983-12-21	E	ffbc
17197	17197	GENERAL MOTORS FINL CO INC	GM2	37045V001	804269	6141	522220.0	P	01	LC	75858	10372	1989-11-15	2010-09-30	
17199	17199	BIOLIFE SOLUTIONS INC	BLFS	09062W204	834365	2836	325414.0	P	01	LC	76038	10390	2014-03-26	E	blfs
17199	17199	BIOLIFE SOLUTIONS INC	BLFS	09062W204	834365	2836	325414.0	P	01	LC	76038	10390	1989-11-22	1998-12-02	blfs
17228	17228	TALOS ENERGY INC	TALO	87484T108	1724965	1311	211120.0	P	01	LC	79444	29930	2018-05-10	E	talo
17245	17245	TRUSTCO BANK CORP/NY	TRST	898349204	357301	6035	522180.0	P	01	LU	77519	5926	1983-04-18	E	trst
17252	17252	UNITED FIRE GROUP INC	UFCS	910340108	101199	6331	524126.0	P	01	LC	78693	4643	1982-01-29	E	ufcs
17252	17252	UNITED FIRE GROUP INC	UFCS	910340108	101199	6331	524126.0	C	00X	LC	78693	4643	1982-01-01	1982-01-28	ufcs
17277	17277	NV5 GLOBAL INC	NVEE	62945V109	1532961	8711	541330.0	P	01	LC	14166	54355	2013-09-27	E	nvee
17287	17287	SIBANYE-STILLWATER LIMITED	SBSW	82575P107	1786909	1090	212290.0	P	90	LC	13783	54325	2013-02-21	E	sbsw
17306	17306	PENNYMAC FINANCIAL SERVICES	PFSI	70932M107	1745916	6162	522292.0	P	01	LC	13908	54399	2013-05-09	E	pfsi
17350	17350	TETRAPHASE PHARMACEUTICALS	TTPH	88165N204	1373707	2836	325414.0	P	01	LC	13829	54356	2013-03-20	2020-07-31	
17376	17376	MARIN SOFTWARE INC	MRIN	56804T304	1389002	7370	518210.0	P	01	LC	13812	54343	2013-03-22	E	mrin
17408	17408	NAVIGATOR HOLDINGS LTD	NVGS	Y62132108	1581804	4412	483111.0	C	01	LC	14301	54645	2013-11-21	E	nvgs
17422	17422	PINGTAN MARINE ENTERPRISE	PME	G7114V102	1517130	2090	311710.0	P	01	LC	12961	53771	2013-02-26	2023-02-28	pme
17436	17436	BASF SE	BASFY	055262505	1717557	2800	325.0	C	90	LC	88279	37658	2000-06-07	2007-09-05	
17438	17438	BRIDGE BANCORP INC	BDGE	108035106	0	6020	522110.0	C	01	LC	92716	53043	2008-06-09	2021-01-31	
17451	17451	INDEPENDENT BK GRP INC	IBTX	45384B106	1564618	6020	522110.0	P	01	LC	13877	54377	2013-04-03	2025-01-31	ibtx
17452	17452	DANONE SA	DANOY	23636T100	1048515	2000	311.0	C	90	LC	85608	32147	1997-11-20	2007-07-03	danoy
17452	17452	DANONE SA	DANOY	23636T100	1048515	2000	311.0	C	90	LC	85608	32147	1997-11-20	2007-07-03	gpdnf
17454	17454	KNOT OFFSHORE PRTNRS LP	KNOP	Y48125101	1564180	4400	483.0	P	01	LC	13867	54371	2013-04-10	E	knop
17485	17485	DARIOHEALTH CORP	DRIO	23725P209	1533998	8000	621.0	P	01	LC	15961	55531	2016-03-04	E	drio
17494	17494	MAMA'S CREATIONS INC	MAMA	56146T103	1520358	2030	311941.0	P	01	LC	21744	58582	2021-07-15	E	mmmb
17498	17498	CHIMERIX INC	CMRX	16934W106	1117480	2836	325414.0	P	01	LC	13870	54373	2013-04-11	E	cmrx
17525	17525	ORIGIN ENERGY LTD	BORA	68618R101	845033	4931	2211.0	C	90	LC	76107	10526	1990-03-19	2000-02-17	
17553	17553	MODEL N INC	MODN	607525102	1118417	7370	519290.0	P	01	LC	13816	54344	2013-03-20	2024-06-28	modn
17556	17556	BROOKFIELD PROPERTY PRTRS LP	BPY	G16249107	1545772	6512	531120.0	P	01	LC	13823	54350	2013-04-15	2021-07-30	bpypm
17556	17556	BROOKFIELD PROPERTY PRTRS LP	BPY	G16249107	1545772	6512	531120.0	P	01	LC	13823	54350	2013-04-15	2021-07-30	bpypp
17556	17556	BROOKFIELD PROPERTY PRTRS LP	BPY	G16249107	1545772	6512	531120.0	P	01	LC	13823	54350	2013-04-15	2021-07-30	bpypn
17556	17556	BROOKFIELD PROPERTY PRTRS LP	BPY	G16249107	1545772	6512	531120.0	P	01	LC	13823	54350	2013-04-15	2021-07-30	bpypo
17567	17567	ARATANA THERAPEUTICS	PETX	03874P101	1509190	2836	325414.0	P	01	LC	13966	54435	2013-06-27	2019-07-31	
17586	17586	FRANKLIN FINL NETWORK INC	FSB	35352P104	1407067	6020	522110.0	P	01	LC	15242	55204	2015-03-26	2020-08-31	
17594	17594	RELIANT BANCORP INC	RBNC	75956B101	1606440	6020	522110.0	P	01	LC	15505	55349	2015-07-07	2022-01-31	
17626	17626	ARMADA HOFFLER PROPERTIES	AHH	04208T108	1569187	6798	531120.0	P	01	LC	13887	54384	2013-05-08	E	ahh
17626	17626	ARMADA HOFFLER PROPERTIES	AHH	04208T108	1569187	6798	531120.0	P	01	LC	13887	54384	2013-05-08	E	ahh-pa
17628	17628	EMERGE ENERGY SERVICES LP	EMESQ	29102H108	1555177	1400	212322.0	P	01	LC	13895	54391	2013-05-09	2019-05-30	
17639	17639	AMERICAN HOMES 4 RENT	AMH	02665T306	1562401	6798	531110.0	P	01	LC	14061	54489	2013-08-01	E	amh
17639	17639	AMERICAN HOMES 4 RENT	AMH	02665T306	1562401	6798	531110.0	P	01	LC	14061	54489	2013-08-01	E	amh-ph
17639	17639	AMERICAN HOMES 4 RENT	AMH	02665T306	1562401	6798	531110.0	P	01	LC	14061	54489	2013-08-01	E	amh-pg
17653	17653	ADMA BIOLOGICS INC	ADMA	000899104	1368514	2836	325414.0	P	01	LC	15056	55102	2014-11-10	E	adma
17687	17687	HEMISPHERE MEDIA GROUP INC	HMTV	42365Q103	1567345	4833	515120.0	P	01	LC	13876	54376	2013-04-23	2022-09-30	hmtv
17695	17695	TABLEAU SOFTWARE INC	DATA	87336U105	1303652	7372	511210.0	P	01	LC	13914	54402	2013-05-17	2019-07-31	
17696	17696	TRISTATE CAPITAL HLDGS INC	TSC	89678F100	1380846	6020	522110.0	P	01	LC	13943	54422	2013-05-09	2022-06-30	
17724	17724	CONNECTONE BANCORP INC	CNOB	20786W107	712771	6020	522110.0	C	01	LC	83642	14751	1996-06-24	E	cnob
17724	17724	CONNECTONE BANCORP INC	CNOB	20786W107	712771	6020	522110.0	C	01	LC	83642	14751	1996-06-24	E	cnobp
17727	17727	EKSO BIONICS HOLDINGS INC	EKSO	282644301	1549084	3845	334510.0	P	01	LC	16252	55669	2014-01-31	E	ekso
17754	17754	AUDIOEYE INC	AEYE	050734201	1362190	7370	519290.0	P	01	LC	18098	56512	2018-09-04	E	aeye
17769	17769	HA SUSTAINABLE INFRA CAP INC	HASI	41068X100	1561894	6798	531190.0	P	01	LC	13843	54362	2013-04-30	E	hasi
17807	17807	LIGHTINTHEBOX HOLDING CO	LITB	53225G201	1523836	5961	458110.0	P	90	LC	13999	54451	2013-06-06	E	litb
17808	17808	EPIZYME INC	EPZM	29428V104	1571498	2836	325414.0	P	01	LC	13924	54410	2013-05-31	2022-08-31	
17811	17811	CHANNELADVISOR CORP	ECOM	159179100	1169652	7370	518210.0	P	01	LC	13890	54388	2013-05-23	2022-11-30	ecom
17812	17812	HD SUPPLY HOLDINGS INC	HDS	40416M105	1573097	5000	42.0	P	01	LC	13957	54429	2013-06-27	2020-12-31	
17828	17828	MERCEDES BENZ GROUP AG	MBGYY	233825207	1067318	3711	336110.0	P	01	LC	86381	34898	1998-11-17	2010-06-04	dmlry
17828	17828	MERCEDES BENZ GROUP AG	MBGYY	233825207	1067318	3711	336110.0	P	01	LC	86381	34898	1998-11-17	2010-06-04	mbgaf
17828	17828	MERCEDES BENZ GROUP AG	MBGYY	233825207	1067318	3711	336110.0	P	01	LC	79750	29998	1993-10-05	1998-11-06	dmlry
17828	17828	MERCEDES BENZ GROUP AG	MBGYY	233825207	1067318	3711	336110.0	P	01	LC	79750	29998	1993-10-05	1998-11-06	mbgaf
17866	17866	ELLINGTON CREDIT CO	EARN	288578107	1560672	6798	525990.0	P	01	LC	13894	54390	2013-05-01	E	earn
17874	17874	T-MOBILE US INC	TMUS	872590104	1283699	4812	517112.0	P	01	LC	91937	52120	2013-05-01	E	tmus
17878	17878	RITHM CAPITAL CORP	RITM	64828T201	1556593	6798	525990.0	P	01	LC	13907	54398	2013-05-16	E	ritm
17878	17878	RITHM CAPITAL CORP	RITM	64828T201	1556593	6798	525990.0	P	01	LC	13907	54398	2013-05-16	E	ritm-pa
17878	17878	RITHM CAPITAL CORP	RITM	64828T201	1556593	6798	525990.0	P	01	LC	13907	54398	2013-05-16	E	ritm-pb
17878	17878	RITHM CAPITAL CORP	RITM	64828T201	1556593	6798	525990.0	P	01	LC	13907	54398	2013-05-16	E	ritm-pc
17878	17878	RITHM CAPITAL CORP	RITM	64828T201	1556593	6798	525990.0	P	01	LC	13907	54398	2013-05-16	E	ritm-pd
17896	17896	HARVEST CAPITAL CREDIT CORP	HCAP	41753F109	1559909	6797	523999.0	P	01	LC	13927	54412	2013-05-03	2021-06-30	
17897	17897	QIWI PLC	QIWI	74735M108	1561566	7389	522320.0	P	90	LC	13941	54420	2013-05-03	E	qiwi
17928	17928	IQVIA HOLDINGS INC	IQV	46266C105	1478242	8731	54171.0	P	01	LC	13911	54401	2013-05-09	E	iqv
17931	17931	PORTOLA PHARMACEUTICALS INC	PTLA	737010108	1269021	2836	325414.0	P	01	LC	13940	54419	2013-05-22	2020-07-31	
17933	17933	PHILLIPS 66 PARTNERS LP	PSXP	718549207	1572910	4610	486110.0	P	01	LC	14035	54469	2013-07-23	2022-03-31	
17934	17934	SPROUTS FARMERS MARKET	SFM	85208M102	1575515	5411	445110.0	P	01	LC	14102	54513	2013-08-01	E	sfm
17947	17947	GOLD FIELDS LTD	GFI	38059T106	1172724	1040	212220.0	P	90	LC	30796	1381	1982-01-29	E	gfi
17947	17947	GOLD FIELDS LTD	GFI	38059T106	1172724	1040	212220.0	P	90	LC	30796	1381	1982-01-29	E	gfiof
17956	17956	FRANK'S INTL NV	FI.4	N33462107	0	1389	213112.0	P	01	LC	14089	54504	2013-08-09	2021-10-03	
17997	17997	CONSTELLIUM SE	CSTM	F21107101	1563411	3350	331315.0	P	01	LC	13917	54404	2013-05-23	E	cstm
17998	17998	BLUEBIRD BIO INC	BLUE	09609G209	1293971	2836	325414.0	P	01	LC	13947	54424	2013-06-19	E	blue
18004	18004	CENTURY COMMUNITIES INC	CCS	156504300	1576940	1531	236117.0	P	01	LC	14716	54909	2014-06-18	E	ccs
18009	18009	NANOSTRING TECHNOLOGIES INC	NSTGQ	63009R109	1401708	2835	325413.0	P	01	LC	13962	54432	2013-06-26	2024-06-28	nstg
18036	18036	COMMSCOPE HOLDING CO INC	COMM	20337X109	1517228	3663	334220.0	P	01	LC	14239	54602	2013-10-25	E	comm
18040	18040	REPUBLIC FIRST BANCORP INC	FRBKQ	760416107	834285	6020	522110.0	P	01	LC	12166	9999	1988-11-03	2023-08-22	frbk
18043	18043	NEWS CORP	NWSA	65249B109	1564708	2711	513110.0	J	02	LC	13964	54433	2013-07-01	E	nwsa
18043	18043	NEWS CORP	NWSA	65249B109	1564708	2711	513110.0	J	02	LC	13964	54433	2013-07-01	E	nws
18043	18043	NEWS CORP	NWSA	65249B109	1564708	2711	513110.0	P	01	LC	13963	54433	2013-07-01	E	nwsa
18043	18043	NEWS CORP	NWSA	65249B109	1564708	2711	513110.0	P	01	LC	13963	54433	2013-07-01	E	nws
18047	18047	NOODLES & CO	NDLS	65540B105	1275158	5812	722513.0	P	01	LC	13959	54431	2013-06-28	E	ndls
18049	18049	F N B CORP/FL	FNB	302520101	37808	6020	522110.0	P	01	LC	10629	8534	1986-09-02	E	fnb
18049	18049	F N B CORP/FL	FNB	302520101	37808	6020	522110.0	P	01	LC	10629	8534	1986-09-02	E	fnb-pe
18050	18050	LUXOFT HOLDING INC	LXFT	G57279104	1538375	7370	541519.0	P	01	LC	14010	54458	2013-06-26	2019-06-28	
18066	18066	TELARIA INC	TLRA	879181105	1375796	7370	519130.0	P	01	LC	14006	54456	2013-06-27	2020-03-31	
18071	18071	REXFORD INDUS REALTY	REXR	76169C100	1571283	6798	531120.0	P	01	LC	14037	54471	2013-07-19	E	rexr
18071	18071	REXFORD INDUS REALTY	REXR	76169C100	1571283	6798	531120.0	P	01	LC	14037	54471	2013-07-19	E	rexr-pb
18071	18071	REXFORD INDUS REALTY	REXR	76169C100	1571283	6798	531120.0	P	01	LC	14037	54471	2013-07-19	E	rexr-pc
18073	18073	CHERRY HILL MTG INVST	CHMI	164651101	1571776	6798	525990.0	P	01	LC	14183	54575	2013-10-04	E	chmi
18073	18073	CHERRY HILL MTG INVST	CHMI	164651101	1571776	6798	525990.0	P	01	LC	14183	54575	2013-10-04	E	chmi-pb
18073	18073	CHERRY HILL MTG INVST	CHMI	164651101	1571776	6798	525990.0	P	01	LC	14183	54575	2013-10-04	E	chmi-pa
18086	18086	MALLINCKRODT PLC	MNKTQ	G5890A102	1567892	2834	325412.0	P	02	LC	23497	59429	2022-10-27	2023-11-30	mnkpf
18086	18086	MALLINCKRODT PLC	MNKTQ	G5890A102	1567892	2834	325412.0	P	01	LC	14011	54459	2013-07-01	2020-10-09	mnkpf
18108	18108	FINJAN HOLDINGS INC	FNJN	31788H303	1366340	7372	511210.0	P	01	LC	91893	51805	2014-05-12	2020-07-23	
18109	18109	JONES ENERGY INC	JONEQ	48019R306	1573166	1311	211120.0	P	01	LC	14026	54462	2013-07-24	2018-11-26	
18114	18114	TECOGEN INC	TGEN	87876P201	1537435	3585	333415.0	P	01	LC	14675	54873	2014-05-20	E	tgen
18145	18145	PHYSICIANS REALTY TR	DOC.5	71943U104	1574540	6798	531120.0	P	01	LC	14036	54470	2013-07-19	E	doc
18159	18159	AGIOS PHARMACEUTICALS	AGIO	00847X104	1439222	2836	325414.0	P	01	LC	14044	54476	2013-07-24	E	agio
18161	18161	CONATUS PHARMACEUTICALS INC	CNAT	20600T108	0	2836	325414.0	P	01	LC	14046	54477	2013-07-25	2020-05-26	
18162	18162	ESPERION THERAPEUTICS INC	ESPR	29664W105	1434868	2834	325412.0	P	01	LC	13954	54427	2013-06-26	E	espr
18171	18171	NEW HOME CO INC	NWHM	645370107	1574596	1531	236117.0	P	01	LC	14400	54701	2014-01-31	2021-09-30	
18172	18172	TRAWS PHARMA INC	TRAW	68232V884	1130598	2836	325414.0	P	01	LC	14056	54486	2013-07-25	E	ontx
18173	18173	EVOKE PHARMA INC	EVOK	30049G302	1403708	2834	325412.0	P	01	LC	14158	54555	2013-09-25	E	evok
18184	18184	NATIONAL GENERAL HOLDINGS CP	NGHC	636220303	1578735	6331	524126.0	P	01	LC	14464	54740	2014-02-20	2020-12-31	
18204	18204	ANI PHARMACEUTICALS INC	ANIP	00182C103	1023024	2834	325412.0	P	01	LC	89875	44505	2013-07-18	E	anip
18231	18231	ALKALINE WATER COMPANY INC	WTER	01643A306	1532390	2086	312112.0	P	01	LC	18325	56618	2018-12-10	E	wter
18235	18235	SAEXPLORATION HOLDINGS INC	SAEXQ	78636X873	1514732	1382	541360.0	P	01	LC	13330	54033	2013-06-25	2020-06-16	
18241	18241	FIRST COMMONWLTH FINL CP/PA	FCF	319829107	712537	6020	522110.0	P	01	LC	77643	29505	1992-06-10	E	fcf
18261	18261	OWENS REALTY MORTGAGE INC	ORM	690828108	1556364	6798	525990.0	P	01	LC	14034	54468	2013-07-01	E	
18270	18270	MARRONE BIO INNOVTIONS	MBII	57165B106	1441693	2870	3253.0	P	01	LC	14099	54510	2013-08-02	2022-07-29	
18289	18289	ARDMORE SHIPPING CORP	ASC	Y0207T100	1577437	4412	483111.0	P	01	LC	14092	54505	2013-08-01	E	asc
18291	18291	CONTROL4 CORP	CTRL	21240D107	1259515	3829	334519.0	P	01	LC	14095	54508	2013-08-02	2019-08-02	
18293	18293	CLEARWAY ENERGY INC	CWEN	18539C204	1567683	4911	2211.0	P	03	LC	15332	54466	2018-01-01	E	cwen
18293	18293	CLEARWAY ENERGY INC	CWEN	18539C204	1567683	4911	2211.0	P	03	LC	15332	54466	2018-01-01	E	cwen-a
18293	18293	CLEARWAY ENERGY INC	CWEN	18539C204	1567683	4911	2211.0	J	03	LC	15332	54466	2015-05-15	2017-12-31	cwen
18293	18293	CLEARWAY ENERGY INC	CWEN	18539C204	1567683	4911	2211.0	J	03	LC	15332	54466	2015-05-15	2017-12-31	cwen-a
18293	18293	CLEARWAY ENERGY INC	CWEN	18539C204	1567683	4911	2211.0	J	01	LC	14030	54466	2018-01-01	E	cwen
18293	18293	CLEARWAY ENERGY INC	CWEN	18539C204	1567683	4911	2211.0	J	01	LC	14030	54466	2018-01-01	E	cwen-a
18293	18293	CLEARWAY ENERGY INC	CWEN	18539C204	1567683	4911	2211.0	P	01	LC	14030	54466	2013-07-17	2017-12-31	cwen
18293	18293	CLEARWAY ENERGY INC	CWEN	18539C204	1567683	4911	2211.0	P	01	LC	14030	54466	2013-07-17	2017-12-31	cwen-a
18306	18306	SANTANDER CONSUMER USA HLDGS	SC	80283M101	1580608	6141	522291.0	P	01	LC	14414	54706	2014-01-23	2022-01-31	
18312	18312	US FOODS HOLDING CORP	USFD	912008109	1665918	5140	4244.0	P	01	LC	16084	55582	2016-05-31	E	usfd
18315	18315	PRECIGEN INC	PGEN	74017N105	1356090	2836	325414.0	P	01	LC	14072	54496	2013-08-08	E	pgen
18320	18320	FOX FACTORY HOLDING CP	FOXF	35138V102	1424929	3751	336991.0	P	01	LC	14097	54509	2013-08-08	E	foxf
18321	18321	SISECAM RESOURCES LP	SIRE	172464109	1575051	1400	212390.0	P	01	LC	14134	54539	2013-09-13	2023-05-31	sire
18322	18322	CVENT INC	CVT.	23247G109	0	7370	519130.0	P	01	LC	14063	54491	2013-08-09	2016-11-30	
18323	18323	OAKTREE STRATEGIC INCOME CP	OCSI	67402D104	1577791	6153	522299.0	P	01	LC	14050	54480	2013-07-12	2021-03-31	
18351	18351	EQUINOX GOLD CORP	EQX	29446Y502	1756607	1040	212220.0	C	01	LC	18926	56883	2019-09-16	E	eqx
18383	18383	BRIXMOR PROPERTY GROUP INC	BRX	11120U105	1581068	6798	531120.0	P	01	LC	14181	54572	2013-10-30	E	brx
18392	18392	CAROLINA FINANCIAL CORP	CARO	143873107	870385	6020	522110.0	P	01	LC	14793	54949	2014-07-01	2020-05-29	
18398	18398	BEELINE HOLDINGS INC	BLNE	277802500	1534708	6162	522292.0	P	01	LC	16887	56046	2017-08-10	E	east
18430	18430	FIVE PRIME THERAPEUTICS INC	FPRX	33830X104	1175505	2836	325414.0	P	01	LC	14161	54558	2013-09-18	2021-04-30	
18434	18434	ALERUS FINANCIAL CORP	ALRS	01446U103	903419	6020	522110.0	C	01	LC	18941	56887	2019-09-13	E	alrs
18441	18441	SIRIUSPOINT LTD	SPNT	G8192H106	1576018	6331	524130.0	P	01	LC	14088	54503	2013-08-15	E	spnt
18441	18441	SIRIUSPOINT LTD	SPNT	G8192H106	1576018	6331	524130.0	P	01	LC	14088	54503	2013-08-15	E	sspcf
18441	18441	SIRIUSPOINT LTD	SPNT	G8192H106	1576018	6331	524130.0	P	01	LC	14088	54503	2013-08-15	E	spnt-pb
18465	18465	ANTERO RESOURCES CORP	AR	03674X106	1433270	1311	2111.0	P	01	LC	14179	54570	2013-10-10	E	ar
18468	18468	PLAINS GP HOLDINGS LP	PAGP	72651A207	1581990	5171	424710.0	P	01	LC	14215	54587	2013-10-16	E	pagp
18469	18469	FOUNDATION MEDICINE INC	FMI	350465100	1488613	2836	325414.0	P	01	LC	14160	54557	2013-09-25	2018-07-31	
18479	18479	JASON INDUSTRIES INC	JASNQ	471172106	1579252	3990	339994.0	P	02	LC	14173	54511	2013-10-01	2020-01-13	
18479	18479	JASON INDUSTRIES INC	JASNQ	471172106	1579252	3990	339994.0	J	02	LC	14173	54511	2013-09-30	2013-09-30	
18487	18487	MANDIANT INC	MNDT	562662106	1370880	7373	541512.0	P	01	LC	14159	54556	2013-09-20	2022-09-30	mndt
18490	18490	LOGICMARK INC	LGMK	67091J602	1566826	3845	334510.0	P	01	LC	14934	55028	2014-09-11	E	lgmk
18494	18494	INDEPENDENCE REALTY TRUST	IRT	45378A106	1466085	6798	531110.0	P	01	LC	14071	54495	2013-08-13	E	irt
18498	18498	MURPHY USA INC	MUSA	626755102	1573516	5500	457110.0	P	01	LC	14076	54499	2013-09-03	E	musa
18509	18509	IDEAL POWER INC	IPWR	451622203	1507957	3613	335313.0	P	01	LC	14313	54654	2013-11-22	E	ipwr
18510	18510	ACCELERON PHARMA INC	XLRN	00434H108	1280600	2836	325414.0	P	01	LC	14176	54568	2013-09-19	2021-11-30	
18533	18533	HORIZON BANCORP INC	HBNC	440407104	706129	6020	522110.0	P	01	LU	11565	9389	1989-11-30	E	hbnc
18556	18556	CHEGG INC	CHGG	163092109	1364954	7370	519290.0	P	01	LC	14273	54627	2013-11-13	E	chgg
18561	18561	BENEFITFOCUS INC	BNFT	08180D106	1576169	7370	518210.0	P	01	LC	14149	54550	2013-09-18	2023-01-31	bnft
18562	18562	FATE THERAPEUTICS INC	FATE	31189P102	1434316	2836	325414.0	P	01	LC	14245	54605	2013-10-01	E	fate
18564	18564	APPLIED OPTOELECTRONICS INC	AAOI	03823U102	1158114	3674	334413.0	P	01	LC	14145	54548	2013-09-26	E	aaoi
18572	18572	IVERIC BIO INC	ISEE	46583P102	1410939	2836	325414.0	P	01	LC	14167	54561	2013-09-25	2023-07-31	isee
18573	18573	QTS REALTY TRUST INC	QTS	74736A103	1577368	6798	531120.0	P	01	LC	14220	54588	2013-10-09	2021-09-01	
18578	18578	RE/MAX HOLDINGS INC	RMAX	75524W108	1581091	6531	531210.0	P	01	LC	14221	54589	2013-10-02	E	rmax
18619	18619	VERSABANK	VBNK	92512J106	1690639	6020	522110.0	C	01	LC	21972	58751	2021-09-22	E	vbnk
18624	18624	PREMIER INC	PINC	74051N102	1577916	8742	541614.0	P	01	LC	14169	54563	2013-09-26	E	pinc
18626	18626	GLOBANT SA	GLOB	L44385109	1557860	7370	54151.0	P	01	LC	14785	54943	2014-07-18	E	glob
18629	18629	LGI HOMES INC	LGIH	50187T106	1580670	1531	236117.0	P	01	LC	14317	54657	2013-11-07	E	lgih
18630	18630	RINGCENTRAL INC	RNG	76680R206	1384905	7370	518210.0	P	01	LC	14136	54541	2013-09-27	E	rng
18636	18636	DIAGEO PLC	DEO	25243Q205	835403	2085	312140.0	C	90	LC	76592	28996	1994-01-31	E	deo
18636	18636	DIAGEO PLC	DEO	25243Q205	835403	2085	312140.0	C	90	LC	76592	28996	1994-01-31	E	dgeaf
18658	18658	MACROGENICS INC	MGNX	556099109	1125345	2836	325414.0	P	01	LC	14257	54614	2013-10-09	E	mgnx
18660	18660	EP ENERGY CORP	EPEGQ	268785102	1584952	1311	211120.0	P	01	LC	14392	54697	2014-01-17	2019-04-30	
18666	18666	ASENSUS SURGICAL INC	ASXC	04367G103	876378	3841	339112.0	P	01	LC	76908	11064	2014-04-15	2024-08-30	asxc
18675	18675	BURLINGTON STORES INC	BURL	122017106	1579298	5600	458110.0	P	01	LC	14182	54574	2013-10-02	E	burl
18677	18677	PATTERN ENERGY GROUP INC	PEGI	70338P100	1561660	4991	221115.0	P	01	LC	14168	54562	2013-09-27	2020-03-31	
18683	18683	SCIENCE APPLICATIONS INTL CP	SAIC	808625107	1571123	7373	541512.0	P	01	LC	14141	54544	2013-09-30	E	saic
18689	18689	VEEVA SYSTEMS INC	VEEV	922475108	1393052	7370	519290.0	P	01	LC	14231	54595	2013-10-16	E	veev
18699	18699	PTC INC	PTC	69370C100	857005	7372	513210.0	P	01	LU	75912	10408	1989-12-08	E	ptc
18729	18729	KIRIN HOLDINGS CO LTD	KNBWY	497350306	800901	2082	312120.0	P	90	LU	47897	2560	1982-01-29	2006-06-29	
18745	18745	ESSENT GROUP LTD	ESNT	G3198U102	1448893	6351	524126.0	P	01	LC	14235	54598	2013-10-31	E	esnt
18748	18748	VOXELJET AG	VJTTY	92912L206	1582581	3555	333248.0	P	90	LC	14232	54596	2013-10-18	E	vjet
18749	18749	AERIE PHARMACEUTICALS INC	AERI	00771V108	1337553	2834	325412.0	P	01	LC	14238	54601	2013-10-25	2022-11-30	aeri
18750	18750	CRITEO SA	CRTO	226718104	1576427	7311	541810.0	P	90	LC	14240	54603	2013-10-30	E	crto
18774	18774	VALERO ENERGY PARTNERS LP	VLP	91914J102	1583103	4610	486.0	P	01	LC	14342	54676	2013-12-11	2019-01-31	
18779	18779	LOGAN RIDGE FINANCE CORP	LRFC	541098109	1571329	6797	523910.0	P	01	LC	14151	54552	2013-09-25	E	lrfc
18792	18792	GAMING & LEISURE PPTYS	GLPI	36467J108	1575965	6798	531120.0	P	01	LC	14252	54610	2013-11-04	E	glpi
18839	18839	POTBELLY CORP	PBPB	73754Y100	1195734	5812	722513.0	P	01	LC	14258	54615	2013-10-04	E	pbpb
18842	18842	CONTAINER STORE GROUP	TCSGQ	210751202	1411688	5700	449129.0	P	01	LC	14274	54628	2013-11-01	2024-12-09	tcs
18868	18868	OCI PARTNERS LP	OCIP	67091N108	1578932	2860	325199.0	P	01	LC	14214	54586	2013-10-04	2018-07-31	
18869	18869	WIX COM LTD	WIX	M98068105	1576789	7370	518210.0	P	01	LC	14326	54663	2013-11-06	E	wix
18872	18872	TWITTER INC	TWTR	90184L102	1418091	7370	519130.0	P	01	LC	14295	54638	2013-11-07	2022-10-31	twtr
18875	18875	EXP WORLD HOLDINGS INC	EXPI	30212W100	1495932	6531	531210.0	P	01	LC	17812	56372	2018-06-09	E	expi
18878	18878	GLYCOMIMETICS INC	GLYC	38000Q102	1253689	9995	999990.0	P	01	LC	14431	54718	2014-01-10	E	glyc
18888	18888	AMNEAL PHARMACEUTICALS INC	AMRX	03168L105	1723128	2834	325412.0	P	01	LC	82702	14243	2018-05-07	E	amrx
18899	18899	TANDEM DIABETES CARE INC	TNDM	875372203	1438133	3845	334510.0	P	01	LC	14325	54662	2013-11-14	E	tndm
18925	18925	TREVENA INC	TRVN	89532E307	1429560	2836	325414.0	P	01	LC	14442	54726	2014-01-31	E	trvn
18926	18926	DYNAGAS LNG PARTNERS LP	DLNG	Y2188B108	1578453	4412	483111.0	P	01	LC	14308	54650	2013-11-13	E	dlng
18926	18926	DYNAGAS LNG PARTNERS LP	DLNG	Y2188B108	1578453	4412	483111.0	P	01	LC	14308	54650	2013-11-13	E	dlng-pa
18926	18926	DYNAGAS LNG PARTNERS LP	DLNG	Y2188B108	1578453	4412	483111.0	P	01	LC	14308	54650	2013-11-13	E	dlng-pb
18930	18930	KARYOPHARM THERAPEUTICS INC	KPTI	48576U205	1503802	2836	325414.0	P	01	LC	14316	54655	2013-11-06	E	kpti
18936	18936	VITAL THERAPIES INC	VTL	92847R104	0	2836	325414.0	P	01	LC	14615	54835	2014-04-17	2019-04-14	
18938	18938	XENCOR INC	XNCR	98401F105	1326732	2836	325414.0	P	01	LC	14359	54685	2013-12-03	E	xncr
18947	18947	VERACYTE INC	VCYT	92337F107	1384101	2835	325413.0	P	01	LC	14263	54620	2013-10-30	E	vcyt
18978	18978	ONE GP HOSPITALITY (THE)	STKS	88338K103	1399520	5812	722511.0	P	01	LC	15383	55281	2015-05-08	E	stks
18982	18982	ZYLA LIFE SCIENCES	ZCOR	98986F108	1586105	2834	325412.0	P	01	LC	14455	54735	2014-02-06	2018-09-18	
18983	18983	OXFORD IMMUNOTEC GLOBAL PLC	OXFD	G6855A103	1586049	2835	325413.0	C	01	LC	14319	54659	2013-11-22	2021-03-31	
19000	19000	MARCUS & MILLICHAP INC	MMI	566324109	1578732	6531	531210.0	P	01	LC	14213	54584	2013-10-31	E	mmi
19025	19025	SOCIETAL CDMO INC	SCTL	75629F109	1588972	2834	325412.0	P	01	LC	14550	54792	2014-03-07	2024-04-30	reph
19026	19026	58.COM INC  -ADR	WUBA	31680Q104	1525494	7370	519130.0	P	90	LC	14209	54582	2013-10-31	2020-09-30	
19044	19044	VARONIS SYSTEMS INC	VRNS	922280102	1361113	7372	513210.0	P	01	LC	14472	54748	2014-02-28	E	vrns
19057	19057	MBT FINANCIAL CORP	MBTF	578877102	1118237	6036	522120.0	P	01	LC	89738	44057	2003-05-01	2019-09-30	
19071	19071	CAMPING WORLD HOLDINGS INC	CWH	13462K109	1669779	5500	441210.0	P	01	LC	16437	55777	2016-10-07	E	cwh
19084	19084	BRAEMAR HOTELS & RESORTS INC	BHR	10482B101	1574085	6798	531120.0	P	01	LC	14268	54623	2013-11-20	E	bhr
19084	19084	BRAEMAR HOTELS & RESORTS INC	BHR	10482B101	1574085	6798	531120.0	P	01	LC	14268	54623	2013-11-20	E	bhr-pd
19084	19084	BRAEMAR HOTELS & RESORTS INC	BHR	10482B101	1574085	6798	531120.0	P	01	LC	14268	54623	2013-11-20	E	bhr-pb
19094	19094	N B T BANCORP INC	NBTB	628778102	790359	6020	522110.0	P	01	LU	77415	11403	1992-03-17	E	nbtb
19107	19107	ARROWMARK FINANCIAL CORP	BANX	861780104	1578987	6799	523999.0	P	01	LC	14302	54646	2013-11-07	E	banx
19113	19113	NISSAN MOTOR CO LTD	NSANY	654744408	800937	3711	336110.0	P	90	LC	57681	3255	1982-01-29	2009-07-31	
19117	19117	BIOCEPT INC	BIOCQ	09072V600	1044378	2835	325413.0	P	01	LC	14449	54730	2014-02-05	2023-10-24	bioc
19129	19129	HALLADOR ENERGY CO	HNRG	40609P105	788965	1220	212115.0	C	02	LC	47723	2545	2010-05-21	E	hnrg
19129	19129	HALLADOR ENERGY CO	HNRG	40609P105	788965	1220	212115.0	C	02	LC	47723	2545	1989-12-01	1993-08-02	hnrg
19143	19143	KINDRED BIOSCIENCES INC	KIN	494577109	1561743	2836	325414.0	P	01	LC	14352	54680	2013-12-12	2021-08-31	
19149	19149	ULTRAGENYX PHARMACEUTICAL	RARE	90400D108	1515673	2836	325414.0	P	01	LC	14436	54723	2014-01-31	E	rare
19150	19150	OLD SECOND BANCORP INC/IL	OSBC	680277100	357173	6020	522110.0	P	01	LU	79851	12561	1993-11-12	E	osbc
19151	19151	TELECOM ITALIA SPA	TIIAY	87927Y102	948642	4813	517311.0	P	91	LC	89817	44284	2003-08-08	E	
19154	19154	CARA THERAPEUTICS INC	CARA	140755208	1346830	2836	325414.0	P	01	LC	14422	54713	2014-01-31	E	cara
19163	19163	EXTENDED STAY AMERICA INC	STAY	30224P200	1581164	7011	721110.0	P	01	LC	14279	14228	2013-11-13	2021-06-30	
19168	19168	DEL TACO RESTAURANTS INC	TACO.3	245496104	1585583	5812	722513.0	P	02	LC	14433	54656	2014-01-06	2022-03-31	taco
19171	19171	RSP PERMIAN INC	RSPP	74978Q105	1588216	1311	211111.0	P	01	LC	14408	54704	2014-01-17	2018-07-31	
19172	19172	A-MARK PRECIOUS METALS INC	AMRK	00181T107	1591588	5051	423510.0	P	01	LC	14532	54780	2014-03-17	E	amrk
19175	19175	VINCE HOLDING CORP	VNCE	92719W207	1579157	2300	315.0	P	01	LC	14296	54640	2013-11-22	E	vnce
19184	19184	CYPRESS ENVIRONMNTL PRTNS LP	CELPQ	232751107	1587246	1389	213112.0	P	01	LC	14380	54696	2014-01-15	2022-06-30	
19189	19189	SEMLER SCIENTIFIC INC	SMLR	81684M104	1554859	3845	334510.0	P	01	LC	14469	54745	2021-09-28	E	smlr
19189	19189	SEMLER SCIENTIFIC INC	SMLR	81684M104	1554859	3845	334510.0	P	01	LC	14469	54745	2014-02-21	2016-08-10	smlr
19205	19205	CAPRICOR THERAPEUTICS INC	CAPR	14070B309	1133869	2836	325414.0	P	01	LC	92686	53027	2015-03-09	E	capr
19209	19209	NORTHERN TECH INTL	NTIC	665809109	875582	2890	325998.0	P	01	LU	77488	29468	1992-03-27	E	ntic
19267	19267	DIRTT ENVIRONMENTL SOLUTIONS	DRTTF	25490H106	1340476	2522	337214.0	P	01	LC	19005	56909	2019-10-09	E	drtt
19273	19273	ENABLE MIDSTREAM PARTNERS LP	ENBL	292480100	1591763	4922	486210.0	P	01	LC	14564	54802	2014-04-11	2021-12-03	
19274	19274	INOGEN INC	INGN	45780L104	1294133	3845	334510.0	P	01	LC	14459	54739	2014-02-14	E	ingn
19275	19275	BLUEROCK RESIDENTIAL GROWTH	BRG	09627J102	1442626	6798	531110.0	P	01	LC	14500	54760	2014-03-28	2022-10-31	brg
19275	19275	BLUEROCK RESIDENTIAL GROWTH	BRG	09627J102	1442626	6798	531110.0	P	01	LC	14500	54760	2014-03-28	2022-10-31	brg-pd
19275	19275	BLUEROCK RESIDENTIAL GROWTH	BRG	09627J102	1442626	6798	531110.0	P	01	LC	14500	54760	2014-03-28	2022-10-31	brg-pc
19295	19295	AUTOHOME INC	ATHM	05278C107	1527636	7370	519290.0	P	90	LC	14332	54667	2013-12-11	E	athm
19344	19344	SHISEIDO CO LTD	SSDOY	824841407	899118	2844	325620.0	C	90	LU	70360	4105	1983-12-30	1985-09-30	
19349	19349	SIEMENS AG	SIEGY	826197501	1135644	9997	999977.0	P	91	LC	88935	41380	2001-03-12	2014-05-15	
19350	19350	ECO-STIM ENERGY SOLUTIONS	ESESQ	27888D408	1135657	1389	213112.0	P	01	LC	15290	55228	2015-04-10	2018-12-31	
19352	19352	CARE.COM INC	CRCM	141633107	1412270	7370	519130.0	P	01	LC	14378	54694	2014-01-24	2020-02-28	
19354	19354	VICINITY MOTOR CORP	VEVMQ	925654105	1834975	3713	336211.0	C	01	LC	21783	58615	2021-07-07	E	vev
19355	19355	SIMMONS FIRST NATL CP  -CL A	SFNC	828730200	90498	6020	522110.0	P	01	LU	91855	7460	1985-03-13	E	sfnc
19391	19391	MALIBU BOATS INC	MBUU	56117J100	1590976	3730	336612.0	P	01	LC	14434	54721	2014-01-31	E	mbuu
19398	19398	DENNYS CORP	DENN	24869P104	852772	5812	722511.0	P	01	LC	85726	15916	2005-05-10	E	denn
19398	19398	DENNYS CORP	DENN	24869P104	852772	5812	722511.0	P	01	LC	85726	15916	1998-01-12	2001-01-08	denn
19398	19398	DENNYS CORP	DENN	24869P104	852772	5812	722511.0	P	01	LC	75914	10405	1989-12-06	1997-05-16	denn
19402	19402	G-III APPAREL GROUP LTD	GIII	36237H101	821002	2300	315250.0	P	01	LU	75905	10419	1989-12-14	E	giii
19412	19412	INTRA-CELLULAR THERAPIES INC	ITCI	46116X101	1567514	2836	325414.0	P	01	LC	14432	54720	2014-01-31	E	itci
19417	19417	ADVANZ PHARMA CORP LTD	CXRXF	G01022105	1642271	2834	325412.0	P	01	LC	15418	55304	2015-06-29	2018-06-08	
19425	19425	GENOCEA BIOSCIENCES INC	GNCAQ	372427401	1457612	2836	325414.0	P	01	LC	14458	54738	2014-02-05	2022-06-02	gnca
19428	19428	GREAT SOUTHERN BANCORP	GSBC	390905107	854560	6020	522110.0	P	01	LU	75906	10421	1989-12-14	E	gsbc
19433	19433	PHX MINERALS INC	PHX	69291A100	315131	1311	2111.0	P	01	LU	77236	11270	1991-12-23	E	phx
19440	19440	LADDER CAPITAL CORP	LADR	505743104	1577670	6798	525990.0	P	01	LC	14489	54753	2014-02-06	E	ladr
19442	19442	CONTINENTAL BUILDING PRODS	CBPX	211171103	1592480	3270	327420.0	P	01	LC	14478	54749	2014-02-05	2020-01-31	
19458	19458	CARISMA THERAPEUTICS INC	CARM	14216R101	1485003	2836	325414.0	P	01	LC	14452	54734	2014-02-06	E	sesn
19470	19470	DICERNA PHARMACEUTICALS INC	DRNA	253031108	1399529	2836	325414.0	P	01	LC	14426	54717	2014-01-30	2021-12-31	
19471	19471	REVANCE THERAPEUTICS INC	RVNC	761330109	1479290	2836	325414.0	P	01	LC	14467	54743	2014-02-06	E	rvnc
19484	19484	FTAI AVIATION LTD	FTAI	G3730V105	1590364	7359	532411.0	P	01	LC	15351	55257	2015-05-15	E	ftai
19484	19484	FTAI AVIATION LTD	FTAI	G3730V105	1590364	7359	532411.0	P	01	LC	15351	55257	2015-05-15	E	ftain
19484	19484	FTAI AVIATION LTD	FTAI	G3730V105	1590364	7359	532411.0	P	01	LC	15351	55257	2015-05-15	E	ftaio
19484	19484	FTAI AVIATION LTD	FTAI	G3730V105	1590364	7359	532411.0	P	01	LC	15351	55257	2015-05-15	E	ftaip
19507	19507	OUTFRONT MEDIA INC	OUT	69007J304	1579877	6798	531190.0	P	01	LC	14503	54762	2014-03-28	E	out
19511	19511	FLEXION THERAPEUTICS INC	FLXN	33938J106	1419600	2834	325412.0	P	01	LC	14457	54737	2014-02-12	2021-11-30	
19516	19516	INSTALLED BLDG PRODUCTS INC	IBP	45780R101	1580905	1700	238310.0	P	01	LC	14479	54750	2014-02-13	E	ibp
19517	19517	ONE GAS INC	OGS	68235P108	1587732	4924	221210.0	P	01	LC	14401	54702	2014-02-03	E	ogs
19518	19518	KNOWLES CORP	KN	49926D109	1587523	3670	334419.0	P	01	LC	14487	54752	2014-03-03	E	kn
19525	19525	AGROFRESH SOLUTIONS INC	AGFS	00856G109	1592016	2870	325320.0	P	02	LC	14590	54731	2014-04-07	2023-04-28	agfs
19526	19526	FARMLAND PARTNERS INC	FPI	31154R109	1591670	6798	531190.0	P	01	LC	14566	54804	2014-04-11	E	fpi
19528	19528	FG FINANCIAL GROUP INC	FGF.2	30399J930	0	6331	524130.0	P	01	LC	14607	54828	2014-04-01	2024-02-29	
19534	19534	CONCERT PHARMACEUTICLS INC	CNCE	206022105	1367920	2836	325414.0	P	01	LC	14451	54733	2014-02-13	2023-03-31	cnce
19545	19545	AMERICAN CAPITAL SR FLTG LTD	ACSF	02504D108	1581934	6797	523910.0	P	01	LC	14418	54710	2014-01-16	2018-09-28	
19565	19565	RIO TINTO GROUP	RIO	767204100	863064	1000	212.0	P	90	LC	76221	26084	1990-06-28	E	rio
19565	19565	RIO TINTO GROUP	RIO	767204100	863064	1000	212.0	P	90	LC	76221	26084	1990-06-28	E	rtppf
19570	19570	S & T BANCORP INC	STBA	783859101	719220	6020	522110.0	P	01	LU	77528	11480	1992-04-21	E	stba
19574	19574	GANNETT CO INC	GCI	36472T109	1579684	2711	513110.0	P	01	LC	14490	54754	2014-02-14	E	gci
19578	19578	TRIBUNE PUBLISHING CO	TPCO	89609W107	1593195	2711	511110.0	P	01	LC	14781	54939	2014-08-05	2021-05-28	
19581	19581	LANDS' END INC	LE	51509F105	799288	5961	458110.0	P	01	LC	14544	54786	2014-04-07	E	le
19582	19582	CARETRUST REIT INC	CTRE	14174T107	1590717	6798	531120.0	P	01	LC	14651	54859	2014-06-03	E	ctre
19600	19600	CYMABAY THERAPEUTICS INC	CBAY	23257D103	1042074	2836	325414.0	P	01	LC	14691	54884	2014-06-18	2024-03-28	cbay
19602	19602	TURTLE BEACH CORP	TBCH	900450206	1493761	3577	334118.0	P	01	LC	13328	54031	2014-01-16	E	hear
19605	19605	RAND CAPITAL CORP	RAND	752185207	81955	6797	523910.0	P	01	LU	65665	3771	1982-01-29	E	rand
19605	19605	RAND CAPITAL CORP	RAND	752185207	81955	6797	523910.0	C	00X	LU	65665	3771	1982-01-01	1982-01-28	rand
19613	19613	RANK GROUP PLC	RANKY	753037100	1026291	7990	713290.0	P	90	LU	65702	3773	1982-01-29	2005-08-31	
19647	19647	LENDINGCLUB CORP	LC	52603A208	1409970	6141	522291.0	P	01	LC	15092	55129	2014-12-11	E	lc
19649	19649	SABRE CORP	SABR	78573M104	1597033	7370	518210.0	P	01	LC	14608	54830	2014-04-17	E	sabr
19649	19649	SABRE CORP	SABR	78573M104	1597033	7370	518210.0	P	01	LC	14608	54830	2014-04-17	E	sabrp
19661	19661	TOYOTA MOTOR CORP	TM	892331307	1094517	3711	336110.0	P	90	LC	76655	4521	1981-01-30	E	tm
19661	19661	TOYOTA MOTOR CORP	TM	892331307	1094517	3711	336110.0	P	90	LC	76655	4521	1981-01-30	E	toyof
19712	19712	OXBRIDGE RE HOLDINGS LTD	OXBR	G6856M106	1584831	6331	524130.0	P	02	LC	14661	54789	2014-05-09	E	oxbr
19712	19712	OXBRIDGE RE HOLDINGS LTD	OXBR	G6856M106	1584831	6331	524130.0	P	02	LC	14661	54789	2014-05-09	E	oxbrw
19713	19713	ATLANTIC UNION BANKSHRS CRP	AUB	04911A107	883948	6020	522110.0	P	01	LC	79747	12461	1993-10-06	E	aub
19713	19713	ATLANTIC UNION BANKSHRS CRP	AUB	04911A107	883948	6020	522110.0	P	01	LC	79747	12461	1993-10-06	E	aubap
19717	19717	NEUROGENE INC	NGNE	64135M105	1404644	2836	325414.0	P	01	LC	14535	54781	2014-03-07	E	nltx
19718	19718	ACHAOGEN INC	AKAOQ	004449104	1301501	2836	325414.0	P	01	LC	14530	54778	2014-03-12	2021-06-30	
19719	19719	RESONANT INC	RESN	76118L102	1579910	3674	334413.0	P	01	LC	14667	54867	2014-05-29	2022-03-31	
19730	19730	PAYLOCITY HOLDING CORP	PCTY	70438V106	1591698	7370	518210.0	P	01	LC	14547	54790	2014-03-19	E	pcty
19731	19731	ORBITAL CORP LTD	OBTLY	685563504	880419	3510	333618.0	C	90	LC	77155	29363	2011-08-25	2014-06-30	
19731	19731	ORBITAL CORP LTD	OBTLY	685563504	880419	3510	333618.0	C	90	LC	77155	29363	1991-12-04	2004-06-30	
19744	19744	JD.COM INC	JD	47215P106	1549802	5961	449210.0	P	90	LC	14655	54863	2014-05-22	E	jd
19744	19744	JD.COM INC	JD	47215P106	1549802	5961	449210.0	P	90	LC	14655	54863	2014-05-22	E	jdcmf
19747	19747	QUOTIENT TECHNOLOGY INC	QUOT	749119103	1115128	7310	5418.0	P	01	LC	14504	54763	2014-03-07	2023-09-29	quot
19752	19752	INVESTCORP CRDT MNGMT BDC	ICMB	46090R104	1578348	6797	523910.0	P	01	LC	14450	54732	2014-02-06	E	icmb
19753	19753	MAGNITE INC	MGNI	55955D100	1595974	7310	5418.0	P	01	LC	14580	54813	2014-04-02	E	mgni
19770	19770	ANTERO MIDSTREAM PARTNERS LP	AM.2	03673L103	1598968	1311	2111.0	P	01	LC	15031	55091	2014-11-05	E	
19771	19771	GALMED PHARMACEUTICALS LTD	GLMD	M47238148	1595353	2836	325414.0	P	01	LC	14540	54785	2014-03-13	E	glmd
19773	19773	CASTLIGHT HEALTH INC	CSLT	14862Q100	1433714	7370	518210.0	P	01	LC	14502	54761	2014-03-14	2022-02-28	
19784	19784	EAGLE PHARMACEUTICALS INC	EGRX	269796108	827871	2834	325412.0	P	01	LC	14456	54736	2014-02-12	E	egrx
19800	19800	COREPOINT LODGING INC	CPLG	21872L104	1707178	6798	531120.0	P	01	LC	17789	56354	2018-05-31	2022-03-31	
19800	19800	COREPOINT LODGING INC	CPLG	21872L104	1707178	6798	531120.0	P	01	LC	14573	54808	2014-04-09	2018-05-30	
19802	19802	RIMINI STREET INC	RMNI	76674Q107	1635282	7370	541519.0	P	01	LC	15525	55273	2017-10-11	E	rmni
19817	19817	UNIVEST FINANCIAL CORP	UVSP	915271100	102212	6020	522110.0	P	01	LC	89828	44293	2003-08-15	E	uvsp
19824	19824	ANGLOGOLD ASHANTI PLC	AU	G0378L100	1973832	1040	212220.0	J	90	LC	86341	4756	2023-09-01	2023-09-29	
19824	19824	ANGLOGOLD ASHANTI PLC	AU	G0378L100	1973832	1040	212220.0	P	90	LC	86341	4756	1998-08-05	2023-08-31	
19824	19824	ANGLOGOLD ASHANTI PLC	AU	G0378L100	1973832	1040	212220.0	P	90	LC	79899	4756	1982-01-29	1998-06-26	
19824	19824	ANGLOGOLD ASHANTI PLC	AU	G0378L100	1973832	1040	212220.0	P	05	LC	24295	4756	2023-09-25	E	
19843	19843	SMART & FINAL STORES INC	SFS	83190B101	1563407	5411	445110.0	P	01	LC	14915	55015	2014-09-24	2019-06-28	
19849	19849	A10 NETWORKS INC	ATEN	002121101	1580808	7372	513210.0	P	01	LC	14495	54756	2014-03-21	E	aten
19851	19851	CITY OFFICE REIT INC	CIO	178587101	1593222	6798	531120.0	P	01	LC	14559	54800	2014-04-15	E	cio
19851	19851	CITY OFFICE REIT INC	CIO	178587101	1593222	6798	531120.0	P	01	LC	14559	54800	2014-04-15	E	cio-pa
19855	19855	INVENTRUST PROPERTIES CORP	IVT	46124J201	1307748	6798	531120.0	C	01	LC	22128	58796	2021-10-12	E	ivt
19858	19858	VERITIV CORP	VRTV	923454102	1599489	5110	424110.0	P	01	LC	14751	54923	2014-07-02	2023-11-30	vrtv
19859	19859	AKEBIA THERAPEUTICS INC	AKBA	00972D105	1517022	2836	325414.0	P	01	LC	14531	54779	2014-03-20	E	akba
19873	19873	WASHINGTON TR BANCORP INC	WASH	940610108	737468	6020	522110.0	P	01	LU	11397	9239	1987-06-08	E	wash
19877	19877	Q2 HOLDINGS INC	QTWO	74736L109	1410384	7370	518210.0	P	01	LC	14516	54769	2014-03-20	E	qtwo
19881	19881	2U INC	TWOUQ	90214J200	1459417	8200	611310.0	P	01	LC	14554	54796	2014-03-28	2024-09-30	twou
19898	19898	AEROHIVE NETWORKS INC	HIVE.1	007786106	1372414	3576	334118.0	P	01	LC	14498	54758	2014-03-28	2019-08-30	
19906	19906	GRUBHUB INC	GRUB.2	400110102	1594109	7370	519130.0	P	01	LC	14567	54805	2014-04-04	2021-06-30	
19908	19908	FIVE9 INC	FIVN	338307101	1288847	7370	518210.0	P	01	LC	14596	54820	2014-04-04	E	fivn
19909	19909	IKANG HEALTHCARE GROUP -ADR	KANG	45174L108	1524190	8071	621511.0	P	90	LC	14600	54823	2014-04-09	2019-01-31	
19912	19912	CORIUM INTERNATIONAL INC	CORI	21887L107	1594337	2834	325412.0	P	01	LC	14594	54818	2014-04-03	2018-11-30	
19925	19925	TRIPLEPOINT VENTURE GWTH BDC	TPVG	89677Y100	1580345	6797	523910.0	P	01	LC	14522	54773	2014-03-06	E	tpvg
19927	19927	MOELIS & CO	MC	60786M105	1596967	6282	523940.0	P	01	LC	14574	54809	2014-04-16	E	mc
19935	19935	ENLINK MIDSTREAM LLC	ENLC	29336T100	1592000	4922	221210.0	P	01	LC	14505	54764	2014-03-10	E	enlc
19966	19966	CREATIVE MEDIA & COM TR CORP	CMCT	125525527	908311	6798	531120.0	P	01	LC	80014	12702	2014-03-12	E	cmct
19966	19966	CREATIVE MEDIA & COM TR CORP	CMCT	125525527	908311	6798	531120.0	P	01	LC	80014	12702	2014-03-12	E	cmctp
19967	19967	APPLIED GENETIC TECHNOLOGIES	AGTC	03820J100	1273636	2836	325414.0	P	01	LC	14528	54777	2014-03-27	2022-12-30	agtc
19974	19974	SIXTH STREET SPECIALTY LENDI	TSLX	83012A109	1508655	6797	523999.0	P	01	LC	14520	54771	2014-03-21	E	tslx
19977	19977	ENERGOUS CORP	WATT	29272C202	1575793	3690	335999.0	P	01	LC	14556	54798	2014-03-28	E	watt
19988	19988	MEDIWOUND LTD	MDWD	M68830112	1593984	2836	325414.0	P	01	LC	14546	54788	2014-03-20	E	mdwd
19989	19989	AMBER ROAD INC	AMBR.2	02318Y108	1314223	7370	519130.0	P	01	LC	14499	54759	2014-03-21	2019-07-31	
19998	19998	MEDPACE HOLDINGS INC	MEDP	58506Q109	1668397	8731	54171.0	P	01	LC	16260	55672	2016-08-11	E	medp
20003	20003	K2M GROUP HOLDINGS INC	KTWO	48273J107	1499807	3841	339112.0	P	01	LC	14658	54864	2014-05-08	2018-11-30	
20004	20004	WEIBO CORP	WB	948596101	1595761	7370	519290.0	P	90	LC	14616	54836	2014-04-17	E	wb
20009	20009	LEJU HOLDINGS LTD  -ADR	LEJUY	50187J207	1596856	6531	531390.0	P	90	LC	14572	54807	2014-04-17	E	leju
20010	20010	AGILE THERAPEUTICS INC	AGRX	00847L308	1261249	2834	325412.0	P	01	LC	14645	54855	2014-05-23	2024-03-25	agrx
20011	20011	METALLUS INC	MTUS	887399103	1598428	3312	331110.0	P	01	LC	14684	54878	2014-07-01	E	tmst
20018	20018	ALDEYRA THERAPEUTICS INC	ALDX	01438T106	1341235	2836	325414.0	P	01	LC	14647	54857	2014-05-02	E	aldx
20019	20019	CVB FINANCIAL CORP	CVBF	126600105	354647	6020	522110.0	P	01	LU	20395	5856	1983-03-16	E	cvbf
20020	20020	CIVEO CORP	CVEO	17878Y207	1590584	7011	721.0	P	01	LC	14619	54839	2014-06-02	E	cveo
20029	20029	CAPITAL SOUTHWEST CORP	CSWC	140501107	17313	6797	523910.0	P	01	LU	21259	1167	1982-01-29	E	cswc
20033	20033	ALDER BIOPHARMACEUTICALS INC	ALDR	014339105	1423824	2836	325414.0	P	01	LC	14646	54856	2014-05-08	2019-10-31	
20040	20040	SCYNEXIS INC	SCYX	811292200	1178253	2836	325414.0	P	01	LC	14668	54868	2014-05-02	E	scyx
20041	20041	TCTM KIDS IT EDUCAT INC -ADR	TCTM	876108200	1592560	8200	611420.0	P	90	LC	14611	54833	2014-04-03	E	tedu
20042	20042	ADAMAS PHARMACEUTICALS INC	ADMS	00548A106	1328143	2834	325412.0	P	01	LC	14589	54816	2014-04-10	2021-11-30	
20044	20044	BGSF INC	BGSF	05601C105	1474903	7363	561330.0	P	01	LC	14951	55040	2014-10-27	E	bgsf
20067	20067	INTERCONTINENTAL HOTELS GRP	IHG	45857P806	858446	7011	721110.0	P	90	LC	89704	43982	2003-04-15	E	ihg
20067	20067	INTERCONTINENTAL HOTELS GRP	IHG	45857P806	858446	7011	721110.0	P	90	LC	76089	26031	1990-02-13	2003-04-11	ihg
20088	20088	BOX INC	BOX	10316T104	1372612	7370	518210.0	P	01	LC	15145	55158	2015-01-23	E	box
20089	20089	TERMINIX GLOBAL HOLDINGS INC	TMX	88087E100	1428875	7340	561710.0	P	01	LC	14750	54920	2014-06-26	2022-10-31	tmx
20096	20096	CANOPY GROWTH CORP	CGC	138035704	1737927	2833	325411.0	P	01	LC	17827	56384	2018-06-09	E	cgc
20105	20105	FS KKR CAPITAL CORP	FSK	302635206	1422183	6797	523910.0	P	01	LC	14565	54803	2014-04-16	E	fsk
20113	20113	ZOE'S KITCHEN INC	ZOES	98979J109	1594879	5812	722511.0	P	01	LC	14588	54815	2014-04-11	2018-11-30	
20115	20115	PHIBRO ANIMAL HEALTH CORP	PAHC	71742Q106	1069899	2833	325411.0	P	01	LC	14603	54826	2014-04-11	E	pahc
20116	20116	PAYCOM SOFTWARE INC	PAYC	70432V102	1590955	7370	518210.0	P	01	LC	14579	54812	2014-04-15	E	payc
20126	20126	ADVANCED DRAINAGE SYSTEMS	WMS	00790R104	1604028	3080	326122.0	P	01	LC	14759	54929	2014-07-25	E	wms
20128	20128	CHEETAH MOBILE INC  -ADR	CMCM	163075203	1597835	7372	513210.0	P	90	LC	14618	54838	2014-05-08	E	cmcm
20129	20129	MATERIALISE NV	MTLS	57667T100	1091223	7372	513210.0	P	90	LC	14705	54896	2014-06-25	E	mtls
20130	20130	ATLANTICA SUSTAINABLE INFRA	AY	G0751N103	1601072	4991	2211.0	P	01	LC	14687	54880	2014-06-13	E	ay
20135	20135	QUOTIENT LTD	QTNTQ	G73268149	1596946	2835	325413.0	P	02	LC	14666	54829	2014-05-27	2023-06-30	qtnt
20143	20143	CARECLOUD INC	CCLD	14167R100	1582982	7370	519290.0	P	01	LC	14818	54964	2014-07-23	E	mtbc
20143	20143	CARECLOUD INC	CCLD	14167R100	1582982	7370	519290.0	P	01	LC	14818	54964	2014-07-23	E	mtbcp
20143	20143	CARECLOUD INC	CCLD	14167R100	1582982	7370	519290.0	P	01	LC	14818	54964	2014-07-23	E	mtbco
20147	20147	SUPERIOR DRILLING PRODUCTS	SDPI	868153107	1600422	3533	333132.0	P	01	LC	14636	54848	2014-05-23	2024-08-30	sdpi
20170	20170	TUNIU CORP  -ADR	TOUR	89977P106	1597095	4700	561520.0	P	90	LC	14676	54874	2014-05-09	E	tour
20179	20179	GASLOG PARTNERS LP	GLOP	Y2687W108	1598655	4412	483111.0	P	01	LC	14643	54853	2014-05-07	2023-07-31	glop
20179	20179	GASLOG PARTNERS LP	GLOP	Y2687W108	1598655	4412	483111.0	P	01	LC	14643	54853	2014-05-07	2023-07-31	glop-pa
20179	20179	GASLOG PARTNERS LP	GLOP	Y2687W108	1598655	4412	483111.0	P	01	LC	14643	54853	2014-05-07	2023-07-31	glop-pb
20179	20179	GASLOG PARTNERS LP	GLOP	Y2687W108	1598655	4412	483111.0	P	01	LC	14643	54853	2014-05-07	2023-07-31	glop-pc
20185	20185	SCOTTS MIRACLE-GRO CO	SMG	810186106	825542	2870	3253.0	P	01	LU	77300	11324	1992-01-31	E	smg
20196	20196	LUXOTTICA GROUP SPA	LUXTY	55068R202	857471	3851	339115.0	P	90	LU	75937	22148	1990-01-24	E	
20204	20204	ICONIX BRAND GROUP INC	ICON.1	451055305	857737	6794	533110.0	C	01	LU	76215	10467	1990-01-22	2021-08-31	
20214	20214	ENERPLUS CORP	ERF	292766102	1126874	1311	2111.0	P	01	LC	88818	41005	2000-11-17	2024-06-28	erf
20225	20225	MINERVA NEUROSCIENCES INC	NERV	603380205	1598646	2836	325414.0	P	01	LC	14822	54967	2014-07-01	E	nerv
20228	20228	CATALENT INC	CTLT	148806102	1596783	2834	325412.0	P	01	LC	14763	54931	2014-07-31	2024-12-31	ctlt
20229	20229	ZENDESK INC	ZEN	98936J101	1463172	7370	518210.0	P	01	LC	14641	54851	2014-05-15	2022-11-30	zen
20232	20232	KEYSIGHT TECHNOLOGIES INC	KEYS	49338L103	1601046	3825	334515.0	P	01	LC	14939	55033	2014-11-03	E	keys
20233	20233	THERAVANCE BIOPHARMA INC	TBPH	G8807B106	1583107	2836	325414.0	P	01	LC	14674	54872	2014-06-03	E	tbph
20235	20235	DNOW INC	DNOW	67011P100	1599617	5084	423830.0	P	01	LC	14632	54844	2014-06-02	E	dnow
20277	20277	OPUS BANK	OPB	684000102	1697463	6020	522110.0	P	01	LC	14602	54825	2014-04-16	2020-06-30	
20298	20298	PARSLEY ENERGY INC	PE	701877102	1594466	1311	211120.0	P	01	LC	14634	54846	2014-05-23	2021-01-29	
20299	20299	LIVE OAK BANCSHARES INC	LOB	53803X105	1462120	6020	522110.0	P	01	LC	15527	55361	2015-07-23	E	lob
20330	20330	MOBILEIRON INC	MOBL	60739U204	1470099	7370	519130.0	P	01	LC	14697	54892	2014-06-12	2020-12-31	
20338	20338	PRIMO BRANDS CORP	PRMB	741623102	2042694	2086	312111.0	P	01	LC	78763	29637	1992-06-16	2024-11-10	
20338	20338	PRIMO BRANDS CORP	PRMB	741623102	2042694	2086	312111.0	P	01	LC	25773	60058	2024-11-11	E	
20339	20339	STREET CAPITAL GROUP INC	CXSNF	86326Q108	939897	6162	522292.0	C	01	LU	81535	29155	1995-04-24	2004-08-18	
20344	20344	WASHINGTON PRIME GROUP INC	WPGGQ	93964W405	1594686	6798	531120.0	P	01	LC	14638	54850	2014-05-29	2021-10-29	
20407	20407	PAPA MURPHY'S HOLDINGS INC	FRSH.2	698814100	1592379	5812	722513.0	P	01	LC	14654	54862	2014-05-02	2019-05-31	
20412	20412	ARES MANAGEMENT CORP	ARES	03990B101	1176948	6282	523940.0	P	01	LC	14617	54837	2014-05-02	E	ares
20420	20420	ORION SA	OEC	L72967109	1609804	2890	325180.0	P	01	LC	14786	54944	2014-07-25	E	oec
20422	20422	HERITAGE INSURANCE HOLDINGS	HRTG	42727J102	1598665	6331	524126.0	P	01	LC	14625	54841	2014-05-23	E	hrtg
20423	20423	CAESARS ENTERTAINMENT CORP	CZR.3	127686103	858339	7990	721120.0	P	01	LC	76090	26032	1990-02-26	2008-01-31	
20423	20423	CAESARS ENTERTAINMENT CORP	CZR.3	127686103	858339	7990	721120.0	P	02	LC	13267	53998	2012-02-08	2020-07-31	
20430	20430	SLM CORP	SLM	78442P106	1032033	6141	522291.0	P	01	LC	66325	6412	2014-05-30	E	slm
20430	20430	SLM CORP	SLM	78442P106	1032033	6141	522291.0	P	01	LC	66325	6412	2014-05-30	E	slmbp
20441	20441	GWG HOLDINGS INC	GWGHQ	36192A109	1522690	6799	523999.0	P	01	LC	14930	55026	2014-09-25	2023-07-31	gwghq
20473	20473	WESTLAKE CHEMICAL PRTNRS LP	WLKP	960417103	1604665	2860	325199.0	P	01	LC	14783	54941	2014-07-30	E	wlkp
20488	20488	GOLDEN STAR RESOURCES LTD	GSS	38119T807	903571	1040	212221.0	C	01	LU	79636	29964	1993-09-01	2022-01-31	gss
20496	20496	ATENTO SA	ATTOF	L0427L204	1606457	7374	518210.0	P	01	LC	14986	55063	2014-10-02	2023-07-21	atto
20502	20502	RAYONIER ADVANCED MATERIALS	RYAM	75508B104	1597672	2820	3252.0	P	01	LC	14682	54876	2014-06-30	E	ryam
20513	20513	MONTAGE RESOURCES CORP	MR	61179L100	1600470	1311	211130.0	P	01	LC	14719	54912	2014-06-20	2020-11-13	
20517	20517	LIMBACH HOLDINGS INC	LMB	53263P105	1606163	1700	238.0	P	02	LC	14877	54976	2016-11-16	E	lmb
20517	20517	LIMBACH HOLDINGS INC	LMB	53263P105	1606163	1700	238.0	P	02	LC	14877	54976	2014-08-07	2016-07-11	lmb
20530	20530	ALIBABA GROUP HLDG	BABA	01609W102	1577552	5961	455110.0	P	90	LC	14888	55003	2014-09-19	E	baba
20530	20530	ALIBABA GROUP HLDG	BABA	01609W102	1577552	5961	455110.0	P	90	LC	14888	55003	2014-09-19	E	babaf
20534	20534	VIPER ENERGY INC	VNOM	927959106	1602065	6792	533110.0	P	01	LC	15139	54901	2014-06-18	E	vnom
20539	20539	PBF LOGISTICS LP	PBFX	69318Q104	1582568	4610	486110.0	P	01	LC	14633	54845	2014-05-09	2022-12-30	pbfx
20540	20540	TRUECAR INC	TRUE	89785L107	1327318	7370	519290.0	P	01	LC	14677	54875	2014-05-16	E	true
20548	20548	COTERRA ENERGY INC	CTRA	127097103	858470	1311	2111.0	P	01	LU	76082	26024	1990-02-08	E	ctra
20550	20550	ALCENTRA CAPITAL CORP	ABDC.1	01374T102	1578620	6797	523910.0	P	01	LC	14644	54854	2014-05-09	2020-01-31	
20567	20567	MARINUS PHARMACEUTICALS INC	MRNS	56854Q200	1267813	2836	325414.0	P	01	LC	14815	54963	2014-07-31	E	mrns
20570	20570	MDC PARTNERS INC	MDCA	552697104	0	7311	541810.0	C	01	LC	81527	30875	1995-04-17	2021-08-02	
20600	20600	NOVAGOLD RESOURCES LTD	NG	66987E206	1173420	1040	212220.0	P	01	LC	89965	44718	2003-12-02	E	ng
20619	20619	NEXEO SOLUTIONS INC	NXEO	65342H102	1604416	5160	4246.0	P	02	LC	14881	54902	2014-08-29	2019-02-28	
20621	20621	DERMTECH INC	DMTKQ	24984K105	1651944	2835	325413.0	P	02	LC	16880	55985	2019-08-30	E	dmtk
20644	20644	GOPRO INC	GPRO	38268T103	1500435	3861	333310.0	P	01	LC	14694	54888	2014-06-26	E	gpro
20645	20645	ARDELYX INC	ARDX	039697107	1437402	2836	325414.0	P	01	LC	14690	54883	2014-06-19	E	ardx
20649	20649	SYNDAX PHARMACEUTICALS INC	SNDX	87164F105	1395937	2836	325414.0	P	01	LC	15976	55537	2016-03-03	E	sndx
20653	20653	DENBURY INC	DEN	24790A101	945764	1311	2111.0	P	01	LC	82196	13960	1995-08-25	2020-07-29	den
20653	20653	DENBURY INC	DEN	24790A101	945764	1311	2111.0	P	01	LC	82196	13960	1995-08-25	2020-07-29	dnrrw
20653	20653	DENBURY INC	DEN	24790A101	945764	1311	2111.0	P	03	LC	19752	13960	2020-09-21	2023-11-30	den
20653	20653	DENBURY INC	DEN	24790A101	945764	1311	2111.0	P	03	LC	19752	13960	2020-09-21	2023-11-30	dnrrw
20659	20659	AMPHASTAR PHARMACEUTICLS INC	AMPH	03209R103	1297184	2834	325412.0	P	01	LC	14688	54881	2014-06-25	E	amph
20661	20661	V2X INC	VVX	92242T101	1601548	8744	561210.0	P	01	LC	14884	55001	2014-09-29	E	vvx
20670	20670	PAN AMERICAN SILVER CORP	PAAS	697900108	771992	1040	212222.0	P	01	LU	81734	13771	1995-06-12	E	paas
20670	20670	PAN AMERICAN SILVER CORP	PAAS	697900108	771992	1040	212222.0	P	01	LU	81734	13771	1995-06-12	E	paasf
20677	20677	FIRST FOUNDATION INC	FFWM	32026V104	1413837	6020	522110.0	P	01	LC	15064	55109	2014-11-03	E	ffwm
20683	20683	PENGROWTH ENERGY CORP	PGHEF	70706P104	1088166	1311	211130.0	P	04	LC	90271	43027	2006-07-27	2020-01-31	
20683	20683	PENGROWTH ENERGY CORP	PGHEF	70706P104	1088166	1311	211130.0	J	01	LC	90271	43027	2006-07-01	2006-07-26	
20683	20683	PENGROWTH ENERGY CORP	PGHEF	70706P104	1088166	1311	211130.0	P	01	LC	90271	43027	2004-07-28	2006-06-30	
20683	20683	PENGROWTH ENERGY CORP	PGHEF	70706P104	1088166	1311	211130.0	P	01	LC	89381	43027	2002-04-10	2004-07-27	
20684	20684	OBSIDIAN ENERGY LTD	OBE	674482203	1334388	1311	2111.0	P	01	LC	91305	50844	2022-01-31	E	obe
20684	20684	OBSIDIAN ENERGY LTD	OBE	674482203	1334388	1311	2111.0	P	01	LC	91305	50844	2006-06-22	2020-04-01	obe
20686	20686	SYNCHRONY FINANCIAL	SYF	87165B103	1601712	6141	522291.0	P	01	LC	14776	54936	2014-07-31	E	syf
20686	20686	SYNCHRONY FINANCIAL	SYF	87165B103	1601712	6141	522291.0	P	01	LC	14776	54936	2014-07-31	E	syf-pa
20692	20692	KIMBALL ELECTRONICS INC	KE	49428J109	1606757	3674	334413.0	P	01	LC	14942	55035	2014-11-03	E	ke
20695	20695	PRECISION DRILLING CORP	PDS	74022D407	1013605	1381	213111.0	P	01	LC	90999	31116	2005-11-16	E	pds
20695	20695	PRECISION DRILLING CORP	PDS	74022D407	1013605	1381	213111.0	P	01	LC	84155	31116	1996-11-15	2005-11-06	pds
20696	20696	MASONITE INTERNATIONAL CORP	DOOR	575385109	893691	2430	321911.0	P	01	LC	79146	29669	1998-04-30	2005-04-06	door
20696	20696	MASONITE INTERNATIONAL CORP	DOOR	575385109	893691	2430	321911.0	P	03	LC	14177	54569	2013-09-09	2024-05-14	door
20699	20699	LIBERTY TRIPADVISOR HOLDINGS	LTRPA	531465102	1606745	7370	519290.0	J	02	LC	14873	54995	2014-08-28	E	ltrpa
20699	20699	LIBERTY TRIPADVISOR HOLDINGS	LTRPA	531465102	1606745	7370	519290.0	J	02	LC	14873	54995	2014-08-28	E	ltrpb
20699	20699	LIBERTY TRIPADVISOR HOLDINGS	LTRPA	531465102	1606745	7370	519290.0	P	01	LC	14872	54995	2014-08-28	E	ltrpa
20699	20699	LIBERTY TRIPADVISOR HOLDINGS	LTRPA	531465102	1606745	7370	519290.0	P	01	LC	14872	54995	2014-08-28	E	ltrpb
20720	20720	RELMADA THERAPEUTICS INC	RLMD	75955J402	1553643	2834	325412.0	P	01	LC	19024	56921	2019-10-10	E	rlmd
20739	20739	TERRAFORM POWER INC	TERP	88104R209	1599947	4911	221114.0	P	01	LC	14831	54975	2014-07-18	2020-07-31	
20740	20740	VIA RENEWABLES INC	VIA	92556D304	1606268	4931	2211.0	P	01	LC	14830	54973	2014-07-29	2024-06-28	via
20740	20740	VIA RENEWABLES INC	VIA	92556D304	1606268	4931	2211.0	P	01	LC	14830	54973	2014-07-29	2024-06-28	viasp
20742	20742	ZAFGEN INC	ZFGN	98885E103	0	2836	325414.0	P	01	LC	14711	54904	2014-06-19	2020-05-28	
20748	20748	ARISTA NETWORKS INC	ANET	040413205	1596532	3576	334118.0	P	01	LC	14714	54907	2014-06-06	E	anet
20756	20756	MATINAS BIOPHARMA HLDGS INC	MTNB	576810303	1582554	2836	325414.0	P	01	LC	16613	55876	2017-03-02	E	mtnb
20779	20779	CISCO SYSTEMS INC	CSCO	17275R102	858877	3576	334118.0	P	01	LC	76076	10486	1990-02-16	E	csco
20791	20791	BLACKSTONE MORTGAGE TR INC	BXMT	09257W100	1061630	6798	525990.0	P	01	LC	62156	20378	1990-03-30	E	bxmt
20798	20798	PFENEX INC	PFNX	717071104	1478121	2836	325414.0	P	01	LC	14774	54934	2014-07-24	2020-09-30	
20823	20823	HEALTHEQUITY INC	HQY	42226A107	1428336	6324	524114.0	P	01	LC	14803	54955	2014-07-31	E	hqy
20904	20904	HOLOGIC INC	HOLX	436440101	859737	3844	334517.0	P	01	LC	76095	10504	1990-03-01	E	holx
20935	20935	TRUPANION INC	TRUP	898202106	1371285	6399	524128.0	P	01	LC	14782	54940	2014-07-18	E	trup
20943	20943	SAGE THERAPEUTICS INC	SAGE	78667J108	1597553	2836	325414.0	P	01	LC	14828	54971	2014-07-18	E	sage
20944	20944	SHELL MIDSTREAM PARTNERS LP	SHLX	822634101	1610466	4610	486.0	P	01	LC	14980	55057	2014-10-29	2022-10-31	shlx
20945	20945	IRADIMED CORP	IRMD	46266A109	1325618	3841	339112.0	P	01	LC	14807	54958	2014-07-16	E	irmd
20959	20959	PLYMOUTH INDL REIT INC	PLYM	729640102	1515816	6798	531120.0	P	01	LC	16768	55973	2017-06-09	E	plym
20959	20959	PLYMOUTH INDL REIT INC	PLYM	729640102	1515816	6798	531120.0	P	01	LC	16768	55973	2017-06-09	E	plym-pa
20960	20960	CANNAE HOLDINGS INC	CNNE	13765N107	1704720	5812	722511.0	P	01	LC	17036	56119	2017-11-18	E	cnne
20960	20960	CANNAE HOLDINGS INC	CNNE	13765N107	1704720	5812	722511.0	P	01	LC	14685	47864	2014-07-01	2017-11-17	cnne
20961	20961	ANTERIX INC	ATEX	03676C100	1304492	4899	517810.0	P	01	LC	15226	55200	2015-02-03	E	atex
21000	21000	HELIUS MEDICAL TECHNOLOGIES	HSDT	42328V801	1610853	3845	334510.0	P	01	LC	17690	56338	2018-04-11	E	hsdt
21002	21002	CYBERARK SOFTWARE LTD	CYBR	M2682V108	1598110	7372	513210.0	P	01	LC	14928	55024	2014-09-24	E	cybr
21003	21003	ZOSANO PHARMA CORP	ZSANQ	98979H301	1587221	2834	325412.0	P	01	LC	15187	55177	2015-01-27	2022-12-30	zsanq
21004	21004	LANTHEUS HOLDINGS INC	LNTH	516544103	1521036	2835	325413.0	P	01	LC	15429	55313	2015-06-25	E	lnth
21006	21006	INTERSECT ENT INC	XENT	46071F103	1271214	3842	339113.0	P	01	LC	14836	54980	2014-07-24	2022-05-31	
21008	21008	IMMUNE DESIGN CORP	IMDZ	45252L103	1437786	2836	325414.0	P	01	LC	14805	54956	2014-07-24	E	
21012	21012	ATARA BIOTHERAPEUTICS INC	ATRA	046513206	1604464	2836	325414.0	P	01	LC	14991	55066	2014-10-16	E	atra
21015	21015	OCULAR THERAPEUTIX INC	OCUL	67576A100	1393434	2836	325414.0	P	01	LC	14823	54968	2014-07-25	E	ocul
21016	21016	LOXO ONCOLOGY INC	LOXO	548862101	1581720	2836	325414.0	P	01	LC	14871	54994	2014-08-01	2019-02-28	
21019	21019	ACADIAN ASSET MANAGEMENT INC	AAMI	10948W103	1748824	6282	523940.0	P	01	LC	14985	55062	2014-10-09	E	bsig
21020	21020	ADVERUM BIOTECHNOLOGIES	ADVM	00773U207	1501756	2836	325414.0	P	01	LC	14790	54946	2014-07-25	E	advm
21032	21032	VIKING THERAPEUTICS INC	VKTX	92686J106	1607678	2836	325414.0	P	01	LC	15303	55236	2015-04-29	E	vktx
21033	21033	T2 BIOSYSTEMS INC	TTOO	89853L302	1492674	2835	325413.0	P	01	LC	14879	54998	2014-08-07	E	ttoo
21035	21035	RUMBLEON INC	RMBL	781386305	1596961	5500	441227.0	P	01	LC	16999	56105	2017-10-19	E	rmbl
21042	21042	AKOUSTIS TECHNOLOGIES INC	AKTSQ	00973N102	1584754	3679	334419.0	P	01	LC	16625	55883	2017-03-13	E	akts
21047	21047	DIPLOMAT PHARMACY INC	DPLO	25456K101	1610092	5912	446110.0	P	01	LC	14954	55043	2014-10-10	2020-02-28	
21048	21048	HOEGH LNG PARTNERS LP	HMLP	Y3262R100	1603016	4412	483111.0	P	01	LC	14857	54987	2014-08-07	2022-09-30	hmlp
21048	21048	HOEGH LNG PARTNERS LP	HMLP	Y3262R100	1603016	4412	483111.0	P	01	LC	14857	54987	2014-08-07	2022-09-30	hmlp-pa
21103	21103	LIFEWARD LTD	LFWD	M8216Q119	1607962	3842	339113.0	P	01	LC	14936	55030	2014-09-12	E	rwlk
21118	21118	ACCELERATE DIAGNOSTICS INC	AXDX	00430H201	727207	2835	325413.0	C	01	LU	84184	15158	1996-11-19	E	axdx
21124	21124	EL POLLO LOCO HOLDINGS INC	LOCO	268603107	1606366	5812	722511.0	P	01	LC	14812	54960	2014-07-25	E	loco
21145	21145	OTONOMY INC	OTIC	68906L105	1493566	2836	325414.0	P	01	LC	14874	54996	2014-08-13	2023-04-28	otic
21150	21150	ASTERIAS BIOTHERAPEUTICS INC	AST	04624N107	1572552	2836	325414.0	P	01	LC	14950	55039	2014-10-08	2019-03-29	
21155	21155	ILLUMIN HOLDINGS INC	ILLMF	45232V106	1861233	7370	519130.0	P	01	LC	21517	58430	2021-06-10	2023-09-08	aty
21165	21165	INDEPENDENCE CONTRACT DRLLNG	ICDIQ	453415606	1537028	1381	213111.0	P	01	LC	14852	54984	2014-08-08	2024-08-28	icd
21178	21178	NEWAGE INC	NBEVQ	650194103	1579823	2834	325412.0	P	01	LC	16593	55865	2017-02-14	2023-05-05	nbevq
21178	21178	NEWAGE INC	NBEVQ	650194103	1579823	2834	325412.0	P	01	LC	16593	55865	2017-02-14	2023-05-05	nbev
21208	21208	ALTAMIRA THERAPEUTICS LTD	CYTOF	G0360L134	1601936	2836	325414.0	P	01	LC	14865	54992	2014-08-06	2024-12-19	cyto
21209	21209	NOTABLE LABS LTD	NTBLQ	M7517R107	1603207	2836	325414.0	P	01	LC	15020	54979	2014-10-01	E	vblt
21227	21227	LIBERTY BROADBAND CORP	LBRDK	530307305	1611983	4812	517112.0	P	02	LC	14988	55037	2015-07-01	E	lbrda
21227	21227	LIBERTY BROADBAND CORP	LBRDK	530307305	1611983	4812	517112.0	P	02	LC	14988	55037	2015-07-01	E	lbrdb
21227	21227	LIBERTY BROADBAND CORP	LBRDK	530307305	1611983	4812	517112.0	P	02	LC	14988	55037	2015-07-01	E	lbrdk
21227	21227	LIBERTY BROADBAND CORP	LBRDK	530307305	1611983	4812	517112.0	P	02	LC	14988	55037	2015-07-01	E	lbrdp
21227	21227	LIBERTY BROADBAND CORP	LBRDK	530307305	1611983	4812	517112.0	J	02	LC	14988	55037	2014-11-05	2015-06-30	lbrda
21227	21227	LIBERTY BROADBAND CORP	LBRDK	530307305	1611983	4812	517112.0	J	02	LC	14988	55037	2014-11-05	2015-06-30	lbrdb
21227	21227	LIBERTY BROADBAND CORP	LBRDK	530307305	1611983	4812	517112.0	J	02	LC	14988	55037	2014-11-05	2015-06-30	lbrdk
21227	21227	LIBERTY BROADBAND CORP	LBRDK	530307305	1611983	4812	517112.0	J	02	LC	14988	55037	2014-11-05	2015-06-30	lbrdp
21227	21227	LIBERTY BROADBAND CORP	LBRDK	530307305	1611983	4812	517112.0	J	01	LC	14944	55037	2015-07-01	E	lbrda
21227	21227	LIBERTY BROADBAND CORP	LBRDK	530307305	1611983	4812	517112.0	J	01	LC	14944	55037	2015-07-01	E	lbrdb
21227	21227	LIBERTY BROADBAND CORP	LBRDK	530307305	1611983	4812	517112.0	J	01	LC	14944	55037	2015-07-01	E	lbrdk
21227	21227	LIBERTY BROADBAND CORP	LBRDK	530307305	1611983	4812	517112.0	J	01	LC	14944	55037	2015-07-01	E	lbrdp
21227	21227	LIBERTY BROADBAND CORP	LBRDK	530307305	1611983	4812	517112.0	P	01	LC	14944	55037	2014-11-05	2015-06-30	lbrda
21227	21227	LIBERTY BROADBAND CORP	LBRDK	530307305	1611983	4812	517112.0	P	01	LC	14944	55037	2014-11-05	2015-06-30	lbrdb
21227	21227	LIBERTY BROADBAND CORP	LBRDK	530307305	1611983	4812	517112.0	P	01	LC	14944	55037	2014-11-05	2015-06-30	lbrdk
21227	21227	LIBERTY BROADBAND CORP	LBRDK	530307305	1611983	4812	517112.0	P	01	LC	14944	55037	2014-11-05	2015-06-30	lbrdp
21232	21232	NTN BUZZTIME INC	NTN	629410606	0	7370	519130.0	P	02	LC	76963	11101	1991-08-29	2021-03-25	
21237	21237	TETRA TECHNOLOGIES INC/DE	TTI	88162F105	844965	1389	213112.0	P	01	LU	76127	10544	1990-04-03	E	tti
21238	21238	VICOR CORP	VICR	925815102	751978	3679	334419.0	P	01	LU	76128	10545	1990-04-03	E	vicr
21263	21263	PANBELA THERAPEUTICS INC	PBLA	69833W404	1029125	2836	325414.0	P	01	LC	19650	57252	2020-08-28	2024-03-06	pbla
21326	21326	GREEN BANCORP INC	GNBC	39260X100	1606363	6020	522110.0	P	01	LC	14870	54993	2014-08-08	2018-12-31	
21352	21352	AVANOS MEDICAL INC	AVNS	05350V106	1606498	3842	339113.0	P	01	LC	14941	55034	2014-11-03	E	avns
21421	21421	VIVANI MEDICAL INC	VANI	92854B109	1266806	3845	334510.0	P	01	LC	15062	55108	2014-11-19	E	vani
21421	21421	VIVANI MEDICAL INC	VANI	92854B109	1266806	3845	334510.0	P	01	LC	15062	55108	2014-11-19	E	eyes
21421	21421	VIVANI MEDICAL INC	VANI	92854B109	1266806	3845	334510.0	P	01	LC	15062	55108	2014-11-19	E	vaniw
21429	21429	GRANITE CONSTRUCTION INC	GVA	387328107	861459	1600	237310.0	P	01	LU	76135	10561	1990-04-20	E	gva
21431	21431	CALIFORNIA RESOURCES CORP	CRC	13057Q305	1609253	1311	211120.0	P	02	LC	20188	55089	2020-10-28	E	crc
21431	21431	CALIFORNIA RESOURCES CORP	CRC	13057Q305	1609253	1311	211120.0	P	02	LC	20188	55089	2020-10-28	E	crcqw
21431	21431	CALIFORNIA RESOURCES CORP	CRC	13057Q305	1609253	1311	211120.0	P	01	LC	15029	55089	2014-12-01	2020-07-15	crc
21431	21431	CALIFORNIA RESOURCES CORP	CRC	13057Q305	1609253	1311	211120.0	P	01	LC	15029	55089	2014-12-01	2020-07-15	crcqw
21433	21433	ZAYO GROUP HOLDINGS INC	ZAYO	98919V105	1608249	4899	517919.0	P	01	LC	14984	55061	2014-10-17	2020-03-31	
21440	21440	LANDSTAR SYSTEM INC	LSTR	515098101	853816	4213	484121.0	P	01	LU	78981	28858	1993-03-05	E	lstr
21451	21451	CNOVA NV	CNVAF	N20947102	1609653	5961	454111.0	C	01	LC	15060	55106	2014-11-20	2017-03-03	
21503	21503	KEMPER CORP/DE	KMPR	488401100	860748	6331	524126.0	P	01	LU	76136	10563	1990-04-23	E	kmpr
21503	21503	KEMPER CORP/DE	KMPR	488401100	860748	6331	524126.0	P	01	LU	76136	10563	1990-04-23	E	kmpb
21515	21515	UNIVAR SOLUTIONS INC	UNVR	91336L107	1494319	5160	424690.0	P	01	LC	15482	55337	2015-06-18	2023-08-31	unvr
21520	21520	CORINDUS VASCULAR ROBOTICS	CVRS	218730109	1528557	3845	334510.0	P	01	LC	15344	55254	2015-05-29	2019-10-31	
21522	21522	VYNE THERAPEUTICS INC	VYNE	92941V308	1566044	2834	325412.0	P	01	LC	17266	56233	2020-03-07	E	vyne
21522	21522	VYNE THERAPEUTICS INC	VYNE	92941V308	1566044	2834	325412.0	P	01	LC	14929	55025	2014-09-18	2020-03-06	vyne
21540	21540	WAYFAIR INC	W	94419L101	1616707	5961	449129.0	P	01	LC	14983	55060	2014-10-02	E	w
21542	21542	AAON INC	AAON	000360206	824142	3585	333415.0	P	01	LU	76868	10817	1991-01-03	E	aaon
21547	21547	MEDLEY MANAGEMENT INC	MDLM	58503T205	1611110	6282	523920.0	C	01	LC	14908	55013	2014-09-24	E	
21554	21554	CREATIVE REALITIES INC	CREX	22530J309	1356093	7372	513210.0	P	01	LC	18255	56587	2018-11-15	E	crex
21554	21554	CREATIVE REALITIES INC	CREX	22530J309	1356093	7372	513210.0	P	01	LC	18255	56587	2018-11-15	E	crexw
21577	21577	ORGANIGRAM HOLDINGS INC	OGI	68620P705	1620737	2834	325412.0	P	01	LC	18667	56749	2019-05-21	E	ogi
21593	21593	CIVISTA BANCSHARES INC	CIVB	178867107	944745	6020	522110.0	P	01	LC	88965	41460	2001-04-02	E	civb
21601	21601	RHYTHM PHARMACEUTICLS	RYTM	76243J105	1649904	2836	325414.0	P	01	LC	17000	56106	2017-10-05	E	rytm
21604	21604	PARAMOUNT GROUP INC	PGRE	69924R108	1605607	6798	531120.0	P	01	LC	15048	55097	2014-11-19	E	pgre
21616	21616	GREAT WESTERN BANCORP INC	GWB	391416104	1613665	6020	522110.0	P	01	LC	14969	55050	2014-10-15	2022-02-28	
21617	21617	DERMIRA INC	DERM.2	24983L104	1557883	2836	325414.0	P	01	LC	15003	55072	2014-10-03	2020-02-28	
21626	21626	VIVINT SOLAR INC	VSLR	92854Q106	1607716	3620	335999.0	P	01	LC	14982	55059	2014-10-01	2020-10-08	
21627	21627	CALITHERA BIOSCIENCES INC	CALA	13089P507	1496671	2836	325414.0	P	01	LC	14995	55070	2014-10-02	E	cala
21628	21628	USD PARTNERS LP	USDP	903318103	1610682	4610	486110.0	P	01	LC	14981	55058	2014-10-09	E	usdp
21630	21630	STORE CAPITAL CORP	STOR	862121100	1538990	6798	531120.0	P	01	LC	15052	55098	2014-11-18	2023-02-28	stor
21633	21633	VERITEX HOLDINGS INC	VBTX	923451108	1501570	6020	522110.0	P	01	LC	15022	55085	2014-10-09	E	vbtx
21635	21635	AFFIMED NV	AFMD	N01045207	1608390	2836	325414.0	P	01	LC	14923	55020	2014-09-12	E	afmd
21652	21652	CNX MIDSTREAM PARTNERS LP	CNXM	12654A101	1610418	4922	486210.0	P	01	LC	14898	55008	2014-09-25	2020-09-30	
21739	21739	PRA HEALTH SCIENCES INC	PRAH	69354M108	1613859	8731	54171.0	P	01	LC	15079	55119	2014-11-13	2021-07-30	
21743	21743	NVE CORP	NVEC	629445206	724910	3674	334413.0	P	01	LC	89655	43861	2003-01-22	E	nvec
21743	21743	NVE CORP	NVEC	629445206	724910	3674	334413.0	P	01	LC	83955	14951	1996-09-11	1998-07-17	nvec
21744	21744	XENON PHARMACEUTICALS INC	XENE	98420N105	1582313	2836	325414.0	P	01	LC	15089	55126	2014-11-05	E	xene
21761	21761	CDK GLOBAL INC	CDK	12508E101	1609702	7370	519130.0	P	01	LC	14926	55023	2014-10-01	2022-07-29	
21777	21777	MERIT MEDICAL SYSTEMS INC	MMSI	589889104	856982	3841	339112.0	P	01	LU	76392	10512	1990-05-10	E	mmsi
21798	21798	FRESHPET INC	FRPT	358039105	1611647	2040	311111.0	P	01	LC	15067	55111	2014-11-07	E	frpt
21799	21799	VICTORY CPTL HLDGS INC	VCTR	92645B103	1570827	6282	523940.0	P	01	LC	17332	56280	2018-02-08	E	vctr
21808	21808	CAESARS ENTERTAINMENT INC	CZR	12769G100	1590895	7990	713210.0	P	01	LC	14882	55000	2014-09-19	E	czr
21815	21815	TRIUMPH FINANCIAL INC	TFIN	89679E300	1539638	6036	522120.0	P	01	LC	15084	55123	2014-11-07	E	tbk
21815	21815	TRIUMPH FINANCIAL INC	TFIN	89679E300	1539638	6036	522120.0	P	01	LC	15084	55123	2014-11-07	E	tbkcp
21816	21816	TRAVELPORT WORLDWIDE LTD	TVPT	G9019D104	1424755	7370	519130.0	P	01	LC	14918	55018	2014-09-25	2019-05-31	
21825	21825	CITIZENS FINANCIAL GROUP INC	CFG	174610105	759944	6020	522110.0	P	01	LC	14889	55006	2014-09-24	E	cfg
21825	21825	CITIZENS FINANCIAL GROUP INC	CFG	174610105	759944	6020	522110.0	P	01	LC	14889	55006	2014-09-24	E	cfg-pd
21825	21825	CITIZENS FINANCIAL GROUP INC	CFG	174610105	759944	6020	522110.0	P	01	LC	14889	55006	2014-09-24	E	cfg-pe
21833	21833	HESS MIDSTREAM LP	HESM	428103105	1789832	1311	211130.0	P	01	LC	19098	56962	2019-12-17	E	hesm
21833	21833	HESS MIDSTREAM LP	HESM	428103105	1789832	1311	211130.0	P	01	LC	16665	55910	2017-04-05	2019-12-16	hesm
21834	21834	MAMMOTH ENERGY SERVICES INC	TUSK	56155L108	1679268	1389	213112.0	P	01	LC	16401	55760	2016-10-14	E	tusk
21838	21838	VIVEVE MEDICAL INC	VIVE	92852W501	879682	3845	334510.0	P	01	LC	16112	55594	2016-06-14	E	vive
21841	21841	COHERUS BIOSCIENCES INC	CHRS	19249H103	1512762	2836	325414.0	P	01	LC	15059	55105	2014-11-06	E	chrs
21847	21847	HUBSPOT INC	HUBS	443573100	1404655	7370	518210.0	P	01	LC	14970	55051	2014-10-09	E	hubs
21864	21864	CGI INC	GIB	12532H104	1061574	7373	541512.0	P	01	LC	86372	34886	1998-10-07	E	gib
21867	21867	MEDEQUITIES REALTY TRUST INC	MRT.4	58409L306	1616314	6798	531120.0	P	02	LC	16332	55707	2016-09-29	2019-05-31	
21898	21898	BOOT BARN HOLDINGS INC	BOOT	099406100	1610250	5661	458210.0	P	01	LC	14953	55042	2014-10-30	E	boot
21901	21901	FIBROGEN INC	FGEN	31572Q808	921299	2836	325414.0	P	01	LC	15065	55110	2014-11-14	E	fgen
21904	21904	PANGAEA LOGISTICS SOLUTIONS	PANL	G6891L105	1606909	4412	483111.0	P	01	LC	14353	54616	2014-10-03	E	panl
21916	21916	NEVRO CORP	NVRO	64157F103	1444380	3845	334510.0	P	01	LC	15046	55095	2014-11-06	E	nvro
21967	21967	POLYPID LTD	PYPD	M8001Q126	1611842	2834	325412.0	P	01	LC	19487	57129	2020-06-26	E	pypd
21983	21983	HABIT RESTAURANTS INC (THE)	HABT	40449J103	1617977	5812	722511.0	P	01	LC	15068	55112	2014-11-20	2020-03-31	
21984	21984	VERB TECHNOLOGY CO INC	VERB	92337U302	1566610	7370	518210.0	P	01	LC	18568	56713	2019-04-05	E	verb
21984	21984	VERB TECHNOLOGY CO INC	VERB	92337U302	1566610	7370	518210.0	P	01	LC	18568	56713	2019-04-05	E	verbw
22000	22000	WORKIVA INC	WK	98139A105	1445305	7370	518210.0	P	01	LC	15119	55141	2014-12-12	E	wk
22025	22025	NEW SENIOR INVESTMENT GROUP	SNR	648691103	1610114	6798	531110.0	P	01	LC	14974	55054	2014-11-07	2021-09-30	
22035	22035	CORBUS PHARMACEUTICALS HLDGS	CRBP	21833P301	1595097	2836	325414.0	P	01	LC	15287	55227	2015-04-30	E	crbp
22037	22037	SIENTRA INC	SIENQ	82621J204	1551693	3842	339113.0	P	01	LC	15016	55084	2014-10-29	2024-06-30	sien
22039	22039	SYNEOS HEALTH INC	SYNH	87166B102	1610950	8731	54171.0	P	01	LC	15071	55113	2014-11-07	2023-09-29	synh
22040	22040	UPLAND SOFTWARE INC	UPLD	91544A109	1505155	7370	518210.0	P	01	LC	15087	55124	2014-11-06	E	upld
22047	22047	GREEN BRICK PARTNERS INC	GRBK	392709101	1373670	1531	236117.0	P	01	LC	92089	52369	2014-10-28	E	grbk
22047	22047	GREEN BRICK PARTNERS INC	GRBK	392709101	1373670	1531	236117.0	P	01	LC	92089	52369	2014-10-28	E	grbk-pa
22049	22049	DOREL INDUSTRIES INC	DIIBF	25822C205	843405	2511	337122.0	P	02	LC	86061	16094	1998-05-08	2007-03-16	
22053	22053	CONTANGO OIL & GAS CO	MCF	21075N204	1071993	1311	2111.0	P	02	LC	88871	41163	2001-01-18	2021-12-08	
22082	22082	JOINT CORP (THE)	JYNT	47973J102	1612630	6794	533110.0	P	01	LC	15072	55114	2014-11-11	E	jynt
22119	22119	ASHFORD INC	AINC	044104107	1604738	6282	523940.0	P	01	LC	15028	55088	2014-11-13	2024-07-31	ainc
22124	22124	LANDMARK INFRAST PRTNS LP	LMRK	51508J108	1615346	6519	531190.0	P	01	LC	15140	55115	2014-11-14	2021-12-31	
22134	22134	AXALTA COATING SYSTEMS LTD	AXTA	G0750C108	1616862	2851	325510.0	P	01	LC	15053	55099	2014-11-12	E	axta
22155	22155	FLOOR & DECOR HLDGS	FND	339750101	1507079	5211	444180.0	P	01	LC	16664	55909	2017-04-27	E	fnd
22164	22164	HELLO GROUP INC	MOMO	423403104	1610601	7370	519290.0	P	90	LC	15135	55152	2014-12-11	E	momo
22165	22165	ON DECK CAPITAL INC	ONDK	682163100	1420811	6159	522298.0	P	01	LC	15110	55135	2014-12-17	2020-10-30	
22178	22178	HORTONWORKS INC	HDP	440894103	1610532	7372	511210.0	P	01	LC	15128	55147	2014-12-12	2019-01-31	
22180	22180	UNIQUE FABRICATING INC	UFABQ	90915J103	1617669	3714	336390.0	P	01	LC	15590	55381	2015-07-01	E	ufab
22182	22182	NEW RELIC INC	NEWR	64829B100	1448056	7370	519290.0	P	01	LC	15108	55133	2014-12-12	2023-11-30	newr
22201	22201	COUNTY BANCORP INC	ICBK	221907108	1470205	6020	522110.0	P	01	LC	15180	55171	2015-01-16	2021-12-06	
22207	22207	TRUEBLUE INC	TBI	89785X101	768899	7363	561320.0	P	01	LU	83671	14722	1996-06-13	E	tbi
22258	22258	BELLICUM PHARMACEUTICALS INC	BLCM	079481404	1358403	2836	325414.0	P	01	LC	15125	55143	2014-12-18	2024-03-05	blcm
22260	22260	HCA HEALTHCARE INC	HCA	40412C101	860730	8062	622110.0	P	02	LC	76171	10604	1990-05-17	2006-11-30	hca
22260	22260	HCA HEALTHCARE INC	HCA	40412C101	860730	8062	622110.0	P	04	LC	12622	53696	2011-03-10	E	hca
22284	22284	SMART SAND INC	SND	83191H107	1529628	1400	212322.0	P	01	LC	16471	55794	2016-11-04	E	snd
22325	22325	XILINX INC	XLNX	983919101	743988	3674	334413.0	P	01	LU	76201	10634	1990-06-12	2022-02-28	
22343	22343	KLX INC	KLXI	482539103	1617898	5080	423860.0	P	01	LC	15091	55128	2014-12-17	2018-10-31	
22367	22367	VINE ENERGY INC	VEI	92735P103	1693853	1311	2111.0	P	02	LC	20736	58049	2021-04-30	2021-11-02	
22373	22373	GENASYS INC	GNSS	36872P103	924383	3651	334310.0	P	01	LC	87053	16636	1999-07-07	E	gnss
22387	22387	TILRAY BRANDS INC	TLRY	88688T100	1731348	2834	325412.0	P	01	LC	18221	56575	2018-11-02	2021-04-30	tlry
22387	22387	TILRAY BRANDS INC	TLRY	88688T100	1731348	2834	325412.0	P	02	LC	17977	56465	2021-05-01	E	tlry
22410	22410	INDIVIOR PLC	INDV	G4766E116	1625297	2834	325412.0	P	01	LC	24016	59592	2023-06-12	E	
22439	22439	CURO GROUP HLDGS CORP	CUROQ	23131L107	1711291	6141	522291.0	P	01	LC	17178	56190	2017-12-07	E	curo
22447	22447	PAR PACIFIC HOLDINGS INC	PARR	69888T207	821483	2911	324110.0	C	01	LC	79259	12195	1993-06-11	2011-12-27	parr
22447	22447	PAR PACIFIC HOLDINGS INC	PARR	69888T207	821483	2911	324110.0	P	02	LC	14773	54933	2014-07-22	E	parr
22449	22449	AURORA CANNABIS INC	ACB	05156X850	1683541	2834	325412.0	P	01	LC	18151	56545	2018-10-23	E	acb
22459	22459	URBAN EDGE PROPERTIES	UE	91704F104	1611547	6798	531120.0	P	01	LC	15142	55155	2015-01-16	E	ue
22460	22460	CRONOS GROUP INC	CRON	22717L101	1656472	2834	325412.0	P	01	LC	17316	56268	2018-02-27	E	cron
22543	22543	GOOD TIMES RESTAURANTS INC	GTIM	382140879	825324	5812	722513.0	C	01	LU	76360	10651	1990-06-22	E	gtim
22583	22583	GMS INC	GMS	36251C103	1600438	5030	4233.0	P	01	LC	16076	55577	2016-05-31	E	gms
22590	22590	PALVELLA THERAPEUTICS INC	PVLA	697947109	1583648	2836	325414.0	P	01	LC	15433	55317	2015-06-30	E	pirs
22603	22603	SUMMIT MATERIALS INC	SUM	86614U100	1621563	1400	212312.0	P	01	LC	15264	55208	2015-03-12	E	sum
22604	22604	ASCENDIS PHARMA AS	ASND	04351P101	1612042	2836	325414.0	P	90	LC	15171	55166	2015-01-28	E	asnd
22629	22629	INFRAREIT INC	HIFR	45685L100	1506401	6798	531190.0	P	01	LC	15159	55160	2015-01-30	2019-05-31	
22632	22632	LANNETT CO INC	LCINQ	516012200	57725	2834	325412.0	P	01	LC	89369	43014	2002-04-15	2023-06-30	lci
22638	22638	ZOOMINFO TECHNO INC	ZI	98980F104	1794515	7370	518210.0	P	01	LC	19405	57093	2020-06-04	E	zi
22653	22653	VISTA OUTDOOR INC	VSTO	928377100	1616318	3480	33299.0	P	01	LC	15168	55163	2015-02-10	2024-11-29	vsto
22671	22671	EARTHSTONE ENERGY INC	ESTE	27032D304	10254	1311	211120.0	P	01	LC	17073	677	2014-12-20	2023-11-30	este
22672	22672	SHAKE SHACK INC	SHAK	819047101	1620533	5812	722513.0	P	01	LC	15167	55162	2015-01-30	E	shak
22674	22674	EASTERLY GOVERNMENT PPTYS	DEA	27616P103	1622194	6798	531120.0	P	01	LC	15194	55181	2015-02-06	E	dea
22675	22675	HAILIANG EDUCATION GRP -ADR	HLG	40522L108	1596964	8200	611110.0	P	90	LC	15526	55360	2015-07-07	2022-09-30	
22697	22697	TRACON PHARMACEUTICALS INC	TCON	89237H308	1394319	2836	325414.0	P	01	LC	15184	55175	2015-01-30	2024-12-03	tcon
22703	22703	GREENPOWER MOTOR CO INC	GP	39540E302	1584547	3713	336211.0	P	01	LC	19629	57236	2020-08-28	E	gp
22704	22704	AVINGER INC	AVGR	053734877	1506928	3841	339112.0	P	01	LC	15172	55167	2015-01-30	E	avgr
22708	22708	INOVALON HOLDINGS INC	INOV.1	45781D101	1619954	7370	518210.0	P	01	LC	15220	55195	2015-02-12	2021-11-30	
22709	22709	SPARK THERAPEUTICS INC	ONCE	84652J103	1609351	2836	325414.0	P	01	LC	15183	55173	2015-01-30	2019-12-31	
22713	22713	HTG MOLECULAR DIAGNOSTICS	HTGMQ	40434H302	1169987	2835	325413.0	P	01	LC	15374	55274	2015-05-06	E	htgm
22731	22731	PATRIOT TRANSPORTATION HLDG	PATI	70338W105	1616741	4213	484230.0	P	01	LC	15144	55157	2015-02-02	2023-12-29	pati
22741	22741	CHEMOURS CO	CC	163851108	1627223	2860	325130.0	P	01	LC	15398	55290	2015-07-01	E	cc
22772	22772	UQM TECHNOLOGIES INC	UQM	903213106	315449	3621	335312.0	P	01	LU	77486	29472	1992-03-18	2019-07-31	
22783	22783	KENON HOLDINGS LTD	KEN	Y46717107	1611005	4991	22111.0	P	01	LC	15170	55165	2015-01-14	E	ken
22803	22803	COHBAR INC	CWBR	19249J307	1522602	2836	325414.0	P	01	LC	17139	56170	2017-12-15	2023-11-28	cwbr
22815	22815	TRIMBLE INC	TRMB	896239100	864749	3829	334519.0	P	01	LU	76230	10691	1990-07-20	E	trmb
22817	22817	VERU INC	VERU	92536C103	863894	3060	326299.0	P	01	LU	76461	10684	1990-07-19	E	veru
22853	22853	RITHM PROPERTY TRUST INC	RPT	38983D300	1614806	6798	525990.0	P	01	LC	15196	55182	2015-02-13	E	ajx
22853	22853	RITHM PROPERTY TRUST INC	RPT	38983D300	1614806	6798	525990.0	P	01	LC	15196	55182	2015-02-13	E	ajxa
22867	22867	INVITAE CORP	NVTAQ	46185L103	1501134	8071	621511.0	P	01	LC	15198	55184	2015-02-12	2024-08-08	nvta
22983	22983	XENIA HOTELS & RESORTS INC	XHR	984017103	1616000	6798	531120.0	P	01	LC	15216	55188	2015-02-04	E	xhr
23002	23002	COMSTOCK RESOURCES INC -OLD	CRK.5	20599D932	0	1311	211111.0	P	02	LC	11644	9465	1987-08-28	2018-08-13	
23027	23027	EXPONENT INC	EXPO	30214U102	851520	8742	541614.0	P	01	LU	76261	10724	1990-08-17	E	expo
23071	23071	GODADDY INC	GDDY	380237107	1609711	7370	518210.0	P	01	LC	15315	55241	2015-04-01	E	gddy
23072	23072	EQT GP HOLDINGS LP	EQGP	26885J103	1632933	4922	486210.0	P	01	LC	15349	55255	2015-05-12	2019-01-31	
23077	23077	UNITI GROUP INC	UNIT	91325V108	1620280	6798	531120.0	P	01	LC	15279	55220	2015-04-27	E	unit
23083	23083	ENERGIZER HOLDINGS INC	ENR	29272W109	1632790	3690	335910.0	P	01	LC	15400	55292	2015-07-01	E	enr
23084	23084	BENCHMARK ELECTRONICS INC	BHE	08160H101	863436	3672	334412.0	P	01	LU	76224	26087	1990-06-27	E	bhe
23086	23086	NEXPOINT RESIDENTIAL TR INC	NXRT	65341D102	1620393	6798	531110.0	P	01	LC	15231	55202	2015-04-01	E	nxrt
23092	23092	VALERITAS HOLDINGS INC	VLRXQ	91914N301	1619250	3841	339112.0	P	01	LC	16647	55897	2017-03-23	2020-06-30	
23093	23093	FORTERRA INC	FRTA	34960W106	1678463	3272	327332.0	P	01	LC	16384	55749	2016-10-20	2022-03-31	
23098	23098	ARCADIA BIOSCIENCES INC	RKDA	039014303	1469443	100	111.0	P	01	LC	15382	55280	2015-05-15	E	rkda
23106	23106	VIEWRAY INC	VRAYQ	92672L107	1597313	3845	334510.0	P	01	LC	15978	55538	2016-03-31	E	vray
23109	23109	GENESIS HEALTHCARE INC	GENN	37185X106	1351051	8051	623110.0	P	01	LC	92020	52278	2015-02-03	2021-03-25	genn
23119	23119	SOLAREDGE TECHNOLOGIES INC	SEDG	83417M104	1419612	3674	334413.0	P	01	LC	15272	55214	2015-03-26	E	sedg
23147	23147	NATIONAL STORAGE AFFILIATES	NSA	637870106	1618563	6798	531120.0	P	01	LC	15323	55242	2015-04-23	E	nsa
23147	23147	NATIONAL STORAGE AFFILIATES	NSA	637870106	1618563	6798	531120.0	P	01	LC	15323	55242	2015-04-23	E	nsa-pa
23150	23150	JERNIGAN CAPITAL INC	JCAP	476405105	1622353	6798	531130.0	P	01	LC	15259	55206	2015-03-27	2020-11-30	
23167	23167	BLUE BIRD CORP	BLBD	095306106	1589526	3713	336211.0	P	01	LC	14543	54719	2015-03-02	E	blbd
23195	23195	MATRIX SERVICE CO	MTRX	576853105	866273	1623	237120.0	P	01	LU	76279	10758	1990-09-26	E	mtrx
23208	23208	BARNES & NOBLE EDUCATION INC	BNED	06777U200	1634117	5940	459210.0	P	01	LC	15489	55342	2015-08-03	E	bned
23224	23224	ESCO TECHNOLOGIES INC	ESE	296315104	866706	3825	334515.0	P	01	LU	76478	26113	1990-10-22	E	ese
23225	23225	CABLE ONE INC	CABO	12685J105	1632127	4841	516210.0	P	01	LC	15395	55287	2015-07-01	E	cabo
23226	23226	INUVO INC	INUV	46122W204	829323	7370	519290.0	P	01	LC	90608	46418	2005-03-03	E	inuv
23238	23238	ETSY INC	ETSY	29786A106	1370637	7370	519290.0	P	01	LC	15291	55229	2015-04-16	E	etsy
23241	23241	OPGEN INC	OPGN	68373L505	1293818	2835	325413.0	P	01	LC	15381	55279	2015-05-05	E	opgn
23243	23243	KORNIT DIGITAL LTD	KRNT	M6372Q113	1625791	3555	333248.0	P	01	LC	15295	55231	2015-04-02	E	krnt
23245	23245	TOPBUILD CORP	BLD	89055F103	1633931	1700	238310.0	P	01	LC	15397	55289	2015-07-01	E	bld
23247	23247	PJT PARTNERS INC	PJT	69343T107	1626115	6200	523.0	P	01	LC	15650	55403	2015-10-01	E	pjt
23249	23249	LUMENTUM HOLDINGS INC	LITE	55024U109	1633978	3576	334210.0	P	01	LC	15490	55343	2015-08-04	E	lite
23252	23252	ETHAN ALLEN INTERIORS INC	ETD	297602104	896156	2510	33712.0	P	01	LU	79037	29780	1993-03-16	E	etd
23256	23256	TALLGRASS ENERGY GROUP LP	TGE	874696107	1633651	4922	486210.0	P	01	LC	15359	55260	2015-05-07	2020-04-30	
23291	23291	BIOLASE INC	BIOLQ	090911702	811240	3843	339114.0	P	01	LC	78071	11801	1992-11-12	2024-06-18	biol
23294	23294	NATIONAL COMMERCE CORP	NCOM	63546L102	1609951	6020	522110.0	P	01	LC	15270	55213	2015-03-19	E	
23296	23296	ENVIVA INC	EVVAQ	29415B103	1592057	2400	321999.0	P	01	LC	15313	55240	2015-04-29	2024-12-09	eva
23337	23337	TYME TECHNOLOGIES INC	TYME	90238J103	1537917	2836	325414.0	P	01	LC	16834	56016	2017-07-31	2022-09-30	tyme
23339	23339	ZEVRA THERAPEUTICS INC	ZVRA	488445206	1434647	2834	325412.0	P	01	LC	15294	55230	2021-01-08	E	kmph
23339	23339	ZEVRA THERAPEUTICS INC	ZVRA	488445206	1434647	2834	325412.0	P	01	LC	15294	55230	2015-04-16	2020-05-20	kmph
23353	23353	GOLDMAN SACHS BDC INC	GSBD	38147U107	1572694	6797	523910.0	P	01	LC	15244	55205	2015-03-18	E	gsbd
23407	23407	BLUEPRINT MEDICINES CORP	BPMC	09627Y109	1597264	2836	325414.0	P	01	LC	15284	55224	2015-04-30	E	bpmc
23432	23432	VIRTU FINANCIAL INC	VIRT	928254101	1592386	6211	523150.0	P	01	LC	15302	55235	2015-04-16	E	virt
23433	23433	BLACK STONE MINERALS LP	BSM	09225M101	1621434	1311	2111.0	P	01	LC	15340	55252	2015-05-01	E	bsm
23464	23464	OPTIMIZERX CORP	OPRX	68401U204	1448431	7370	518210.0	C	01	LC	17895	56419	2018-06-22	E	oprx
23485	23485	COVANTA HOLDING CORP	CVA	22282E102	225648	4950	562119.0	P	01	LU	76515	28924	1990-12-06	2021-11-30	
23500	23500	CATHAY GENERAL BANCORP	CATY	149150104	861842	6020	522110.0	P	01	LU	76504	10805	1990-12-14	E	caty
23537	23537	CONSOL COAL RESOURCES LP	CCR	20855T100	1637558	1220	212112.0	P	01	LC	15550	55374	2015-07-01	2020-12-31	
23540	23540	HORIZON GLOBAL CORP	HZN	44052W104	1637655	3714	336390.0	P	01	LC	15399	55291	2015-07-01	2023-02-28	hzn
23552	23552	PROFESSIONAL HOLDING CORP	PFHD	743139107	1630856	6020	522110.0	P	01	LC	19252	57031	2020-02-07	2023-01-31	pfhd
23555	23555	COLLEGIUM PHARMACEUTICAL INC	COLL	19459J104	1267565	2834	325412.0	P	01	LC	15371	55270	2015-05-07	E	coll
23556	23556	COMMUNITY HEALTHCARE TRUST	CHCT	20369C106	1631569	6798	531120.0	P	01	LC	15343	55253	2015-05-21	E	chct
23557	23557	DAVIDSTEA INC	DTEAF	238661102	1627606	5400	445299.0	P	01	LC	15425	55308	2015-06-05	2023-04-14	dtea
23569	23569	MILACRON HOLDINGS CORP	MCRN	59870L106	1637913	3559	333249.0	P	01	LC	15466	55331	2015-06-25	2019-11-29	
23574	23574	ADAPTIMMUNE THERAPEUTICS	ADAP	00653A107	1621227	2836	325414.0	P	90	LC	15361	55262	2015-05-06	E	adap
23587	23587	HAYNES INTERNATIONAL INC	HAYN	420877201	858655	3310	331110.0	P	02	LC	91902	29231	2007-03-20	2024-11-29	hayn
23594	23594	BOJANGLES' INC	BOJA	097488100	1630132	5812	722513.0	P	01	LC	15363	55264	2015-05-08	2019-01-31	
23623	23623	SANARA MEDTECH INC	SMTI	79957L100	714256	3842	339113.0	C	01	LC	76928	10836	2020-11-02	E	smti
23623	23623	SANARA MEDTECH INC	SMTI	79957L100	714256	3842	339113.0	C	01	LU	76928	10836	1991-03-08	1992-08-17	smti
23627	23627	ATYR PHARMA INC	ATYR	002120202	1339970	2836	325414.0	P	01	LC	15378	55276	2015-05-07	E	life
23650	23650	SHOPIFY INC	SHOP	82509L107	1594805	7370	519130.0	P	01	LC	15358	55259	2015-05-21	E	shop
23667	23667	KONINKLIJKE AHOLD DELHAIZE	ADRNY	500467501	854499	5411	445110.0	P	90	LC	76616	10882	1991-04-08	2007-09-19	
23671	23671	NOKIA OYJ	NOK	654902204	924613	3663	334220.0	P	90	LC	87128	30453	1995-04-25	E	nok
23671	23671	NOKIA OYJ	NOK	654902204	924613	3663	334220.0	P	90	LC	87128	30453	1995-04-25	E	nokbf
23697	23697	SONIC CORP	SONC	835451105	868611	5812	722513.0	P	01	LU	76568	10843	1991-02-28	2018-12-31	
23698	23698	ALTABANCORP	ALTA	021347109	1636286	6020	522110.0	P	01	LC	15435	55319	2015-06-11	2021-09-30	
23703	23703	BAOZUN INC	BZUN	06684L103	1625414	5961	458110.0	P	90	LC	15365	55266	2015-05-21	E	bzun
23704	23704	INVUITY INC	IVTY	46187J205	1393020	3841	339112.0	P	01	LC	15428	55312	2015-06-15	2018-10-31	
23705	23705	PAVMED INC	PAVM	70387R403	1624326	3841	339112.0	P	02	LC	16181	55547	2016-07-27	E	pavm
23705	23705	PAVMED INC	PAVM	70387R403	1624326	3841	339112.0	P	02	LC	16181	55547	2016-07-27	E	pavmz
23714	23714	COMMUNITY HEALTH SYSTEMS INC	CYH	203668108	1108109	8062	622110.0	C	01	LC	88284	37664	2000-06-09	E	cyh
23714	23714	COMMUNITY HEALTH SYSTEMS INC	CYH	203668108	1108109	8062	622110.0	C	01	LC	76578	10849	1991-03-07	1996-07-09	cyh
23768	23768	VIDLER WATER RESOURCES INC	VWTR	92660E107	830122	6552	237210.0	P	01	LC	76586	10867	1991-03-21	2022-05-31	vwtr
23793	23793	PS BUSINESS PARKS	PSB	69360J107	866368	6798	531120.0	P	01	LU	76602	29005	1991-03-27	2022-07-29	psb-py
23793	23793	PS BUSINESS PARKS	PSB	69360J107	866368	6798	531120.0	P	01	LU	76602	29005	1991-03-27	2022-07-29	psb-px
23793	23793	PS BUSINESS PARKS	PSB	69360J107	866368	6798	531120.0	P	01	LU	76602	29005	1991-03-27	2022-07-29	psb-pz
23809	23809	AUTOZONE INC	AZO	053332102	866787	5531	441330.0	P	01	LU	76605	29009	1991-04-02	E	azo
23810	23810	ION GEOPHYSICAL CORP	IOGPQ	462044207	866609	1382	541360.0	P	01	LC	76613	10877	1991-04-02	2022-09-30	iogpq
23812	23812	REGENERON PHARMACEUTICALS	REGN	75886F107	872589	2834	325412.0	P	01	LU	76614	10876	1991-04-02	E	regn
23818	23818	EVOLENT HEALTH INC	EVH	30050B101	1628908	7372	513210.0	P	01	LC	15452	55326	2015-06-05	E	evh
23821	23821	GANNETT CO INC -OLD	GCI.1	36473H104	1635718	2711	511110.0	P	01	LC	15391	55285	2015-06-29	2019-11-29	
23843	23843	WINGSTOP INC	WING	974155103	1636222	5812	722511.0	P	01	LC	15440	55321	2015-06-12	E	wing
23848	23848	BANCO COMERCIAL PORTUGUES SA	BPC.2	059479303	876842	6020	522110.0	J	91	LC	86009	29503	1998-05-15	1998-06-16	
23848	23848	BANCO COMERCIAL PORTUGUES SA	BPC.2	059479303	876842	6020	522110.0	P	90	LC	77642	29503	1992-06-12	2003-09-15	
23856	23856	FITBIT INC	FIT	33812L102	1447599	3663	334220.0	P	01	LC	15390	55284	2015-06-18	2021-01-29	
23864	23864	EXTERRAN CORP	EXTN	30227H106	1635881	1389	213112.0	P	01	LC	15710	55424	2015-11-04	2022-10-31	extn
23865	23865	BABCOCK & WILCOX ENTERPRISES	BW	05614L209	1630805	3510	333611.0	P	01	LC	15396	55288	2015-07-01	E	bw
23865	23865	BABCOCK & WILCOX ENTERPRISES	BW	05614L209	1630805	3510	333611.0	P	01	LC	15396	55288	2015-07-01	E	bwnb
23865	23865	BABCOCK & WILCOX ENTERPRISES	BW	05614L209	1630805	3510	333611.0	P	01	LC	15396	55288	2015-07-01	E	bw-pa
23865	23865	BABCOCK & WILCOX ENTERPRISES	BW	05614L209	1630805	3510	333611.0	P	01	LC	15396	55288	2015-07-01	E	bwsn
23935	23935	MINDBODY INC	MB.3	60255W105	1458962	7370	519130.0	P	01	LC	15430	55314	2015-06-19	2019-02-28	
23977	23977	APPLE HOSPITALITY REIT INC	APLE	03784Y200	1418121	6798	531120.0	P	01	LC	15338	55250	2015-05-18	E	aple
23978	23978	UNITED STATES STEEL CORP	X	912909108	1163302	3312	331110.0	C	01	LU	76644	29028	1991-05-07	E	x
23980	23980	ASTRIA THERAPEUTICS INC	ATXS	04635X102	1454789	2836	325414.0	P	01	LC	15416	55302	2015-06-25	E	atxs
23984	23984	CION INVESTMENT CORP	CION	17259U204	1534254	6797	523910.0	P	01	LC	22099	58791	2021-10-05	E	cion
23985	23985	CORPORATE CAPITAL TR INC	CCT	219880101	1494538	6797	523999.0	P	01	LC	17050	56131	2017-11-14	2018-12-19	
23990	23990	GLAUKOS CORP	GKOS	377322102	1192448	3841	339112.0	P	01	LC	15454	55327	2015-06-25	E	gkos
23996	23996	GLOBAL NET LEASE INC	GNL	379378201	1526113	6798	531120.0	P	01	LC	15455	55328	2015-06-02	E	gnl
23996	23996	GLOBAL NET LEASE INC	GNL	379378201	1526113	6798	531120.0	P	01	LC	15455	55328	2015-06-02	E	gnl-pa
23996	23996	GLOBAL NET LEASE INC	GNL	379378201	1526113	6798	531120.0	P	01	LC	15455	55328	2015-06-02	E	gnl-pb
24005	24005	ABRAXAS PETROLEUM CORP/NV	AXAS	003830304	867665	1311	211120.0	P	01	LU	76888	10924	1991-05-07	2023-06-30	axas
24021	24021	HAEMONETICS CORP	HAE	405024100	313143	3841	339112.0	P	01	LU	76837	2075	1991-05-10	E	hae
24040	24040	IONIS PHARMACEUTICALS INC	IONS	462222100	874015	2836	325414.0	P	01	LU	76661	10937	1991-05-17	E	ions
24071	24071	APPFOLIO INC	APPF	03783C100	1433195	7370	518210.0	P	01	LC	15410	55298	2015-06-26	E	appf
24073	24073	GREEN PLAINS PARTNERS LP	GPP	393221106	1635650	4610	486910.0	P	01	LC	15427	55311	2015-06-26	2024-01-31	gpp
24076	24076	OLLIE'S BARGAIN OUTLET HLDGS	OLLI	681116109	1639300	5331	455219.0	P	01	LC	15535	55366	2015-07-16	E	olli
24083	24083	VERTEX INC	VERX	92538J106	1806837	7370	518210.0	P	01	LC	19506	57143	2020-07-29	E	verx
24084	24084	CONFORMIS INC	CFMS	20717E200	1305773	3842	339113.0	P	01	LC	15496	55347	2015-07-01	2023-09-29	cfms
24096	24096	APEX GLOBAL BRANDS INC	APEX	03755M300	844161	6794	533110.0	P	03	LC	79315	10962	1993-06-29	2021-04-30	
24096	24096	APEX GLOBAL BRANDS INC	APEX	03755M300	844161	6794	533110.0	C	01	LC	76689	10962	1991-06-05	1993-06-01	
24099	24099	LIFETIME BRANDS INC	LCUT	53222Q103	874396	3420	332215.0	P	01	LU	76686	10959	1991-06-05	E	lcut
24116	24116	FIRSTSERVICE CORP	FSV	33767E202	1637810	6531	531311.0	P	01	LC	15336	55248	2015-06-02	E	fsv
24135	24135	ALARM.COM HOLDINGS INC	ALRM	011642105	1459200	7370	518210.0	P	01	LC	15409	55297	2015-06-26	E	alrm
24171	24171	DESIGNER BRANDS INC	DBI	250565108	1319947	5661	458210.0	P	01	LC	90751	46874	2011-05-26	E	dbi
24171	24171	DESIGNER BRANDS INC	DBI	250565108	1319947	5661	458210.0	P	01	LC	76673	29031	1991-06-11	2011-05-25	dbi
24176	24176	NATERA INC	NTRA	632307104	1604821	8071	621511.0	P	01	LC	15534	55365	2015-07-02	E	ntra
24177	24177	SERES THERAPEUTICS INC	MCRB	81750R102	1609809	2836	325414.0	P	01	LC	15431	55315	2015-06-26	E	mcrb
24197	24197	IDEXX LABS INC	IDXX	45168D104	874716	2835	325413.0	P	01	LU	76709	10989	1991-06-21	E	idxx
24199	24199	AMERI HOLDINGS INC	AMRH	02362F302	0	7370	541512.0	P	01	LC	82215	13950	2017-11-17	2020-12-30	
24216	24216	AES CORP (THE)	AES	00130H105	874761	4991	22111.0	P	01	LC	76712	10996	1991-06-26	E	aes
24216	24216	AES CORP (THE)	AES	00130H105	874761	4991	22111.0	P	01	LC	76712	10996	1991-06-26	E	aesc
24216	24216	AES CORP (THE)	AES	00130H105	874761	4991	22111.0	P	01	LC	76712	10996	1991-06-26	E	ipwlk
24216	24216	AES CORP (THE)	AES	00130H105	874761	4991	22111.0	P	01	LC	76712	10996	1991-06-26	E	ipwlo
24225	24225	CORVEL CORP	CRVL	221006109	874866	6411	524298.0	P	01	LU	76721	11003	1991-06-28	E	crvl
24232	24232	HANCOCK WHITNEY CORP	HWC	410120109	750577	6020	522110.0	P	01	LU	76684	10954	1991-06-04	E	hwc
24232	24232	HANCOCK WHITNEY CORP	HWC	410120109	750577	6020	522110.0	P	01	LU	76684	10954	1991-06-04	E	hwcpz
24233	24233	STATE AUTO FINANCIAL CORP	STFC	855707105	874977	6331	524126.0	P	01	LU	76722	11001	1991-06-28	2022-03-31	
24234	24234	LEGACY IMBDS INC	IMBIQ	452465206	870826	5961	455219.0	P	01	LC	77007	11005	1991-06-28	2024-04-02	imbi
24234	24234	LEGACY IMBDS INC	IMBIQ	452465206	870826	5961	455219.0	P	01	LC	77007	11005	1991-06-28	2024-04-02	imbil
24249	24249	TELADOC HEALTH INC	TDOC	87918A105	1477449	8090	621999.0	P	01	LC	15585	55379	2015-07-01	E	tdoc
24277	24277	PROFOUND MEDICAL CORP	PROF	74319B502	1628808	3845	334510.0	P	01	LC	19018	56918	2019-10-29	E	prof
24287	24287	AMBAC FINANCIAL GROUP INC	AMBC	023139884	874501	6351	524126.0	P	01	LC	76757	29052	1991-07-11	2010-11-08	ambc
24287	24287	AMBAC FINANCIAL GROUP INC	AMBC	023139884	874501	6351	524126.0	P	01	LC	76757	29052	1991-07-11	2010-11-08	ambc-wt
24287	24287	AMBAC FINANCIAL GROUP INC	AMBC	023139884	874501	6351	524126.0	P	08	LC	13919	29052	2013-05-01	E	ambc
24287	24287	AMBAC FINANCIAL GROUP INC	AMBC	023139884	874501	6351	524126.0	P	08	LC	13919	29052	2013-05-01	E	ambc-wt
24291	24291	DINE BRANDS GLOBAL INC	DIN	254423106	49754	6794	533110.0	P	01	LU	76732	11018	1991-07-31	E	din
24291	24291	DINE BRANDS GLOBAL INC	DIN	254423106	49754	6794	533110.0	C	00X	LU	76732	11018	1991-07-12	1991-07-30	din
24293	24293	KAISER ALUMINUM CORP	KALU	483007704	811596	3350	331318.0	P	03	LC	91403	23285	2006-07-07	E	kalu
24293	24293	KAISER ALUMINUM CORP	KALU	483007704	811596	3350	331318.0	P	01	LC	76758	23285	1991-07-11	2002-04-02	kalu
24302	24302	ALKERMES PLC	ALKS	G01767105	1520262	2836	325414.0	P	01	LC	76736	11023	1991-07-16	E	alks
24316	24316	MONSTER BEVERAGE CORP	MNST	61174X109	865752	2086	312111.0	P	01	LC	88031	7902	1990-11-08	E	mnst
24318	24318	XL GROUP LTD	XL.1	G98294104	875159	6351	524126.0	P	01	LC	86314	34859	1998-08-18	2018-09-28	
24318	24318	XL GROUP LTD	XL.1	G98294104	875159	6351	524126.0	P	01	LC	76763	29058	1991-07-19	1998-08-07	
24344	24344	VERTEX PHARMACEUTICALS INC	VRTX	92532F100	875320	2836	325414.0	P	01	LU	76744	11042	1991-07-24	E	vrtx
24350	24350	MONRO INC	MNRO	610236101	876427	7500	326212.0	P	01	LU	76750	11052	1991-07-30	E	mnro
24351	24351	LINDBLAD EXPEDITIONS HLDGS	LIND	535219109	1512499	4700	561520.0	P	01	LC	14045	54407	2015-07-09	E	lind
24352	24352	PROGRESS SOFTWARE CORP	PRGS	743312100	876167	7372	513210.0	P	01	LU	76752	11050	1991-07-30	E	prgs
24370	24370	CAMECO CORP	CCJ	13321L108	1009001	1090	212291.0	P	01	LU	83188	29634	1996-03-14	E	ccj
24379	24379	MGIC INVESTMENT CORP/WI	MTG	552848103	876437	6351	524126.0	P	01	LU	76804	29067	1991-08-07	E	mtg
24396	24396	TIVITY HEALTH INC	TVTY	88870R102	704415	8090	621999.0	P	01	LC	76788	11083	1991-08-13	2022-06-30	
24405	24405	ZEBRA TECHNOLOGIES CP  -CL A	ZBRA	989207105	877212	3577	334118.0	P	01	LU	76795	11092	1991-08-15	E	zbra
24415	24415	BMC STOCK HOLDINGS INC	BMCH	05591B109	1574815	5211	444110.0	P	01	LC	76796	11096	1991-08-22	2008-10-28	
24415	24415	BMC STOCK HOLDINGS INC	BMCH	05591B109	1574815	5211	444110.0	P	02	LC	14106	54515	2015-12-02	2021-01-29	
24421	24421	BOXLIGHT CORP	BOXL	103197307	1624512	3861	333310.0	P	01	LC	17107	56151	2017-11-30	E	boxl
24422	24422	AQUA METALS INC	AQMS	03837J200	1621832	4953	562211.0	P	01	LC	15493	55345	2015-07-31	E	aqms
24426	24426	XPENG INC	XPEV	98422D105	1810997	3711	336110.0	P	90	LC	19615	57216	2020-08-27	E	xpev
24426	24426	XPENG INC	XPEV	98422D105	1810997	3711	336110.0	P	90	LC	19615	57216	2020-08-27	E	xpngf
24428	24428	ADDVANTAGE TECHNOLOGIES GP	AEYGQ	006743405	874292	5065	423690.0	C	01	LU	76869	11029	1991-08-27	E	aey
24430	24430	EZCORP INC  -CL A	EZPW	302301106	876523	5900	522299.0	P	01	LU	76798	11099	1991-08-27	E	ezpw
24440	24440	PROASSURANCE CORP	PRA	74267C106	1127703	6331	524126.0	P	01	LU	76838	11103	1991-09-04	E	pra
24447	24447	BOK FINANCIAL CORP	BOKF	05561Q201	875357	6020	522110.0	P	02	LU	76892	11106	1991-09-05	E	bokf
24458	24458	SEASPINE HOLDINGS CORP	SPNE	81255T108	1637761	3842	339113.0	P	01	LC	15407	55295	2015-07-02	2023-01-31	spne
24466	24466	IBERIABANK CORP	IBKC	450828108	933141	6020	522110.0	P	01	LU	81564	13657	1995-04-07	2020-07-31	
24468	24468	BIOGEN INC	BIIB	09062X103	875045	2836	325414.0	P	01	LC	76841	11112	1991-09-17	E	biib
24481	24481	MADISON SQUARE GARDEN SPORTS	MSGS	55825T103	1636519	7900	711110.0	P	01	LC	15649	55402	2015-10-01	E	msgs
24501	24501	RAPID7 INC	RPD	753422104	1560327	7372	513210.0	P	01	LC	15541	55370	2015-07-17	E	rpd
24508	24508	OOMA INC	OOMA	683416101	1327688	4813	517111.0	P	01	LC	15582	55377	2015-07-17	E	ooma
24523	24523	CHIASMA INC	CHMA	16706W102	1339469	2836	325414.0	P	01	LC	15497	55348	2015-07-16	2021-08-31	
24525	24525	JUPAI HOLDINGS LTD -ADR	JPPYY	48205B107	1616291	6282	523940.0	P	90	LC	15577	55375	2015-07-16	E	jppyy
24533	24533	NATIONAL HEALTH INVESTORS	NHI	63633D104	877860	6798	531120.0	P	01	LU	77057	29106	1991-10-09	E	nhi
24544	24544	WILLIAM LYON HOMES	WLH	552074700	1095996	1531	236117.0	P	01	LC	77074	25302	1991-10-11	2006-06-12	
24544	24544	WILLIAM LYON HOMES	WLH	552074700	1095996	1531	236117.0	P	03	LC	13906	25302	2013-05-16	2020-02-28	
24552	24552	DASEKE INC	DSKE	23753F107	1642453	4213	484121.0	P	01	LC	15654	55359	2017-02-28	E	dske
24598	24598	BIOCARDIA INC	BCDA	09060U606	925741	2836	325414.0	P	01	LC	18894	56859	2019-08-02	E	bcda
24598	24598	BIOCARDIA INC	BCDA	09060U606	925741	2836	325414.0	P	01	LC	18894	56859	2019-08-02	E	bcdaw
24599	24599	SPYRE THERAPEUTICS INC	SYRE	00773J202	1636282	2836	325414.0	P	01	LC	16005	55543	2016-04-07	E	agle
24601	24601	CSW INDUSTRIALS INC	CSWI	126402106	1624794	2800	325.0	P	01	LC	15651	55404	2015-10-01	E	cswi
24610	24610	WIRELESS TELECOM GROUP INC	WTT	976524108	878828	3663	334220.0	P	01	LU	77235	11157	1991-10-21	2023-08-31	wtt
24611	24611	SPX FLOW INC	FLOW.2	78469X107	1641991	3561	333914.0	P	01	LC	15647	55400	2015-09-28	2022-04-29	
24616	24616	PAYPAL HOLDINGS INC	PYPL	70450Y103	1633917	7389	522320.0	P	01	LC	15488	55341	2015-07-20	E	pypl
24617	24617	OLD DOMINION FREIGHT	ODFL	679580100	878927	4213	484122.0	P	01	LU	77037	11161	1991-10-24	E	odfl
24620	24620	RYMAN HOSPITALITY PPTYS INC	RHP	78377T107	1040829	6798	531120.0	P	01	LC	85426	32110	1997-10-08	E	rhp
24620	24620	RYMAN HOSPITALITY PPTYS INC	RHP	78377T107	1040829	6798	531120.0	P	01	LC	77062	29109	1991-10-24	1997-09-30	rhp
24625	24625	TOTALENERGIES SE	TTE	89151E109	879764	2911	324110.0	P	90	LU	77078	29122	1991-10-25	E	tte
24625	24625	TOTALENERGIES SE	TTE	89151E109	879764	2911	324110.0	P	90	LU	77078	29122	1991-10-25	E	ttfnf
24638	24638	TRANSUNION	TRU	89400J107	1552033	7323	561450.0	P	01	LC	15478	55335	2015-06-25	E	tru
24658	24658	IDEANOMICS INC	IDEXQ	45166V205	837852	3713	336211.0	P	01	LC	13412	54089	2012-05-30	2024-07-10	idex
24678	24678	HORACE MANN EDUCATORS CORP	HMN	440327104	850141	6331	524126.0	P	01	LU	77120	29347	1991-11-15	E	hmn
24708	24708	ATN INTERNATIONAL INC	ATNI	00215F107	879585	4812	517112.0	P	01	LU	77090	11204	1991-11-14	E	atni
24720	24720	WABASH NATIONAL CORP	WNC	929566107	879526	3715	336212.0	P	01	LU	77117	29327	1991-11-08	E	wnc
24724	24724	LIBERTY LATIN AMERICA LTD	LILAK	G9001E128	1712184	4813	517111.0	J	01	LC	17131	56166	2018-01-01	E	lila
24724	24724	LIBERTY LATIN AMERICA LTD	LILAK	G9001E128	1712184	4813	517111.0	J	01	LC	17131	56166	2018-01-01	E	lilak
24724	24724	LIBERTY LATIN AMERICA LTD	LILAK	G9001E128	1712184	4813	517111.0	J	01	LC	17131	56166	2018-01-01	E	lilab
24724	24724	LIBERTY LATIN AMERICA LTD	LILAK	G9001E128	1712184	4813	517111.0	P	01	LC	17131	56166	2017-12-30	2017-12-31	lila
24724	24724	LIBERTY LATIN AMERICA LTD	LILAK	G9001E128	1712184	4813	517111.0	P	01	LC	17131	56166	2017-12-30	2017-12-31	lilak
24724	24724	LIBERTY LATIN AMERICA LTD	LILAK	G9001E128	1712184	4813	517111.0	P	01	LC	17131	56166	2017-12-30	2017-12-31	lilab
24724	24724	LIBERTY LATIN AMERICA LTD	LILAK	G9001E128	1712184	4813	517111.0	P	02	LC	17130	56166	2018-01-01	E	lila
24724	24724	LIBERTY LATIN AMERICA LTD	LILAK	G9001E128	1712184	4813	517111.0	P	02	LC	17130	56166	2018-01-01	E	lilak
24724	24724	LIBERTY LATIN AMERICA LTD	LILAK	G9001E128	1712184	4813	517111.0	P	02	LC	17130	56166	2018-01-01	E	lilab
24724	24724	LIBERTY LATIN AMERICA LTD	LILAK	G9001E128	1712184	4813	517111.0	J	02	LC	17130	56166	2017-12-30	2017-12-31	lila
24724	24724	LIBERTY LATIN AMERICA LTD	LILAK	G9001E128	1712184	4813	517111.0	J	02	LC	17130	56166	2017-12-30	2017-12-31	lilak
24724	24724	LIBERTY LATIN AMERICA LTD	LILAK	G9001E128	1712184	4813	517111.0	J	02	LC	17130	56166	2017-12-30	2017-12-31	lilab
24724	24724	LIBERTY LATIN AMERICA LTD	LILAK	G9001E128	1712184	4813	517111.0	P	01	LC	15403	45301	2015-07-02	2017-12-29	lila
24724	24724	LIBERTY LATIN AMERICA LTD	LILAK	G9001E128	1712184	4813	517111.0	P	01	LC	15403	45301	2015-07-02	2017-12-29	lilak
24724	24724	LIBERTY LATIN AMERICA LTD	LILAK	G9001E128	1712184	4813	517111.0	P	01	LC	15403	45301	2015-07-02	2017-12-29	lilab
24724	24724	LIBERTY LATIN AMERICA LTD	LILAK	G9001E128	1712184	4813	517111.0	J	02	LC	15402	45301	2015-07-02	2017-12-29	lila
24724	24724	LIBERTY LATIN AMERICA LTD	LILAK	G9001E128	1712184	4813	517111.0	J	02	LC	15402	45301	2015-07-02	2017-12-29	lilak
24724	24724	LIBERTY LATIN AMERICA LTD	LILAK	G9001E128	1712184	4813	517111.0	J	02	LC	15402	45301	2015-07-02	2017-12-29	lilab
24725	24725	WORLD ACCEPTANCE CORP/DE	WRLD	981419104	108385	6141	522291.0	P	01	LU	77114	11225	1991-11-26	E	wrld
24731	24731	KIMCO REALTY CORP	KIM	49446R109	879101	6798	531120.0	P	01	LC	77129	29335	1991-11-22	E	kim
24731	24731	KIMCO REALTY CORP	KIM	49446R109	879101	6798	531120.0	P	01	LC	77129	29335	1991-11-22	E	kim-pm
24731	24731	KIMCO REALTY CORP	KIM	49446R109	879101	6798	531120.0	P	01	LC	77129	29335	1991-11-22	E	kim-pl
24750	24750	WISDOMTREE INC	WT	97717P104	880631	6282	523920.0	P	01	LC	77217	11235	2011-07-26	E	wetf
24750	24750	WISDOMTREE INC	WT	97717P104	880631	6282	523920.0	P	01	LC	77217	11235	1991-12-04	2001-05-22	wetf
24755	24755	SANFILIPPO JOHN B&SON	JBSS	800422107	880117	2060	311911.0	P	01	LU	77165	11238	1991-12-04	E	jbss
24782	24782	PERRIGO CO PLC	PRGO	G97822103	1585364	2834	325412.0	P	01	LU	77182	11257	1991-12-17	E	prgo
24783	24783	TETRA TECH INC	TTEK	88162G103	831641	8711	541620.0	P	01	LU	77191	4589	1991-12-17	E	ttek
24795	24795	AMERICAN SUPERCONDUCTOR CP	AMSC	030111207	880807	3621	335312.0	P	01	LU	77175	11248	1991-12-12	E	amsc
24800	24800	QUALCOMM INC	QCOM	747525103	804328	3674	334413.0	P	01	LU	77178	11253	1991-12-13	E	qcom
24819	24819	MOGO INC	MOGO	60800C208	1602842	6141	522291.0	P	01	LC	17693	56341	2018-04-18	E	mogo
24825	24825	COPT DEFENSE PROPERTIES	CDP	22002T108	860546	6798	531120.0	P	01	LU	77239	11276	1991-12-31	E	ofc
24842	24842	PRECISION OPTICS CORP INC	POCI	740294400	867840	3845	334510.0	P	01	LC	77263	11283	2022-11-16	E	peye
24842	24842	PRECISION OPTICS CORP INC	POCI	740294400	867840	3845	334510.0	P	01	LU	77263	11283	1994-11-30	2005-12-23	peye
24844	24844	SPOK HOLDINGS INC	SPOK	84863T106	1289945	4812	517112.0	P	03	LC	90464	45886	2004-11-17	E	spok
24844	24844	SPOK HOLDINGS INC	SPOK	84863T106	1289945	4812	517112.0	P	03	LC	89385	11287	2003-07-23	2004-11-16	spok
24844	24844	SPOK HOLDINGS INC	SPOK	84863T106	1289945	4812	517112.0	P	03	LC	89385	11287	2002-05-30	2002-06-05	spok
24844	24844	SPOK HOLDINGS INC	SPOK	84863T106	1289945	4812	517112.0	P	01	LC	77265	11287	1992-01-17	2001-04-27	spok
24856	24856	GILEAD SCIENCES INC	GILD	375558103	882095	2836	325414.0	P	01	LU	77274	11300	1992-01-22	E	gild
24861	24861	PLANET FITNESS INC	PLNT	72703H101	1637207	7997	713940.0	P	01	LC	15627	55386	2015-08-06	E	plnt
24878	24878	PDL BIOPHARMA INC	PDLI	69329Y104	882104	2836	325414.0	P	01	LC	77292	11316	1992-01-29	2020-12-31	
24888	24888	ABAXIS INC	ABAX	002567105	881890	3845	334510.0	P	01	LU	77279	11309	1992-01-23	2018-07-31	
24890	24890	MISONIX INC	MSON	604871103	880432	3841	339112.0	P	01	LU	77282	11304	1992-01-23	2021-10-31	
24905	24905	SUNRUN INC	RUN	86771W105	1469367	3620	335999.0	P	01	LC	15643	55396	2015-08-05	E	run
24911	24911	MASTERCRAFT BOAT HLDNGS IN	MCFT	57637H103	1638290	3730	336612.0	P	01	LC	15530	55362	2015-07-17	E	mcft
24912	24912	ACORN ENERGY INC	ACFN	004848206	880984	3812	334511.0	P	01	LC	77327	11335	2007-12-17	2015-07-23	acfn
24912	24912	ACORN ENERGY INC	ACFN	004848206	880984	3812	334511.0	P	01	LC	77327	11335	1992-02-11	2005-01-26	acfn
24925	24925	ROPER TECHNOLOGIES INC	ROP	776696106	882835	7370	518210.0	P	01	LU	77338	11344	1992-02-13	E	rop
24937	24937	MAJESCO	MJCO	56068V102	1626853	7372	511210.0	P	01	LC	15394	55286	2015-06-29	2020-09-30	
24943	24943	INTERTAPE POLYMER GROUP INC	ITPOF	460919103	880224	2670	322220.0	P	01	LC	77318	29438	1992-02-14	2009-12-02	
24975	24975	SYNOPSYS INC	SNPS	871607107	883241	7372	511210.0	P	01	LU	77357	11361	1992-02-26	E	snps
24978	24978	TOPGOLF CALLAWAY BRANDS CORP	MODG	131193104	837465	3949	339920.0	P	01	LU	77366	29432	1992-02-28	E	modg
24978	24978	TOPGOLF CALLAWAY BRANDS CORP	MODG	131193104	837465	3949	339920.0	P	01	LU	77366	29432	1992-02-28	E	ely
24996	24996	LINEAGE CELL THERAPEUTICS IN	LCTX	53566P109	876343	2836	325414.0	P	01	LC	77393	11383	2009-10-30	E	lctx
24996	24996	LINEAGE CELL THERAPEUTICS IN	LCTX	53566P109	876343	2836	325414.0	P	01	LC	77393	11383	1992-03-05	2005-07-14	lctx
25027	25027	LIFEVANTAGE CORP	LFVN	53222K205	849146	2834	325412.0	P	01	LC	13599	54194	2012-09-12	E	lfvn
25030	25030	VIRTUS INVESTMENT PTNRS INC	VRTS	92828Q109	883237	6282	523920.0	C	01	LC	92871	53113	2009-01-02	E	vrts
25030	25030	VIRTUS INVESTMENT PTNRS INC	VRTS	92828Q109	883237	6282	523920.0	C	01	LC	82648	31204	1995-11-02	2001-01-11	vrts
25030	25030	VIRTUS INVESTMENT PTNRS INC	VRTS	92828Q109	883237	6282	523920.0	C	01	LC	77457	29452	1992-03-13	1995-11-01	vrts
25069	25069	USA TRUCK INC	USAK	902925106	883945	4213	484121.0	P	01	LU	77425	11415	1992-03-19	2022-09-30	usak
25077	25077	AIMMUNE THERAPEUTICS INC	AIMT	00900T107	1631650	2836	325414.0	P	01	LC	15630	55389	2015-08-06	2020-10-30	
25092	25092	TASEKO MINES LTD	TGB	876511106	878518	1000	212230.0	P	01	LU	77570	11431	1992-03-25	E	tgb
25105	25105	CONIFER HOLDINGS INC	CNFR	20731J102	1502292	6331	524126.0	P	01	LC	15636	55391	2015-08-13	E	cnfr
25105	25105	CONIFER HOLDINGS INC	CNFR	20731J102	1502292	6331	524126.0	P	01	LC	15636	55391	2015-08-13	E	cnfrl
25108	25108	CHRISTOPHER & BANKS CORP	CBKCQ	171046105	883943	5621	448120.0	C	01	LC	77478	11439	1992-03-31	2019-04-17	cbkcq
25110	25110	ICU MEDICAL INC	ICUI	44930G107	883984	3841	339112.0	P	01	LU	77447	11440	1992-03-31	E	icui
25119	25119	MOHAWK INDUSTRIES INC	MHK	608190104	851968	2273	314110.0	P	01	LU	77496	11446	1992-04-01	E	mhk
25124	25124	LINDE PLC	LIN	G54950103	1707925	2810	325120.0	P	01	LC	77768	29540	1992-07-06	2018-10-30	lin
25124	25124	LINDE PLC	LIN	G54950103	1707925	2810	325120.0	P	01	LC	18143	56540	2018-10-31	E	lin
25128	25128	ZYNERBA PHARMACEUTICALS INC	ZYNE	98986X109	1621443	2834	325412.0	P	01	LC	15646	55399	2015-08-05	2023-10-31	zyne
25130	25130	CORNERSTNE BULDNG BRNDS INC	CNR.5	21925D109	883902	3448	332311.0	P	01	LC	77501	11454	1992-04-03	2022-07-29	
25138	25138	ASURE SOFTWARE INC	ASUR	04649U102	884144	7370	518210.0	P	01	LU	77505	11455	1992-04-07	E	asur
25157	25157	FIRST DATA CORP	FDC	32008D106	883980	7374	518210.0	P	01	LC	77546	29476	1992-04-09	2007-09-24	
25157	25157	FIRST DATA CORP	FDC	32008D106	883980	7374	518210.0	P	02	LC	15703	55419	2015-10-15	2019-07-31	
25166	25166	KOPIN CORP	KOPN	500600101	771266	3674	334413.0	P	01	LU	77515	11469	1992-04-15	E	kopn
25167	25167	TAILORED BRANDS INC	TLRDQ	87403A107	884217	5600	448110.0	P	01	LC	77516	11470	1992-04-15	2020-12-02	
25173	25173	RENASANT CORP	RNST	75970E107	715072	6020	522110.0	P	01	LU	77526	11479	1992-04-21	E	rnst
25180	25180	AGCO CORP	AGCO	001084102	880266	3523	333111.0	P	01	LU	77520	11473	1992-04-16	E	agco
25186	25186	STEIN MART INC	SMRTQ	858375108	884940	5651	448140.0	P	01	LU	77530	11482	1992-04-22	2021-04-30	
25219	25219	HOULIHAN LOKEY INC	HLI	441593100	1302215	6282	523940.0	P	01	LC	15623	55384	2015-08-13	E	hli
25234	25234	BUCKLE INC	BKE	118440106	885245	5651	458110.0	P	01	LU	77584	11506	1992-05-08	E	bke
25274	25274	UNIVERSAL DISPLAY CORP	OLED	91347P105	1005284	3674	334413.0	C	01	LC	77610	11522	1992-05-14	E	oled
25279	25279	BOSTON SCIENTIFIC CORP	BSX	101137107	885725	3845	334510.0	P	01	LU	77605	29489	1992-05-19	E	bsx
25279	25279	BOSTON SCIENTIFIC CORP	BSX	101137107	885725	3845	334510.0	P	01	LU	77605	29489	1992-05-19	E	bsx-pa
25283	25283	KOHL'S CORP	KSS	500255104	885639	5311	455110.0	P	01	LU	77606	29494	1992-05-19	E	kss
25302	25302	INTRUSION INC	INTZ	46121E304	736012	7372	513210.0	C	01	LC	77624	11537	2020-10-09	E	intz
25302	25302	INTRUSION INC	INTZ	46121E304	736012	7372	513210.0	C	01	LC	77624	11537	1992-05-21	2006-10-11	intz
25313	25313	STERIS PLC	STE	G8473T100	1757898	3841	339112.0	P	01	LC	77649	11547	1992-06-01	E	ste
25318	25318	U S PHYSICAL THERAPY INC	USPH	90337L108	885978	8000	621340.0	P	01	LC	77629	11542	1992-05-28	E	usph
25320	25320	DATAWATCH CORP	DWCH	237917208	792130	7372	511210.0	P	01	LU	77630	11545	1992-05-28	2018-12-31	
25331	25331	FRANKLIN COVEY CO	FC	353469109	886206	8200	611430.0	P	01	LU	77637	29506	1992-06-03	E	fc
25338	25338	BED BATH & BEYOND INC	BBBYQ	075896100	886158	5700	449129.0	P	01	LU	77659	11558	1992-06-05	2023-09-30	bbby
25339	25339	CREDIT ACCEPTANCE CORP	CACC	225310101	885550	6141	522220.0	P	01	LU	77660	11561	1992-06-05	E	cacc
25340	25340	D R HORTON INC	DHI	23331A109	882184	1531	236117.0	P	01	LU	77661	11559	1992-06-05	E	dhi
25349	25349	GLOBAL BLOOD THERAPEUTICS	GBT	37890U108	1629137	2836	325414.0	P	01	LC	15638	55393	2015-08-12	2022-10-31	gbt
25356	25356	EXPRESS SCRIPTS HOLDING CO	ESRX	30219G108	1532063	5912	446110.0	P	01	LC	77668	11569	1992-06-09	2018-12-31	
25361	25361	UNIVERSAL HOSPITAL SERVICES	0124A	91399O006	886171	7350	532490.0	P	01	LU	77670	11571	1992-06-09	1998-02-27	
25367	25367	MAGIC SOFTWARE ENTERPRISES	MGIC	559166103	876779	7372	513210.0	C	01	LU	76948	11100	1991-08-28	E	mgic
25376	25376	COLUMBIA BNKING SYS INC -OLD	COLB.1	19799Q933	0	6020	522110.0	P	01	LC	77679	11576	1992-06-16	2023-02-28	
25377	25377	NEOS THERAPEUTICS INC	NEOS	64052L106	1467652	2834	325412.0	P	01	LC	15531	55363	2015-07-23	2021-03-31	
25389	25389	GRAPHIC PACKAGING HOLDING CO	GPK	388689101	1408075	2650	322212.0	P	03	LC	89810	44272	2003-08-11	E	gpk
25389	25389	GRAPHIC PACKAGING HOLDING CO	GPK	388689101	1408075	2650	322212.0	P	01	LC	77695	29515	1992-06-17	1996-03-27	gpk
25424	25424	HOSTESS BRANDS INC	TWNK	44109J106	1644406	2050	311812.0	P	02	LC	15785	55394	2015-11-14	2023-11-30	twnk
25430	25430	FUELCELL ENERGY INC	FCEL	35952H700	886128	3690	335999.0	P	01	LC	77699	11591	1992-06-25	E	fcel
25430	25430	FUELCELL ENERGY INC	FCEL	35952H700	886128	3690	335999.0	P	01	LC	77699	11591	1992-06-25	E	fcelb
25434	25434	STARBUCKS CORP	SBUX	855244109	829224	5812	722513.0	P	01	LU	77702	11592	1992-06-26	E	sbux
25462	25462	STRATUS PROPERTIES INC	STRS	863167201	885508	6552	237210.0	P	01	LU	77790	11600	1992-07-22	E	strs
25466	25466	FERRARI NV	RACE	N3167Y103	1648416	3711	336110.0	P	01	LC	15735	55431	2015-10-21	E	race
25472	25472	LIFEMD INC	LFMD	53216B104	948320	8090	621999.0	P	01	LC	20287	57620	2020-12-10	E	lfmd
25472	25472	LIFEMD INC	LFMD	53216B104	948320	8090	621999.0	P	01	LC	20287	57620	2020-12-10	E	lfmdp
25509	25509	SUPERIOR ENERGY SERVICES INC	SPNX	868157306	886835	1389	213112.0	P	01	LC	77763	11606	2019-12-26	2021-02-04	
25509	25509	SUPERIOR ENERGY SERVICES INC	SPNX	868157306	886835	1389	213112.0	P	01	LC	77763	11606	1992-07-07	2019-09-26	
25529	25529	VIZIO HOLDING CORP	VZIO	92858V101	1835591	3651	334310.0	P	02	LC	20659	58009	2021-03-25	2024-12-31	vzio
25536	25536	CENTRAL GARDEN & PET CO	CENTA	153527205	887733	5140	424490.0	P	03	LC	91815	11617	2007-02-06	E	cent
25536	25536	CENTRAL GARDEN & PET CO	CENTA	153527205	887733	5140	424490.0	P	03	LC	91815	11617	2007-02-06	E	centa
25536	25536	CENTRAL GARDEN & PET CO	CENTA	153527205	887733	5140	424490.0	N	01	LC	77780	11617	2007-02-06	E	cent
25536	25536	CENTRAL GARDEN & PET CO	CENTA	153527205	887733	5140	424490.0	N	01	LC	77780	11617	2007-02-06	E	centa
25536	25536	CENTRAL GARDEN & PET CO	CENTA	153527205	887733	5140	424490.0	C	01	LC	77780	11617	2007-02-01	2007-02-05	cent
25536	25536	CENTRAL GARDEN & PET CO	CENTA	153527205	887733	5140	424490.0	C	01	LC	77780	11617	2007-02-01	2007-02-05	centa
25536	25536	CENTRAL GARDEN & PET CO	CENTA	153527205	887733	5140	424490.0	P	01	LC	77780	11617	1993-07-15	2007-01-31	cent
25536	25536	CENTRAL GARDEN & PET CO	CENTA	153527205	887733	5140	424490.0	P	01	LC	77780	11617	1993-07-15	2007-01-31	centa
25538	25538	SIYATA MOBILE INC	SYTA	83013Q889	1649009	3663	334220.0	C	01	LC	19846	57360	2020-09-25	E	syta
25538	25538	SIYATA MOBILE INC	SYTA	83013Q889	1649009	3663	334220.0	C	01	LC	19846	57360	2020-09-25	E	sytaw
25539	25539	CPI CARD GROUP INC	PMTS	12634H200	1641614	3674	334413.0	P	01	LC	15793	55466	2021-08-05	E	pmts
25539	25539	CPI CARD GROUP INC	PMTS	12634H200	1641614	3674	334413.0	P	01	LC	15793	55466	2015-10-09	2020-01-16	pmts
25572	25572	ENCORE WIRE CORP	WIRE	292562105	850460	3357	331420.0	P	01	LU	77785	11621	1992-07-16	E	wire
25589	25589	AMERICAN RESOURCES CORP	AREC	02927U208	1590715	1220	21211.0	P	01	LC	18396	56641	2019-02-15	E	arec
25589	25589	AMERICAN RESOURCES CORP	AREC	02927U208	1590715	1220	21211.0	P	01	LC	18396	56641	2019-02-15	E	arecw
25632	25632	KENNEDY-WILSON HOLDINGS INC	KW	489398107	1408100	6510	5311.0	P	01	LC	92502	52845	2009-11-17	E	kw
25632	25632	KENNEDY-WILSON HOLDINGS INC	KW	489398107	1408100	6510	5311.0	P	01	LC	77838	11657	1992-08-07	2004-11-01	kw
25633	25633	OMEGA HEALTHCARE INVS INC	OHI	681936100	888491	6798	531190.0	P	01	LC	77857	29554	1992-08-07	E	ohi
25645	25645	ALBERTSONS COS INC	ACI	013091103	1646972	5411	445110.0	P	01	LC	19413	57098	2020-06-26	E	aci
25665	25665	LTC PROPERTIES INC	LTC	502175102	887905	6798	531190.0	P	01	LU	77878	29553	1992-08-18	E	ltc
25676	25676	PERCEPTRON INC	PRCP	71361F100	887226	3827	333314.0	P	01	LU	77868	11679	1992-08-21	2020-12-31	
25680	25680	LAYNE CHRISTENSEN CO	LAYN	521050104	888504	8711	541620.0	P	01	LU	77862	11677	1992-08-20	2018-06-29	
25714	25714	SHINHAN FINANCIAL GROUP LTD	SHG	824596100	1263043	6020	522110.0	P	91	LC	89854	44399	2003-09-16	E	shg
25726	25726	CPI AEROSTRUCTURES INC	CVU	125919308	889348	3728	336413.0	P	01	LC	77900	11705	1992-09-17	E	cvua
25737	25737	CHEESECAKE FACTORY INC	CAKE	163072101	887596	5812	722511.0	P	01	LU	77902	11706	1992-09-18	E	cake
25740	25740	RENOVARE ENVIRONMENTAL INC	RENO	09074B107	1590383	3590	333318.0	P	01	LC	17680	56332	2018-04-09	E	reno
25747	25747	LITTELFUSE INC	LFUS	537008104	889331	3613	335313.0	P	01	LU	77918	11709	1992-09-22	E	lfus
25749	25749	ASGN INC	ASGN	00191U102	890564	7370	541512.0	P	01	LU	77917	11713	1992-09-22	E	asgn
25750	25750	APTOSE BIOSCIENCES INC	APTO	03835T408	882361	2836	325414.0	P	01	LC	77569	11401	2014-10-23	E	apto
25750	25750	APTOSE BIOSCIENCES INC	APTO	03835T408	882361	2836	325414.0	P	01	LC	77569	11401	2004-02-23	2008-10-30	apto
25750	25750	APTOSE BIOSCIENCES INC	APTO	03835T408	882361	2836	325414.0	P	01	LC	77569	11401	1992-03-16	1998-10-27	apto
25751	25751	BANCO LATINOAMERICANO DE COM	BLX	P16994132	890541	6020	522110.0	P	01	LU	77920	29577	1992-09-24	E	blx
25753	25753	COMPANIA CERVECERIAS UNIDAS	CCU	204429104	888746	2082	312120.0	P	90	LU	77928	11717	1992-09-24	E	ccu
25756	25756	PURE STORAGE INC	PSTG	74624M102	1474432	3572	334112.0	P	01	LC	15729	55429	2015-10-07	E	pstg
25774	25774	ELECTRONICS FOR IMAGING INC	EFII	286082102	867374	3577	334118.0	P	01	LU	77971	11729	1992-10-02	2019-07-31	
25848	25848	KEMET CORP	KEM.2	488360207	887730	3670	334416.0	P	01	LC	78001	11757	2010-06-22	2020-06-30	
25848	25848	KEMET CORP	KEM.2	488360207	887730	3670	334416.0	P	01	LC	78001	11757	1992-10-21	2009-01-08	
25850	25850	TRINITY BIOTECH PLC	TRIB	896438504	888721	2835	325413.0	P	90	LU	78002	11755	1992-10-21	E	trib
25852	25852	CONSUMER PORTFOLIO SVCS INC	CPSS	210502100	889609	6159	522220.0	P	01	LU	78018	11764	1992-10-22	E	cpss
25870	25870	MINERALS TECHNOLOGIES INC	MTX	603158106	891014	2860	325130.0	P	01	LU	78015	29610	1992-10-23	E	mtx
25874	25874	PETROQUEST ENERGY INC	PQUEQ	716748306	872248	1311	211111.0	P	01	LC	78186	11777	1999-12-23	2018-05-04	
25874	25874	PETROQUEST ENERGY INC	PQUEQ	716748306	872248	1311	211111.0	P	01	LC	78186	11777	1992-10-26	1999-05-05	
25880	25880	PATTERSON COS INC	PDCO	703395103	891024	5047	423450.0	P	01	LU	78034	11778	1992-10-28	E	pdco
25893	25893	SITEONE LANDSCAPE SUPPLY INC	SITE	82982L103	1650729	5080	423820.0	P	01	LC	16082	55580	2016-05-31	E	site
25895	25895	RADIAN GROUP INC	RDN	750236101	890926	6351	524126.0	P	01	LU	78038	29602	1992-10-30	E	rdn
25898	25898	SURGERY PARTNERS INC	SGRY	86881A100	1638833	8090	621999.0	P	01	LC	15795	55468	2015-10-01	E	sgry
25904	25904	ACLARIS THERAPEUTICS INC	ACRS	00461U105	1557746	2834	325412.0	P	01	LC	15775	55452	2015-10-07	E	acrs
25915	25915	QUMU CORP	QUMU	749063103	892482	7370	519130.0	P	01	LU	78054	11789	1992-11-05	2023-02-28	qumu
25922	25922	KADANT INC	KAI	48282T104	886346	3550	333243.0	P	01	LU	78077	29710	1992-11-09	E	kai
25924	25924	NAVIDEA BIOPHARMACEUTICALS	NAVB	63937X202	810509	2835	325413.0	P	01	LC	78066	11795	2011-02-10	E	navb
25924	25924	NAVIDEA BIOPHARMACEUTICALS	NAVB	63937X202	810509	2835	325413.0	P	01	LC	78066	11795	1992-11-10	1999-07-27	navb
25935	25935	GULF RESOURCES INC	GURE	40251W408	885462	2810	325180.0	P	01	LC	78091	11807	2009-10-27	E	gure
25935	25935	GULF RESOURCES INC	GURE	40251W408	885462	2810	325180.0	P	01	LC	78091	11807	1992-11-30	1998-10-29	gure
25937	25937	LIGAND PHARMACEUTICAL INC	LGND	53220K504	886163	2834	325412.0	P	02	LC	78081	11806	1994-11-25	E	lgnd
25937	25937	LIGAND PHARMACEUTICAL INC	LGND	53220K504	886163	2834	325412.0	P	02	LC	78081	11806	1994-11-25	E	lgndz
25937	25937	LIGAND PHARMACEUTICAL INC	LGND	53220K504	886163	2834	325412.0	P	02	LC	78081	11806	1994-11-25	E	lgnxz
25937	25937	LIGAND PHARMACEUTICAL INC	LGND	53220K504	886163	2834	325412.0	P	02	LC	78081	11806	1994-11-25	E	lgnyz
25937	25937	LIGAND PHARMACEUTICAL INC	LGND	53220K504	886163	2834	325412.0	P	02	LC	78081	11806	1994-11-25	E	lgnzz
25937	25937	LIGAND PHARMACEUTICAL INC	LGND	53220K504	886163	2834	325412.0	C	01	LC	78081	11806	1994-11-01	1994-11-24	lgnd
25937	25937	LIGAND PHARMACEUTICAL INC	LGND	53220K504	886163	2834	325412.0	C	01	LC	78081	11806	1994-11-01	1994-11-24	lgndz
25937	25937	LIGAND PHARMACEUTICAL INC	LGND	53220K504	886163	2834	325412.0	C	01	LC	78081	11806	1994-11-01	1994-11-24	lgnxz
25937	25937	LIGAND PHARMACEUTICAL INC	LGND	53220K504	886163	2834	325412.0	C	01	LC	78081	11806	1994-11-01	1994-11-24	lgnyz
25937	25937	LIGAND PHARMACEUTICAL INC	LGND	53220K504	886163	2834	325412.0	C	01	LC	78081	11806	1994-11-01	1994-11-24	lgnzz
25937	25937	LIGAND PHARMACEUTICAL INC	LGND	53220K504	886163	2834	325412.0	P	01	LC	78081	11806	1992-11-18	1994-10-31	lgnd
25937	25937	LIGAND PHARMACEUTICAL INC	LGND	53220K504	886163	2834	325412.0	P	01	LC	78081	11806	1992-11-18	1994-10-31	lgndz
25937	25937	LIGAND PHARMACEUTICAL INC	LGND	53220K504	886163	2834	325412.0	P	01	LC	78081	11806	1992-11-18	1994-10-31	lgnxz
25937	25937	LIGAND PHARMACEUTICAL INC	LGND	53220K504	886163	2834	325412.0	P	01	LC	78081	11806	1992-11-18	1994-10-31	lgnyz
25937	25937	LIGAND PHARMACEUTICAL INC	LGND	53220K504	886163	2834	325412.0	P	01	LC	78081	11806	1992-11-18	1994-10-31	lgnzz
25950	25950	TAUBMAN CENTERS INC	TCO.2	876664103	890319	6798	531120.0	P	01	LU	78089	29709	1992-11-20	2020-12-31	
25964	25964	CHART INDUSTRIES INC	GTLS	16115Q308	892553	3443	332410.0	P	05	LC	91402	29717	2006-07-26	E	gtls
25964	25964	CHART INDUSTRIES INC	GTLS	16115Q308	892553	3443	332410.0	P	01	LC	78786	29717	1992-12-03	2003-04-02	gtls
25979	25979	PERMA-FIX ENVIRONMENTAL SVCS	PESI	714157203	891532	4955	562211.0	P	01	LU	78189	11830	1992-12-08	E	pesi
25999	25999	GYRE THERAPEUTICS INC	GYRE	403783103	1124105	2836	325414.0	P	01	LC	91184	50600	2015-08-21	E	cbio
26012	26012	BLACK BOX CORP	BBOX	091826107	849547	7370	541519.0	P	01	LU	78172	11855	1992-12-16	2019-01-31	
26013	26013	SM ENERGY CO	SM	78454L100	893538	1311	2111.0	P	01	LC	78170	11857	1992-12-16	E	sm
26016	26016	UNIVERSAL INSURANCE HLDGS	UVE	91359V107	891166	6331	524126.0	P	01	LU	78211	11862	1992-12-16	E	uve
26028	26028	EMPIRE PETROLEUM CORP	EP	292034303	887396	1311	2111.0	P	01	LC	22934	59238	2022-03-08	E	ep
26037	26037	HMS HOLDINGS CORP	HMSY	40425J101	1196501	6411	524292.0	P	01	LU	78156	11871	1992-12-18	2021-04-30	
26045	26045	ULTRALIFE CORP	ULBI	903899102	875657	3690	335910.0	P	01	LU	78213	11879	1992-12-23	E	ulbi
26061	26061	MATCH GROUP INC	MTCH	57667L107	891103	7370	519290.0	P	01	LC	78840	11901	1993-01-19	2020-06-30	mtch
26061	26061	MATCH GROUP INC	MTCH	57667L107	891103	7370	519290.0	P	01	LC	15850	55487	2020-07-01	E	mtch
26069	26069	GULFPORT ENERGY CORP	GPOR	402635502	874499	1311	2111.0	C	01	LC	91128	50323	2006-02-28	2020-11-25	gpor
26069	26069	GULFPORT ENERGY CORP	GPOR	402635502	874499	1311	2111.0	P	04	LC	21219	50323	2021-05-18	E	gpor
26081	26081	KURA ONCOLOGY INC	KURA	50127T109	1422143	2836	325414.0	P	01	LC	15847	55484	2015-11-05	E	kura
26112	26112	CYTOMX THERAPEUTICS INC	CTMX	23284F105	1501989	2836	325414.0	P	01	LC	15779	55456	2015-10-08	E	ctmx
26123	26123	NOVOCURE LIMITED	NVCR	G6674U108	1645113	3845	334510.0	P	01	LC	15789	55463	2015-10-02	E	nvcr
26126	26126	AMERICAN RENAL ASSOCS HLDGS	ARA	029227105	1498068	8090	621492.0	P	01	LC	16024	55551	2016-04-21	2021-01-29	
26144	26144	AT HOME GROUP INC	HOME	04650Y100	1646228	5700	442299.0	P	01	LC	16268	55677	2016-08-04	2021-07-30	
26146	26146	REGENXBIO INC	RGNX	75901B107	1590877	2836	325414.0	P	01	LC	15658	55410	2015-09-17	E	rgnx
26147	26147	PENUMBRA INC	PEN	70975L107	1321732	3841	339112.0	P	01	LC	15694	55417	2015-09-18	E	pen
26148	26148	NABRIVA THERAPEUTICS PLC	NBRVF	G63637139	1641640	2836	325414.0	C	90	LC	20197	55408	2017-06-01	2017-06-23	nbrv
26148	26148	NABRIVA THERAPEUTICS PLC	NBRVF	G63637139	1641640	2836	325414.0	P	90	LC	20197	55408	2015-09-18	2017-05-31	nbrv
26148	26148	NABRIVA THERAPEUTICS PLC	NBRVF	G63637139	1641640	2836	325414.0	P	01	LC	15656	55408	2017-06-26	E	nbrv
26156	26156	HEWLETT PACKARD ENTERPRISE	HPE	42824C109	1645590	3571	334111.0	P	01	LC	15707	55421	2015-11-02	E	hpe
26157	26157	QUORUM HEALTH CORP	QHCCQ	74909E106	1650445	8062	622110.0	P	01	LC	16004	55542	2016-04-29	2020-07-08	
26167	26167	BALDWIN INSURANCE GROUP INC	BWIN	05589G102	1781755	6411	524210.0	P	01	LC	19002	56907	2019-10-24	E	brp
26179	26179	SMARTFINANCIAL INC	SMBK	83190L208	1038773	6020	522110.0	P	01	LC	15906	55508	2015-12-21	E	smbk
26187	26187	ADESTO TECHNOLOGIES CORP	IOTS	00687D101	1395848	3674	334413.0	P	01	LC	15786	55459	2015-10-27	2020-06-30	
26189	26189	MOUNTAIN PROVINCE DIAMONDS	MPVDF	62426E402	1004530	1400	212399.0	P	01	LC	83532	14579	1996-05-01	E	mpvdf
26218	26218	LAZYDAYS HOLDINGS INC	GORV	52110H100	1721741	5500	441210.0	P	02	LC	17365	56300	2018-03-16	E	lazy
26218	26218	LAZYDAYS HOLDINGS INC	GORV	52110H100	1721741	5500	441210.0	P	02	LC	17365	56300	2018-03-16	E	lazyw
26218	26218	LAZYDAYS HOLDINGS INC	GORV	52110H100	1721741	5500	441210.0	P	02	LC	15897	55476	2015-12-07	2018-03-15	lazy
26218	26218	LAZYDAYS HOLDINGS INC	GORV	52110H100	1721741	5500	441210.0	P	02	LC	15897	55476	2015-12-07	2018-03-15	lazyw
26269	26269	MYOKARDIA INC	MYOK	62857M105	1552451	2836	325414.0	P	01	LC	15788	55462	2015-10-29	2020-11-30	
26270	26270	STELLAR BANCORP INC	STEL	858927106	1473844	6020	522110.0	P	01	LC	17108	56153	2022-10-03	E	cbtx
26270	26270	STELLAR BANCORP INC	STEL	858927106	1473844	6020	522110.0	P	01	LC	15774	55451	2015-10-08	2022-10-02	cbtx
26272	26272	AQUAVENTURE HOLDINGS LTD	WAAS	G0443N107	1422841	4941	221310.0	P	01	LC	16450	55782	2016-10-06	2020-03-31	
26273	26273	EDGE THERAPEUTICS INC	EDGE.2	279870109	0	2836	325414.0	P	01	LC	15784	55458	2015-10-01	2019-03-17	
26297	26297	LOANDEPOT INC	LDI	53946R106	1831631	6162	522292.0	P	01	LC	20545	57865	2021-02-11	E	ldi
26304	26304	CSRA INC	CSRA	12650T104	1646383	7370	54151.0	P	01	LC	15797	55470	2015-11-30	2018-04-30	
26305	26305	LAUREATE EDUCATION INC	LAUR	518613203	912766	8200	611310.0	P	01	LC	16591	12654	2017-02-01	E	laur
26321	26321	INSTRUCTURE INC	INST.1	45781U103	1355754	7370	519130.0	P	01	LC	15824	55472	2015-11-13	2020-03-31	
26335	26335	DULUTH HOLDINGS INC	DLTH	26443V101	1649744	5961	458110.0	P	01	LC	15837	55479	2015-11-20	E	dlth
26336	26336	PLX PHARMA INC	PLXPQ	72942A107	1497504	2834	325412.0	P	01	LC	14538	54784	2017-04-20	2023-09-30	plxp
26340	26340	WAVE LIFE SCIENCES LTD	WVE	Y95308105	1631574	2836	325414.0	P	01	LC	15857	55491	2015-11-11	E	wve
26341	26341	VOYAGER THERAPEUTICS INC	VYGR	92915B106	1640266	2836	325414.0	P	01	LC	15856	55490	2015-11-11	E	vygr
26343	26343	ARMSTRONG FLOORING INC	AFIIQ	04238R106	1655075	3089	326199.0	P	01	LC	15956	55529	2016-04-04	E	afiiq
26347	26347	EQUITY BANCSHARES INC	EQBK	29460X109	1227500	6020	522110.0	P	01	LC	15838	55480	2015-11-11	E	eqbk
26349	26349	AXSOME THERAPEUTICS INC	AXSM	05464T104	1579428	2836	325414.0	P	01	LC	15831	55477	2015-11-19	E	axsm
26351	26351	NORTHSTAR REALTY EUROPE CORP	NRE	66706L101	1646587	6798	531120.0	P	01	LC	15708	55422	2015-11-02	2019-09-30	
26359	26359	APELLIS PHARMACEUTICALS	APLS	03753U106	1492422	2836	325414.0	P	01	LC	17104	56148	2017-11-09	E	apls
26361	26361	RED ROCK RESORTS INC	RRR	75700L108	1653653	7990	721120.0	P	01	LC	16019	55548	2016-04-27	E	rrr
26367	26367	BLOCK INC	XYZ	852234103	1512673	7374	518210.0	P	01	LC	15826	55474	2015-11-19	E	sq
26368	26368	MIMECAST LTD	MIME	G14838109	1644675	7370	519130.0	P	01	LC	15849	55486	2015-11-19	2022-05-31	
26376	26376	BEIGENE LTD	ONC	07725L102	1651308	2836	325414.0	P	90	LC	15936	55520	2016-02-03	E	bgne
26381	26381	MATCH GROUP INC -OLD	MTCH.5	57665R106	1575189	7370	519130.0	P	01	LC	15850	55487	2015-11-19	2020-06-30	
26382	26382	NUVECTRA CORP	NVTRQ	67075N108	1648893	3845	334510.0	P	01	LC	15955	55528	2016-03-14	2020-06-03	
26410	26410	FOUR CORNERS PROPERTY TR INC	FCPT	35086T109	1650132	6798	531120.0	P	01	LC	15719	55426	2015-11-10	E	fcpt
26411	26411	NOBLE MIDSTREAM PARTNERS LP	NBLX	65506L105	1647513	4610	486110.0	P	01	LC	16333	55708	2016-09-15	2021-05-28	
26434	26434	PYXIS TANKERS INC	PXS	Y71726130	1640043	4412	483111.0	P	01	LC	15796	55469	2015-10-29	E	pxs
26434	26434	PYXIS TANKERS INC	PXS	Y71726130	1640043	4412	483111.0	P	01	LC	15796	55469	2015-10-29	E	pxsap
26434	26434	PYXIS TANKERS INC	PXS	Y71726130	1640043	4412	483111.0	P	01	LC	15796	55469	2015-10-29	E	pxsaw
26475	26475	CLIPPER REALTY INC	CLPR	18885T306	1649096	6798	531110.0	P	02	LC	16577	55856	2017-02-10	E	clpr
26494	26494	ATLASSIAN CORP	TEAM	049468101	1650372	7370	519290.0	P	01	LC	15909	55509	2015-12-10	E	team
26495	26495	WELBILT INC	WBT	949090104	1650962	3580	333318.0	P	01	LC	15921	55517	2016-03-04	2022-07-29	
26509	26509	ELEVATE CREDIT INC	ELVT	28621V101	1651094	6141	522291.0	P	01	LC	16659	55907	2017-04-06	2023-02-28	elvt
26528	26528	EXAGEN INC	XGN	30068X103	1274737	2835	325413.0	P	01	LC	18963	56895	2019-09-19	E	xgn
26537	26537	YIREN DIGITAL LTD -ADR	YRD	98585L100	1631761	6141	522291.0	P	90	LC	15896	55503	2015-12-18	E	yrd
26539	26539	ELDORADO GOLD CORP	EGO	284902509	918608	1040	212220.0	P	01	LC	89648	43851	2003-02-01	E	ego
26539	26539	ELDORADO GOLD CORP	EGO	284902509	918608	1040	212220.0	J	01	LC	89648	43851	2003-01-23	2003-01-31	ego
26545	26545	RMR GROUP INC	RMR	74967R106	1644378	8741	561110.0	P	01	LC	15853	55488	2015-12-15	E	rmr
26590	26590	FORTIVE CORP	FTV	34959J108	1659166	3829	334519.0	P	01	LC	16087	55585	2016-07-05	E	ftv
26636	26636	SENSEONICS HLDGS INC	SENS	81727U105	1616543	3845	334510.0	P	01	LC	15995	55540	2016-03-18	E	sens
26658	26658	AVANGRID INC	AGR	05351W103	1634997	4911	2211.0	P	01	LC	15859	55493	2015-12-17	2025-01-31	agr
26669	26669	ONCOCYTE CORP	OCX	68235C206	1642380	2836	325414.0	P	01	LC	15863	55496	2016-01-04	E	ocx
26676	26676	AZURE POWER GLOBAL LIMITED	AZREF	V0393H103	1633438	4911	2211.0	P	01	LC	16452	55784	2016-10-12	E	azre
26677	26677	SECUREWORKS CORP	SCWX	81374A105	1468666	7372	513210.0	P	01	LC	16020	55549	2016-04-22	E	scwx
26709	26709	VERSUM MATERIALS INC	VSM	92532W103	1660690	2860	325199.0	P	01	LC	16279	55687	2016-10-03	2019-10-31	
26721	26721	BROOKFIELD BUSINESS PRTNR LP	BBU	G16234109	1654795	9997	999977.0	P	01	LC	16071	55583	2016-06-20	E	bbu
26722	26722	ACACIA COMMUNICATIONS INC	ACIA	00401C108	1651235	3663	334220.0	P	01	LC	16051	55562	2016-05-31	2021-03-31	
26746	26746	NUTANIX INC	NTNX	67059N108	1618732	7370	518210.0	P	01	LC	16304	55697	2016-09-30	E	ntnx
26749	26749	HERC HOLDINGS INC	HRI	42704L104	1364479	7350	532412.0	P	01	LC	91575	51423	2016-07-01	E	hri
26753	26753	FERROGLOBE PLC	GSM	G33856108	1639877	3330	331410.0	P	01	LC	15862	55495	2015-12-24	E	gsm
26768	26768	SSR MINING INC	SSRM	784730103	921638	1040	212220.0	P	01	LC	83909	14867	1996-08-01	E	ssrm
26788	26788	TABULA RASA HEALTHCARE INC	TRHC	873379101	1651561	7370	519290.0	P	01	LC	16308	55700	2016-09-29	2023-11-30	trhc
26790	26790	SPRING BANK PHARMACEUTICALS	SBPH	849431101	0	2836	325414.0	P	01	LC	16069	55573	2016-05-31	2020-11-22	
26792	26792	GRUPO SUPERVIELLE	SUPV	40054A108	1517399	6020	522110.0	P	90	LC	16077	55578	2016-05-31	E	supv
26798	26798	CLEARSIDE BIOMEDICAL INC	CLSD	185063104	1539029	2834	325412.0	P	01	LC	16090	55586	2016-06-02	E	clsd
26812	26812	GCP APPLIED TECHNOLOGIES INC	GCP	36164Y101	1644440	2860	325194.0	P	01	LC	15917	55513	2016-02-04	2022-09-30	gcp
26818	26818	AVEXIS INC	AVXS	05366U100	1652923	2836	325414.0	P	01	LC	15934	55519	2016-02-11	2018-05-31	
26839	26839	PHILLIPS EDISON & CO INC	PECO	71844V201	1476204	6798	531120.0	P	02	LC	21597	58502	2021-07-15	E	peco
26847	26847	TACTILE SYSTEMS TECHNOLOGY	TCMD	87357P100	1027838	3845	334510.0	P	01	LC	16186	55625	2016-07-28	E	tcmd
26864	26864	PERMIAN RESOURCES CORP	PR	71424F105	1658566	1311	211120.0	P	02	LC	16021	55527	2016-04-15	E	pr
26864	26864	PERMIAN RESOURCES CORP	PR	71424F105	1658566	1311	211120.0	P	02	LC	16021	55527	2016-04-15	E	cdev
26874	26874	EDITAS MEDICINE INC	EDIT	28106W103	1650664	2836	325414.0	P	01	LC	15937	55521	2016-02-03	E	edit
26891	26891	BIOTRICITY INC	BTCY	09074H203	1630113	3845	334510.0	P	01	LC	21831	58647	2021-08-26	E	btcy
26892	26892	REATA PHARMACEUTICALS INC	RETA	75615P103	1358762	2836	325414.0	P	01	LC	16068	55572	2016-05-31	2023-09-29	reta
26895	26895	CORVUS PHARMACEUTICALS INC	CRVS	221015100	1626971	2836	325414.0	P	01	LC	15960	55530	2016-03-23	E	crvs
26908	26908	SENSUS HEALTHCARE INC	SRTS	81728J109	1494891	3845	334517.0	P	02	LC	16145	55592	2016-07-25	E	srts
26920	26920	CREATD INC	CRTD	225265305	1357671	7370	519290.0	P	01	LC	19823	57342	2020-09-11	2022-09-06	crtd
26920	26920	CREATD INC	CRTD	225265305	1357671	7370	519290.0	P	01	LC	19823	57342	2020-09-11	2022-09-06	crtdw
27014	27014	ATKORE INC	ATKR	047649108	1666138	3640	335932.0	P	01	LC	16119	55595	2016-06-10	E	atkr
27045	27045	MGM GROWTH PROPERTIES LLC	MGP	55303A105	1656936	6798	531120.0	P	01	LC	16042	55555	2016-04-20	2022-04-29	
27119	27119	INGEVITY CORP	NGVT	45688C107	1653477	2860	3251.0	P	01	LC	16044	55557	2016-05-16	E	ngvt
27123	27123	YINTECH INVST HLDGS LTD -ADR	YIN	98585M108	1661125	6200	523140.0	P	90	LC	16022	55550	2016-04-27	2020-11-30	
27141	27141	ENEL CHILE SA	ENIC	29278D105	1659939	4911	2211.0	P	90	LC	16034	55554	2016-04-27	E	enic
27155	27155	INTELLIA THERAPEUTICS INC	NTLA	45826J105	1652130	2836	325414.0	P	01	LC	16064	55568	2016-05-31	E	ntla
27199	27199	VAALCO ENERGY INC	EGY	91851C201	894627	1311	2111.0	P	01	LU	78841	11923	1993-01-29	E	egy
27201	27201	GEMPHIRE THERAPEUTICS INC	GEMP	36870A108	0	2836	325414.0	P	01	LC	16255	55671	2016-08-05	2019-12-30	
27215	27215	F&G ANNUITIES & LIFE INC	FG	30190A104	1934850	6311	524113.0	P	05	LC	23506	59433	2022-12-01	E	fg
27215	27215	F&G ANNUITIES & LIFE INC	FG	30190A104	1934850	6311	524113.0	P	01	LC	16163	55564	2016-07-08	2020-06-30	fg
27240	27240	BALLYS CORP	BALY	05875B304	1747079	7990	7132.0	P	02	LC	18425	56665	2019-03-29	E	baly
27245	27245	COTIVITI HOLDINGS INC	COTV	22164K101	1657197	7389	561499.0	P	01	LC	16073	55575	2016-05-31	2018-08-31	
27251	27251	VIVID SEATS INC	SEAT	92854T100	1856031	7990	561599.0	P	01	LC	22239	58891	2021-10-19	E	seat
27251	27251	VIVID SEATS INC	SEAT	92854T100	1856031	7990	561599.0	P	01	LC	22239	58891	2021-10-19	E	seatw
27252	27252	PULSE BIOSCIENCES INC	PLSE	74587B101	1625101	3845	334510.0	P	01	LC	16066	55570	2016-05-31	E	plse
27274	27274	NANTHEALTH INC	NHIQ	630104305	1566469	7370	518210.0	P	01	LC	16100	55589	2016-06-02	2023-05-23	nh
27299	27299	51TALK ONLINE EDU GROUP -ADR	COE	16954L204	1659494	8200	611630.0	P	90	LC	16120	55596	2016-06-10	E	coe
27318	27318	ZEDGE INC	ZDGE	98923T104	1667313	7372	513210.0	P	01	LC	16049	55560	2016-06-02	E	zdge
27333	27333	ADIENT PLC	ADNT	G0084W101	1670541	2531	336360.0	P	01	LC	16342	55715	2016-10-17	E	adnt
27339	27339	AGEAGLE AERIAL SYSTEMS	UAVS	00848K309	8504	3721	336411.0	P	01	LC	14720	54913	2018-03-27	E	uavs
27354	27354	CARTESIAN THERAPEUTICS INC	RNAC	816212302	1453687	2836	325414.0	P	01	LC	16108	55591	2016-06-22	E	selb
27364	27364	TWILIO INC	TWLO	90138F102	1447669	7370	518210.0	P	01	LC	16140	55601	2016-06-23	E	twlo
27373	27373	VALVOLINE INC	VVV	92047W101	1674910	5500	457120.0	P	01	LC	16338	55711	2016-09-23	E	vvv
27386	27386	JELD-WEN HOLDING INC	JELD	47580P103	1674335	2430	321911.0	P	01	LC	16554	55841	2017-01-27	E	jeld
27387	27387	IMPINJ INC	PI	453204109	1114995	3674	334413.0	P	01	LC	16182	55623	2016-07-21	E	pi
27392	27392	SYROS PHARMACEUTICALS INC	SYRS	87184Q206	1556263	2836	325414.0	P	01	LC	16111	55593	2016-06-30	E	syrs
27393	27393	HILTON GRAND VACATIONS	HGV	43283X105	1674168	6532	531390.0	P	01	LC	16498	55806	2017-01-04	E	hgv
27394	27394	PARK HOTELS & RESORTS	PK	700517105	1617406	6798	531120.0	P	01	LC	16499	55807	2017-01-04	E	pk
27490	27490	LINE CORP	LN	53567X101	1611820	7370	519130.0	C	90	LC	16155	55609	2016-07-14	E	
27555	27555	ORTHOPEDIATRICS CORP	KIDS	68752L100	1425450	3842	339113.0	P	01	LC	16989	56099	2017-10-12	E	kids
27574	27574	TPI COMPOSITES INC	TPIC	87266J104	1455684	3510	333611.0	P	01	LC	16188	55627	2016-07-22	E	tpic
27575	27575	ACUSHNET HOLDINGS CORP	GOLF	005098108	1672013	3949	339920.0	P	01	LC	16434	55775	2016-10-28	E	golf
27576	27576	SIMPLY GOOD FOODS COMPANY	SMPL	82900L102	1702744	2060	311340.0	P	01	LC	16284	55614	2016-09-06	E	smpl
27635	27635	COMMERCEHUB INC	CHUBK	20084V306	1665658	7370	519130.0	J	01	LC	16160	55605	2018-01-01	2018-05-31	
27635	27635	COMMERCEHUB INC	CHUBK	20084V306	1665658	7370	519130.0	P	01	LC	16160	55605	2016-07-25	2017-12-31	
27635	27635	COMMERCEHUB INC	CHUBK	20084V306	1665658	7370	519130.0	P	02	LC	16144	55605	2018-01-01	2018-05-31	
27635	27635	COMMERCEHUB INC	CHUBK	20084V306	1665658	7370	519130.0	J	02	LC	16144	55605	2016-07-25	2017-12-31	
27636	27636	TALEND SA  -ADR	TLND	874224207	1668105	7370	518210.0	P	90	LC	16187	55626	2016-07-29	2021-07-30	
27638	27638	ALCOA CORP	AA	013872106	1675149	3334	331313.0	P	01	LC	16347	55718	2016-11-01	E	aa
27644	27644	BIOVENTUS INC	BVS	09075A108	1665988	3845	334510.0	P	01	LC	20581	57918	2021-02-11	E	bvs
27652	27652	KINSALE CAPITAL GROUP INC	KNSL	49714P108	1669162	6331	524126.0	P	01	LC	16171	55617	2016-07-28	E	knsl
27653	27653	YETI HOLDINGS INC	YETI	98585X104	1670592	3949	339920.0	P	01	LC	18145	56542	2018-10-25	E	yeti
27665	27665	FIRST HAWAIIAN INC	FHB	32051X108	36377	6020	522110.0	P	01	LC	16253	55670	2016-08-04	E	fhb
27669	27669	AUDENTES THERAPEUTICS INC	BOLD.1	05070R104	1628738	2836	325414.0	P	01	LC	16162	55613	2016-07-20	2020-01-31	
27670	27670	PROTAGONIST THERAPEUTICS INC	PTGX	74366E102	1377121	2836	325414.0	P	01	LC	16263	55673	2016-08-11	E	ptgx
27677	27677	EXTRACTION OIL & GAS INC	XOG	30227M303	1655020	1311	211120.0	P	04	LC	16402	55761	2021-01-21	2021-11-30	
27677	27677	EXTRACTION OIL & GAS INC	XOG	30227M303	1655020	1311	211120.0	P	01	LC	16402	55761	2016-10-12	2020-06-24	
27703	27703	AIRGAIN INC	AIRG	00938A104	1272842	3663	334220.0	P	01	LC	16247	55667	2016-08-12	E	airg
27706	27706	INTERNATIONAL SEAWAYS INC	INSW	Y41053102	1679049	4412	483111.0	P	01	LC	16454	55785	2016-12-01	E	insw
27711	27711	WINC INC	WBEVQ	97265W105	1782627	2084	312130.0	P	01	LC	22417	59013	2021-11-11	2023-08-10	wbev
27716	27716	MADRIGAL PHARMACEUTICALS INC	MDGL	558868105	1157601	2834	325412.0	P	01	LC	91832	51819	2016-07-25	E	mdgl
27737	27737	ATOMERA INC	ATOM	04965B100	1420520	3674	334413.0	P	01	LC	16250	55668	2016-08-05	E	atom
27760	27760	BOWFLEX INC	BFXXQ	63910B102	1078207	3949	339920.0	P	01	LC	86889	16506	1999-05-05	2024-03-04	nls
27776	27776	ROCKY BRANDS INC	RCKY	774515100	895456	3140	316210.0	P	01	LU	78908	11934	1993-02-03	E	rcky
27780	27780	SITE CENTERS CORP	SITC	82981J851	894315	6798	531120.0	P	01	LC	78927	29753	1993-02-02	E	sitc
27780	27780	SITE CENTERS CORP	SITC	82981J851	894315	6798	531120.0	P	01	LC	78927	29753	1993-02-02	E	sitc-pa
27786	27786	EXPAND ENERGY CORP	EXE	165167735	895126	1311	2111.0	P	01	LC	78877	11937	1993-02-05	2020-06-26	chk
27786	27786	EXPAND ENERGY CORP	EXE	165167735	895126	1311	2111.0	P	01	LC	78877	11937	1993-02-05	2020-06-26	chkel
27786	27786	EXPAND ENERGY CORP	EXE	165167735	895126	1311	2111.0	P	01	LC	78877	11937	1993-02-05	2020-06-26	chkew
27786	27786	EXPAND ENERGY CORP	EXE	165167735	895126	1311	2111.0	P	01	LC	78877	11937	1993-02-05	2020-06-26	chkez
27786	27786	EXPAND ENERGY CORP	EXE	165167735	895126	1311	2111.0	P	21	LC	20583	11937	2021-02-10	E	chk
27786	27786	EXPAND ENERGY CORP	EXE	165167735	895126	1311	2111.0	P	21	LC	20583	11937	2021-02-10	E	chkel
27786	27786	EXPAND ENERGY CORP	EXE	165167735	895126	1311	2111.0	P	21	LC	20583	11937	2021-02-10	E	chkew
27786	27786	EXPAND ENERGY CORP	EXE	165167735	895126	1311	2111.0	P	21	LC	20583	11937	2021-02-10	E	chkez
27790	27790	SAGA COMMUNICATIONS INC	SGA	786598300	886136	4832	516110.0	P	01	LC	79033	29768	1993-03-01	E	sga
27794	27794	WOLFSPEED INC	WOLF	977852102	895419	3674	334413.0	P	01	LC	78875	11946	1993-02-09	E	wolf
27802	27802	LSC COMMUNICATIONS INC	LKSDQ	50218P107	1669812	2750	323111.0	P	01	LC	16278	55686	2016-10-03	2019-12-27	
27803	27803	DONNELLEY FINANCIAL SOLTNS	DFIN	25787G100	1669811	7370	519290.0	P	01	LC	16277	55685	2016-09-21	E	dfin
27810	27810	LIVANOVA PLC	LIVN	G5509L101	1639691	3845	334510.0	P	01	LC	78881	11952	1993-02-11	2015-10-16	livn
27810	27810	LIVANOVA PLC	LIVN	G5509L101	1639691	3845	334510.0	P	01	LC	15702	55450	2015-10-17	E	livn
27823	27823	ARTIVION INC	AORT	228903100	784199	3842	339113.0	P	01	LU	78876	11958	1993-02-12	E	aort
27828	27828	UNIVERSAL ELECTRONICS INC	UEIC	913483103	101984	3651	334310.0	P	01	LU	78915	11960	1993-02-12	E	ueic
27841	27841	ALPHA METALLURGICAL RESOURCE	AMR	020764106	1704715	1220	21211.0	P	01	LC	18224	56578	2018-11-09	E	amr
27841	27841	ALPHA METALLURGICAL RESOURCE	AMR	020764106	1704715	1220	21211.0	P	01	LC	18224	56578	2018-11-09	E	cntww
27845	27845	ALLERGAN PLC	AGN	G0177J108	1578845	2834	325412.0	P	01	LC	78916	11965	1993-02-17	2020-05-29	
27871	27871	FB FINANCIAL CORP	FBK	30257X104	1649749	6020	522110.0	P	01	LC	16319	55705	2016-09-16	E	fbk
27874	27874	EVERBRIDGE INC	EVBG	29978A104	1437352	7370	518210.0	P	01	LC	16287	55692	2016-09-16	2024-07-31	evbg
27875	27875	EQUITY LIFESTYLE PPTYS INC	ELS	29472R108	895417	6798	531190.0	P	01	LU	78947	29758	1993-02-25	E	els
27885	27885	TRADE DESK INC	TTD	88339J105	1671933	7370	519290.0	P	01	LC	16309	55701	2016-09-21	E	ttd
27905	27905	NVN LIQUIDATION INC	NOVNQ	66988N205	1467154	2834	325412.0	P	01	LC	16303	55696	2016-09-21	2024-04-30	novn
27907	27907	E.L.F. BEAUTY INC	ELF	26856L103	1600033	2844	325620.0	P	01	LC	16318	55704	2016-09-22	E	elf
27909	27909	APPTIO INC	APTI	03835C108	1419625	7370	519130.0	P	01	LC	16282	55690	2016-09-23	2019-01-31	
27913	27913	SUPERCONDUCTOR TECHNOLOGIES	SCON	867931701	0	3670	334419.0	P	01	LC	79006	12000	1993-03-09	2020-08-31	
27914	27914	HUMANA INC	HUM	444859102	49071	6324	621491.0	P	01	LC	48653	20950	1993-03-08	E	hum
27920	27920	VICAL INC	VICL	925602203	0	2836	325414.0	P	01	LU	79022	12005	1993-03-10	2019-08-31	
27925	27925	AVID TECHNOLOGY INC	AVID	05367P100	896841	3861	333310.0	P	01	LC	78955	12009	1993-04-30	2023-11-30	avid
27928	27928	INTUIT INC	INTU	461202103	896878	7372	513210.0	P	01	LC	78975	12011	1993-03-12	E	intu
27932	27932	HALLMARK FINANCIAL SERVICES	HALL	40624Q302	819913	6331	524126.0	P	01	LC	75985	10299	1991-06-10	E	hall
27932	27932	HALLMARK FINANCIAL SERVICES	HALL	40624Q302	819913	6331	524126.0	C	00X	LC	75985	10299	1991-05-01	1991-06-09	hall
27936	27936	DESTINATION MATERNITY CORP	DESTQ	25065D100	896985	5621	448120.0	C	01	LC	78990	12014	1993-03-16	2023-01-31	destq
27938	27938	SHOE CARNIVAL INC	SCVL	824889109	895447	5661	458210.0	P	01	LU	79007	12015	1993-03-16	E	scvl
27945	27945	CAPSTAR FINANCIAL HLDGS INC	CSTR	14070T102	1676479	6020	522110.0	P	01	LC	16285	55691	2016-09-22	2024-04-30	cstr
27960	27960	ALAMO GROUP INC	ALG	011311107	897077	3523	333111.0	P	01	LU	78950	12025	1993-03-19	E	alg
27965	27965	MICROCHIP TECHNOLOGY INC	MCHP	595017104	827054	3674	334413.0	P	01	LC	78987	12027	1993-03-19	E	mchp
27981	27981	CHICOS FAS INC	CHS	168615102	897429	5621	458110.0	P	01	LU	78963	12036	1993-03-24	2024-01-31	chs
27983	27983	AETHLON MEDICAL INC	AEMD	00808Y406	882291	3841	339112.0	P	01	LC	15491	55344	2015-07-13	E	aemd
28012	28012	FULGENT GENETICS INC	FLGT	359664109	1674930	8071	621511.0	P	01	LC	16290	55694	2016-09-29	E	flgt
28027	28027	AMARIN CORPORATION PLC	AMRN	023111206	897448	2834	325412.0	P	90	LU	79122	12064	1993-04-01	E	amrn
28034	28034	CHUBB LTD	CB	H1467J104	896159	6331	524126.0	P	01	LC	79057	29796	1993-03-25	E	cb
28070	28070	ADVANSIX INC	ASIX	00773T101	1673985	2820	325220.0	P	01	LC	16276	55684	2016-10-03	E	asix
28071	28071	DZS INC	DZSIQ	268211109	1101680	3661	334210.0	P	01	LC	89925	44633	2016-09-12	E	dzsi
28080	28080	NEVSUN RESOURCES LTD	NSU	64156L101	919991	1000	212234.0	P	01	LC	90527	46097	2005-01-12	E	
28084	28084	COUPA SOFTWARE INC	COUP	22266L106	1385867	7370	518210.0	P	01	LC	16382	55747	2016-10-06	2023-03-31	coup
28086	28086	OBALON THERAPEUTICS INC	OBLN	67424L209	0	3841	339112.0	P	01	LC	16393	55755	2016-10-06	2021-06-15	
28087	28087	EVERSPIN TECHNOLOGIES INC	MRAM	30041T104	1438423	3674	334413.0	P	01	LC	16392	55754	2016-10-07	E	mram
28091	28091	POLAR POWER INC	POLA	73102V204	1622345	3621	335312.0	P	01	LC	16528	55824	2016-12-07	E	pola
28118	28118	FOSSIL GROUP INC	FOSL	34988V106	883569	3873	334519.0	P	01	LC	79089	12074	1993-04-08	E	fosl
28118	28118	FOSSIL GROUP INC	FOSL	34988V106	883569	3873	334519.0	P	01	LC	79089	12074	1993-04-08	E	fosll
28119	28119	BROOKFIELD PROPERTY REIT	BPYU	11282X103	1496048	6798	531120.0	P	01	LC	79129	29807	2010-03-05	2021-07-30	
28119	28119	BROOKFIELD PROPERTY REIT	BPYU	11282X103	1496048	6798	531120.0	P	01	LC	79129	29807	1993-04-08	2009-04-15	
28139	28139	SANMINA CORP	SANM	801056102	897723	3672	334412.0	P	01	LU	79108	12083	1993-04-14	E	sanm
28176	28176	APTARGROUP INC	ATR	038336103	896622	3089	326199.0	P	01	LU	79133	29805	1993-04-23	E	atr
28180	28180	O'REILLY AUTOMOTIVE INC	ORLY	67103H107	898173	5531	441330.0	P	01	LU	79103	12097	1993-04-23	E	orly
28191	28191	ROYAL CARIBBEAN GROUP	RCL	V7780T103	884887	4400	483112.0	P	01	LU	79145	29819	1993-04-28	E	rcl
28192	28192	HOWMET AEROSPACE INC	HWM	443201108	4281	3728	336413.0	P	01	LC	24643	20060	2016-11-01	E	hwm
28192	28192	HOWMET AEROSPACE INC	HWM	443201108	4281	3728	336413.0	P	01	LC	24643	20060	2016-11-01	E	hwm-p
28194	28194	AVIENT CORP	AVNT	05368V106	1122976	2810	325130.0	P	01	LC	88597	39140	2000-09-13	E	avnt
28194	28194	AVIENT CORP	AVNT	05368V106	1122976	2810	325130.0	P	01	LC	79144	29808	1993-04-29	2000-08-31	avnt
28195	28195	JABIL INC	JBL	466313103	898293	3672	334412.0	P	01	LU	79094	12108	1993-04-29	E	jbl
28209	28209	ANIKA THERAPEUTICS INC	ANIK	035255108	898437	2836	325414.0	P	01	LU	79150	12119	1993-05-24	E	anik
28216	28216	REINSURANCE GROUP AMER INC	RGA	759351604	898174	6311	524130.0	J	04	LC	92799	29863	2008-09-19	2008-11-25	rga
28216	28216	REINSURANCE GROUP AMER INC	RGA	759351604	898174	6311	524130.0	J	04	LC	92799	29863	2008-09-19	2008-11-25	rza
28216	28216	REINSURANCE GROUP AMER INC	RGA	759351604	898174	6311	524130.0	J	04	LC	92799	29863	2008-09-19	2008-11-25	rzb
28216	28216	REINSURANCE GROUP AMER INC	RGA	759351604	898174	6311	524130.0	J	02	LC	86134	29863	1998-06-05	1999-09-14	rga
28216	28216	REINSURANCE GROUP AMER INC	RGA	759351604	898174	6311	524130.0	J	02	LC	86134	29863	1998-06-05	1999-09-14	rza
28216	28216	REINSURANCE GROUP AMER INC	RGA	759351604	898174	6311	524130.0	J	02	LC	86134	29863	1998-06-05	1999-09-14	rzb
28216	28216	REINSURANCE GROUP AMER INC	RGA	759351604	898174	6311	524130.0	P	01	LC	79210	29863	1993-05-04	E	rga
28216	28216	REINSURANCE GROUP AMER INC	RGA	759351604	898174	6311	524130.0	P	01	LC	79210	29863	1993-05-04	E	rza
28216	28216	REINSURANCE GROUP AMER INC	RGA	759351604	898174	6311	524130.0	P	01	LC	79210	29863	1993-05-04	E	rzb
28236	28236	GILAT SATELLITE NETWORKS LTD	GILT	M51474118	897322	3663	334220.0	P	01	LU	78971	12044	1993-03-26	E	gilt
28262	28262	NATUZZI SPA	NTZ	63905A200	900391	2510	337121.0	P	90	LU	79213	29845	1993-05-13	E	ntz
28272	28272	ASTRAZENECA PLC	AZN	046353108	901832	2834	325412.0	P	90	LC	79363	29908	1993-06-07	E	azn
28272	28272	ASTRAZENECA PLC	AZN	046353108	901832	2834	325412.0	P	90	LC	79363	29908	1993-06-07	E	azncf
28286	28286	PGS ASA	PGSVY	69290P108	902053	1382	541360.0	P	91	LC	90509	46029	2004-12-17	2007-07-19	
28286	28286	PGS ASA	PGSVY	69290P108	902053	1382	541360.0	P	90	LC	79184	12143	1993-05-19	2003-02-25	
28295	28295	TITAN INTERNATIONAL INC	TWI	88830M102	899751	3523	333111.0	P	01	LU	79198	12147	1993-05-20	E	twi
28303	28303	ELLIS PERRY INTL INC	PERY	288853104	900349	2320	315220.0	P	01	LC	79195	12154	1993-05-21	2018-10-23	
28320	28320	CDW CORP	CDW	12514G108	1402057	5045	423430.0	P	01	LC	79157	12165	1993-05-27	2007-10-12	cdw
28320	28320	CDW CORP	CDW	12514G108	1402057	5045	423430.0	P	02	LC	13949	54426	2013-06-27	E	cdw
28322	28322	HEALTHCARE REALTY TRUST INC	HR	42226K105	1360604	6798	531190.0	P	01	LC	79233	29844	1993-05-27	2022-07-20	hr
28322	28322	HEALTHCARE REALTY TRUST INC	HR	42226K105	1360604	6798	531190.0	P	01	LC	13439	54106	2022-07-21	E	hr
28323	28323	ACADIA REALTY TRUST	AKR	004239109	899629	6798	531120.0	P	01	LU	79235	29848	1993-05-27	E	akr
28338	28338	TRANSOCEAN LTD	RIG	H8817H100	1451505	1381	213111.0	P	01	LC	79237	29866	1993-05-28	E	rig
28340	28340	TANGER INC	SKT	875465106	899715	6798	531120.0	P	01	LU	79238	29867	1993-05-28	E	skt
28347	28347	FLOTEK INDUSTRIES INC	FTK	343389409	928054	2810	3251.0	P	01	LC	90783	46992	2005-07-27	E	ftk
28349	28349	ALLSTATE CORP	ALL	020002101	899051	6331	524126.0	P	01	LC	79323	29870	1993-06-03	E	all
28349	28349	ALLSTATE CORP	ALL	020002101	899051	6331	524126.0	P	01	LC	79323	29870	1993-06-03	E	all-pb
28349	28349	ALLSTATE CORP	ALL	020002101	899051	6331	524126.0	P	01	LC	79323	29870	1993-06-03	E	all-pg
28349	28349	ALLSTATE CORP	ALL	020002101	899051	6331	524126.0	P	01	LC	79323	29870	1993-06-03	E	all-ph
28349	28349	ALLSTATE CORP	ALL	020002101	899051	6331	524126.0	P	01	LC	79323	29870	1993-06-03	E	all-pi
28365	28365	SENESTECH INC	SNES	81720R604	1680378	2870	325320.0	P	01	LC	16532	55827	2016-12-08	E	snes
28367	28367	IRHYTHM TECHNOLOGIES INC	IRTC	450056106	1388658	3845	334510.0	P	01	LC	16386	55752	2016-10-20	E	irtc
28368	28368	GTY TECHNOLOGY HOLDINGS	GTYH	362409104	1682325	7370	518210.0	P	02	LC	16464	55750	2016-11-14	2022-07-29	
28370	28370	PLAYA HOTELS & RESORTS N.V	PLYA	N70544106	1692412	7011	721110.0	P	01	LC	16641	55893	2017-03-13	E	plya
28378	28378	LIONS GATE ENTERTAINMENT CP	LGF.A	535919401	929351	7812	512110.0	P	01	LC	86408	34913	1998-11-17	E	lgf-a
28378	28378	LIONS GATE ENTERTAINMENT CP	LGF.A	535919401	929351	7812	512110.0	P	01	LC	86408	34913	1998-11-17	E	lgf-b
28378	28378	LIONS GATE ENTERTAINMENT CP	LGF.A	535919401	929351	7812	512110.0	J	02	LC	16495	34913	2016-12-09	E	lgf-a
28378	28378	LIONS GATE ENTERTAINMENT CP	LGF.A	535919401	929351	7812	512110.0	J	02	LC	16495	34913	2016-12-09	E	lgf-b
28380	28380	ORTHOFIX MEDICAL INC	OFIX	68752M108	884624	3841	339112.0	P	01	LC	78756	11486	1992-04-24	E	ofix
28383	28383	ATTUNITY LTD	ATTU	M15332121	893821	7372	511210.0	P	01	LC	78201	11867	2012-07-26	2019-05-31	
28383	28383	ATTUNITY LTD	ATTU	M15332121	893821	7372	511210.0	P	01	LC	78201	11867	1992-12-17	2008-02-21	
28384	28384	SAPIENS INTERNATIONAL CORP	SPNS	G7T16G103	885740	7372	513210.0	P	01	LU	78759	11544	1992-05-29	E	spns
28385	28385	SENSTAR TECHNOLOGIES CORP	SNT	81728N100	1993727	3669	334290.0	P	01	LU	78985	12032	1993-03-23	E	
28397	28397	PAPA JOHNS INTERNATIONAL INC	PZZA	698813102	901491	5812	722513.0	P	01	LU	79299	12185	1993-06-08	E	pzza
28408	28408	GENTHERM INC	THRM	37253A103	903129	3714	336390.0	P	01	LC	79248	12194	1993-06-10	E	thrm
28410	28410	BARRETT BUSINESS SVCS INC	BBSI	068463108	902791	7363	561311.0	P	01	LU	79249	12197	1993-06-11	E	bbsi
28420	28420	BLACKLINE INC	BL	09239B109	1666134	7370	518210.0	P	01	LC	16381	55746	2016-10-28	E	bl
28421	28421	MYOVANT SCIENCES LTD	MYOV	G637AM102	1679082	2834	325412.0	P	01	LC	16451	55783	2016-10-27	2023-03-31	myov
28423	28423	ZTO EXPRESS CAYMAN INC	ZTO	98980A105	1677250	4513	492110.0	P	90	LC	16449	55781	2016-10-27	E	zto
28424	28424	QUANTENNA COMMUNICATIONS INC	QTNA	74766D100	1370702	3674	334413.0	P	01	LC	16397	55757	2016-10-28	2019-06-28	
28456	28456	SUBSEA 7 SA	SUBCY	864323100	898685	1389	238910.0	P	90	LC	86190	12152	2001-03-01	2011-03-07	
28456	28456	SUBSEA 7 SA	SUBCY	864323100	898685	1389	238910.0	C	90	LC	86190	12152	1998-06-26	2001-02-28	
28456	28456	SUBSEA 7 SA	SUBCY	864323100	898685	1389	238910.0	C	00X	LC	79191	56242	1993-05-21	1998-06-25	
28462	28462	LIBBEY INC	LBYYQ	529898108	902274	3220	327212.0	P	01	LC	79336	29883	2010-01-04	2020-11-30	
28462	28462	LIBBEY INC	LBYYQ	529898108	902274	3220	327212.0	P	01	LC	79336	29883	1993-06-18	2009-04-19	
28475	28475	GDS HOLDINGS LIMITED	GDS	36165L108	1526125	7370	518210.0	P	90	LC	16461	55789	2016-11-02	E	gds
28477	28477	FLIR SYSTEMS INC	FLIR	302445101	354908	3812	334511.0	P	01	LU	79265	12214	1993-06-22	2021-05-28	
28485	28485	COLLIERS INTL GROUP INC	CIGI	194693107	913353	6531	531210.0	P	01	LC	81208	13517	1998-04-30	E	cigi
28499	28499	YUM CHINA HOLDINGS INC	YUMC	98850P109	1673358	5812	722511.0	P	01	LC	16343	55716	2016-11-01	E	yumc
28515	28515	GROWGENERATION CORP	GRWG	39986L109	1604868	5200	444240.0	P	01	LC	19137	56971	2019-12-02	E	grwg
28518	28518	SHILOH INDUSTRIES INC	SHLOQ	824543102	904979	3460	336370.0	P	01	LC	79307	12240	1993-06-29	2020-09-09	
28520	28520	YACIMIENTOS PETE FISCALES SA	YPF	984245100	904851	2911	324110.0	P	90	LU	79362	29907	1993-08-31	E	ypf
28551	28551	INTELLIGENT PROCTN MGMT CORP	IPM	69764K106	1355839	7370	519290.0	P	01	LC	21863	58673	2021-08-03	E	palt
28590	28590	BRINKS CO	BCO	109696104	78890	7381	561613.0	C	01	LC	18649	21414	1993-07-27	E	bco
28590	28590	BRINKS CO	BCO	109696104	78890	7381	561613.0	C	01	LC	18649	21414	1962-01-31	1980-12-31	bco
28590	28590	BRINKS CO	BCO	109696104	78890	7381	561613.0	C	00X	LC	18649	21414	1950-01-01	1962-01-30	bco
28620	28620	PREMIER FINANCIAL CORP	PFC	74052F108	946647	6020	522110.0	P	01	LU	79382	12289	1993-07-20	E	pfc
28629	28629	CAMDEN PROPERTY TRUST	CPT	133131102	906345	6798	531110.0	P	01	LU	79452	29911	1993-07-22	E	cpt
28670	28670	INNOVATIVE INDUSTRIAL PPTYS	IIPR	45781V101	1677576	6798	531120.0	P	01	LC	16515	55816	2016-12-01	E	iipr
28670	28670	INNOVATIVE INDUSTRIAL PPTYS	IIPR	45781V101	1677576	6798	531120.0	P	01	LC	16515	55816	2016-12-01	E	iipr-pa
28675	28675	TANDY LEATHER FACTORY INC	TLF	87538X105	909724	5990	459999.0	P	01	LC	79666	29969	2022-09-07	E	tlf
28675	28675	TANDY LEATHER FACTORY INC	TLF	87538X105	909724	5990	459999.0	P	01	LC	79666	29969	2022-09-07	E	tlfa
28675	28675	TANDY LEATHER FACTORY INC	TLF	87538X105	909724	5990	459999.0	P	01	LC	79666	29969	1993-09-27	2020-08-12	tlf
28675	28675	TANDY LEATHER FACTORY INC	TLF	87538X105	909724	5990	459999.0	P	01	LC	79666	29969	1993-09-27	2020-08-12	tlfa
28717	28717	INNODATA INC	INOD	457642205	903651	8700	5416.0	P	01	LU	79499	12347	1993-08-10	E	inod
28719	28719	CONDUENT INC	CNDT	206787103	1677703	7374	518210.0	P	01	LC	16497	55805	2017-01-03	E	cndt
28724	28724	BALLARD POWER SYSTEMS INC	BLDP	058586108	1453015	3690	335999.0	P	01	LC	82555	14111	1995-11-08	E	bldp
28733	28733	EQUITY RESIDENTIAL	EQR	29476L107	906107	6798	531110.0	P	01	LU	79547	29940	1993-08-12	E	eqr
28742	28742	BORGWARNER INC	BWA	099724106	908255	3714	336310.0	P	01	LU	79545	29936	1993-08-13	E	bwa
28749	28749	FULL HOUSE RESORTS INC	FLL	359678109	891482	7990	713210.0	P	01	LU	79490	12346	1993-08-17	E	fll
28762	28762	SPARTANNASH CO	SPTN	847215100	877422	5141	424410.0	P	01	LC	88568	38463	2000-08-02	E	sptn
28787	28787	PERFORMANCE FOOD GROUP CO	PFGC	71377A103	1618673	5140	4244.0	P	01	LC	79517	12375	1993-08-25	2008-05-23	pfgc
28787	28787	PERFORMANCE FOOD GROUP CO	PFGC	71377A103	1618673	5140	4244.0	P	02	LC	15724	55428	2015-10-01	E	pfgc
28790	28790	LAMB WESTON HOLDINGS INC	LW	513272104	1679273	2030	311411.0	P	01	LC	16431	55778	2016-11-10	E	lw
28806	28806	ARROWHEAD PHARMACEUTICAL INC	ARWR	04280A100	879407	2836	325414.0	C	01	LC	80069	12204	2004-09-03	E	arwr
28806	28806	ARROWHEAD PHARMACEUTICAL INC	ARWR	04280A100	879407	2836	325414.0	C	01	LC	80069	12204	1993-12-14	1994-07-20	arwr
28819	28819	FUEL TECH INC	FTEK	359523107	846913	3559	333248.0	P	01	LU	79586	12390	1993-09-07	E	ftek
28838	28838	CREDIT SUISSE GROUP	CS	225401108	1159510	6211	523150.0	P	90	LC	89154	42125	2001-09-25	2023-06-30	cs
28838	28838	CREDIT SUISSE GROUP	CS	225401108	1159510	6211	523150.0	P	90	LC	89154	42125	2001-09-25	2023-06-30	csgkf
28844	28844	COCA-COLA FEMSA SAB DE CV	KOF	191241108	910631	2086	312111.0	P	90	LU	79644	29958	1993-09-14	E	kof
28844	28844	COCA-COLA FEMSA SAB DE CV	KOF	191241108	910631	2086	312111.0	P	90	LU	79644	29958	1993-09-14	E	cocsf
28853	28853	ARRIS INTERNATIONAL PLC	ARRS	G0551A103	1645494	3663	334220.0	P	01	LC	79564	12407	1993-09-17	E	
28866	28866	PATHWARD FINANCIAL INC	CASH	59100U108	907471	6020	522110.0	P	01	LU	79571	12412	1993-09-20	E	cash
28877	28877	KEURIG DR PEPPER INC	KDP	49271V100	1418135	2080	311930.0	P	01	LC	79588	12415	1993-09-21	2016-03-02	kdp
28877	28877	KEURIG DR PEPPER INC	KDP	49271V100	1418135	2080	311930.0	P	02	LC	17942	56438	2018-07-10	E	kdp
28883	28883	SOC QUIMICA Y MINERA DE CHI	SQM	833635105	909037	2810	325180.0	J	91	LC	86808	35034	1999-04-15	2008-03-26	sqm
28883	28883	SOC QUIMICA Y MINERA DE CHI	SQM	833635105	909037	2810	325180.0	P	90	LC	79663	29979	1993-09-21	E	sqm
28903	28903	ENERFLEX LTD	EFXT	29269R105	1904856	3533	333132.0	P	03	LC	23469	59424	2022-10-13	E	enrff
28924	28924	BARNES & NOBLE INC	BKS	067774109	890491	5940	451211.0	P	01	LU	79667	29955	1993-09-28	2019-08-30	
28930	28930	MARRIOTT INTL INC	MAR	571903202	1048286	7011	721110.0	P	02	LC	85913	30005	1998-05-01	E	mar
28930	28930	MARRIOTT INTL INC	MAR	571903202	1048286	7011	721110.0	J	02	LC	85913	30005	1998-03-30	1998-04-30	mar
28930	28930	MARRIOTT INTL INC	MAR	571903202	1048286	7011	721110.0	J	01	LC	79764	30005	1998-05-01	1998-05-20	mar
28930	28930	MARRIOTT INTL INC	MAR	571903202	1048286	7011	721110.0	P	01	LC	79764	30005	1993-10-12	1998-04-30	mar
28940	28940	BELDEN INC	BDC	077454106	913142	3670	33441.0	P	01	LC	79668	29956	1993-09-30	E	bdc
28967	28967	QCR HOLDINGS INC	QCRH	74727A104	906465	6020	522110.0	P	01	LU	79731	12462	1993-10-06	E	qcrh
29004	29004	VAREX IMAGING CORP	VREX	92214X106	1681622	3844	334517.0	P	01	LC	16543	55836	2017-01-30	E	vrex
29011	29011	BOYD GAMING CORP	BYD	103304101	906553	7011	721120.0	P	01	LU	79758	29992	1993-10-15	E	byd
29015	29015	DECKERS OUTDOOR CORP	DECK	243537107	910521	3021	316210.0	P	01	LU	79686	12484	1993-10-15	E	deck
29016	29016	GREAT ELM CAPITAL CORP	GECC	390320703	1675033	6797	523910.0	P	01	LC	16403	55762	2016-11-04	E	gecc
29016	29016	GREAT ELM CAPITAL CORP	GECC	390320703	1675033	6797	523910.0	P	01	LC	16403	55762	2016-11-04	E	geccm
29016	29016	GREAT ELM CAPITAL CORP	GECC	390320703	1675033	6797	523910.0	P	01	LC	16403	55762	2016-11-04	E	geccn
29016	29016	GREAT ELM CAPITAL CORP	GECC	390320703	1675033	6797	523910.0	P	01	LC	16403	55762	2016-11-04	E	gecco
29018	29018	ALBIREO PHARMA INC	ALBO	01345P106	1322505	2836	325414.0	P	01	LC	92032	52284	2016-11-04	2023-03-31	albo
29028	29028	COSTCO WHOLESALE CORP	COST	22160K105	909832	5399	455211.0	P	01	LC	87055	7882	1993-10-22	E	cost
29039	29039	ENEL AMERICAS SA	ENIAY	29274F104	912505	4911	2211.0	P	90	LC	79767	30000	1993-10-20	2022-07-29	
29052	29052	LXP INDUSTRIAL TRUST	LXP	529043101	910108	6798	531120.0	P	01	LU	79770	30004	1993-10-22	E	lxp
29052	29052	LXP INDUSTRIAL TRUST	LXP	529043101	910108	6798	531120.0	P	01	LU	79770	30004	1993-10-22	E	lxp-pc
29082	29082	CBL & ASSOCIATES PPTYS INC	CBL	124830878	910612	6798	531120.0	P	01	LC	79777	29993	1993-10-28	2020-11-02	cbl
29082	29082	CBL & ASSOCIATES PPTYS INC	CBL	124830878	910612	6798	531120.0	P	10	LC	22360	29993	2021-11-02	E	cbl
29086	29086	PALATIN TECHNOLOGIES INC	PTN	696077502	911216	2836	325414.0	P	01	LC	79702	12516	1997-10-14	E	ptn
29099	29099	REGENCY CENTERS CORP	REG	758849103	910606	6798	531120.0	P	01	LU	79782	30011	1993-10-29	E	reg
29108	29108	PATTERSON-UTI ENERGY INC	PTEN	703481101	889900	1381	213111.0	P	01	LU	79857	12530	1993-11-02	E	pten
29127	29127	INCYTE CORP	INCY	45337C102	879169	2836	325414.0	P	01	LU	79906	30033	1993-11-04	E	incy
29131	29131	GIBRALTAR INDUSTRIES INC	ROCK	374689107	912562	3310	331221.0	P	01	LU	79862	12541	1993-11-05	E	rock
29133	29133	ITRON INC	ITRI	465741106	780571	3824	334514.0	P	01	LU	79839	12539	1993-11-05	E	itri
29135	29135	BAYTEX ENERGY CORP	BTE	07317Q105	1279495	1311	211120.0	P	01	LC	91135	50468	2006-03-27	E	btegf
29138	29138	WILDHORSE RES DVLPT	WRD.2	96812T102	1681714	1311	211120.0	P	01	LC	16519	55819	2016-12-14	2019-01-31	
29150	29150	URBAN OUTFITTERS INC	URBN	917047102	912615	5651	458110.0	P	01	LU	79881	12546	1993-11-09	E	urbn
29151	29151	CENTURY CASINOS INC	CNTY	156492100	911147	7990	721120.0	P	01	LU	79791	12557	1993-11-10	E	cnty
29155	29155	CARS.COM INC	CARS	14575E105	1683606	7370	519290.0	P	01	LC	16696	55930	2017-06-01	E	cars
29156	29156	UFP INDUSTRIES INC	UFPI	90278Q108	912767	2421	321999.0	P	01	LC	79878	12553	1993-11-10	E	ufpi
29170	29170	MACE SECURITY INTL INC	MACE	554335208	912607	3990	339999.0	P	01	LC	79846	12564	1993-11-12	2010-09-29	
29173	29173	OVINTIV EXPLORATION INC	NFX	651290108	912750	1311	211111.0	P	01	LU	79915	30044	1993-11-12	2019-02-28	
29191	29191	ICHOR HOLDINGS LTD	ICHR	G4740B105	1652535	3559	333242.0	P	01	LC	16525	55822	2016-12-09	E	ichr
29194	29194	TELECOM ARGENTINA	TEO	879273209	932470	4812	517112.0	P	90	LU	81133	30836	1994-12-09	E	teo
29194	29194	TELECOM ARGENTINA	TEO	879273209	932470	4812	517112.0	P	90	LU	81133	30836	1994-12-09	E	tcmff
29206	29206	FORWARD AIR CORP	FWRD	349853101	912728	4210	484110.0	P	01	LU	79841	12577	1993-11-16	E	fwrd
29207	29207	BEYONDSPRING INC	BYSI	G10830100	1677940	2836	325414.0	P	01	LC	16626	55884	2017-03-09	E	bysi
29211	29211	BOSTON PRIVATE FINL HOLDINGS	BPFH	101119105	821127	6020	522110.0	P	01	LC	80223	12848	1994-04-29	2021-07-30	
29211	29211	BOSTON PRIVATE FINL HOLDINGS	BPFH	101119105	821127	6020	522110.0	C	00X	LC	80223	12848	1994-02-14	1994-04-28	
29217	29217	RADIUS RECYCLING INC	RDUS	806882106	912603	5093	423930.0	P	01	LU	79866	12574	1993-11-16	E	schn
29241	29241	VIAVI SOLUTIONS INC	VIAV	925550105	912093	3576	334210.0	P	01	LC	79879	12583	1993-11-17	E	viav
29275	29275	PRIORITY TECHNLGY HLDNGS INC	PRTH	74275G107	1653558	7374	518210.0	P	01	LC	16465	55688	2018-07-27	E	prth
29275	29275	PRIORITY TECHNLGY HLDNGS INC	PRTH	74275G107	1653558	7374	518210.0	P	01	LC	16465	55688	2018-07-27	E	prthw
29282	29282	FLAGSTAR FINANCIAL INC	FLG	649445400	910073	6036	522180.0	P	01	LC	79859	12608	1993-11-23	E	nycb
29282	29282	FLAGSTAR FINANCIAL INC	FLG	649445400	910073	6036	522180.0	P	01	LC	79859	12608	1993-11-23	E	nycb-pa
29282	29282	FLAGSTAR FINANCIAL INC	FLG	649445400	910073	6036	522180.0	P	01	LC	79859	12608	1993-11-23	E	nycb-pu
29286	29286	BANCO BBVA ARGENTINA SA	BBAR	058934100	913059	6020	522110.0	P	90	LC	79895	30025	1993-11-24	E	bbar
29332	29332	PARKERVISION INC	PRKR	701354300	914139	3663	334220.0	P	01	LU	80019	12624	1993-12-01	E	prkr
29359	29359	SUN COMMUNITIES INC	SUI	866674104	912593	6798	531110.0	P	01	LU	80102	30087	1993-12-09	E	sui
29375	29375	CASA SYSTEMS INC	CASSQ	14713L102	1333835	3576	334118.0	P	01	LC	17135	56169	2017-12-15	2024-06-28	casa
29378	29378	BEST INC	BEST	08653C601	1709505	4213	484122.0	P	90	LC	16940	56072	2017-09-20	E	best
29382	29382	MADDEN STEVEN LTD	SHOO	556269108	913241	3140	316210.0	P	01	LU	80034	12669	1993-12-13	E	shoo
29389	29389	SIMON PROPERTY GROUP INC	SPG	828806109	1063761	6798	531120.0	P	01	LC	80100	30086	1993-12-14	E	spg
29389	29389	SIMON PROPERTY GROUP INC	SPG	828806109	1063761	6798	531120.0	P	01	LC	80100	30086	1993-12-14	E	spg-pj
29392	29392	EASTMAN CHEMICAL CO	EMN	277432100	915389	2800	325.0	P	01	LU	80080	30070	1994-01-04	E	emn
29418	29418	ENDRA LIFE SCIENCES INC	NDRA	29273B500	1681682	3845	334510.0	P	01	LC	16793	55938	2017-06-28	E	ndra
29453	29453	CHENIERE ENERGY INC	LNG	16411R208	3570	1311	211130.0	C	01	LC	84723	15434	2001-03-05	E	lng
29453	29453	CHENIERE ENERGY INC	LNG	16411R208	3570	1311	211130.0	C	01	LC	84723	15434	1997-04-11	2000-12-13	lng
29476	29476	THERATECHNOLOGIES INC	THTX	88338H704	1512717	2834	325412.0	P	01	LC	12890	53825	2019-10-10	E	thtx
29476	29476	THERATECHNOLOGIES INC	THTX	88338H704	1512717	2834	325412.0	P	01	LC	12890	53825	2011-06-15	2013-02-04	thtx
29478	29478	ATS CORP	ATS	00217Y104	1394832	3569	333999.0	P	01	LC	23889	59566	2023-05-25	E	
29517	29517	MEDIFAST INC	MED	58470H101	910329	2090	311999.0	P	01	LU	80054	12740	1993-12-30	E	med
29524	29524	NEXTIER OILFIELD SOLUTNS INC	NEX	65290C105	1688476	1389	213112.0	P	01	LC	16557	55842	2017-01-20	2023-09-29	nex
29537	29537	TRIVAGO NV	TRVG	89686D303	1683825	7370	519290.0	P	90	LC	16535	55830	2016-12-16	E	trvg
29552	29552	BOARDWALK REAL ESTATE TRUST	BOWFF	096631106	1129929	6798	531110.0	P	01	LC	88847	41075	2000-12-19	2004-02-20	
29565	29565	JAGGED PEAK ENERGY INC	JAG.1	47009K107	1685715	1311	211120.0	P	01	LC	16553	55840	2017-01-27	2020-01-31	
29569	29569	YATRA ONLINE INC	YTRA	G98338109	1516899	4700	561510.0	P	01	LC	16537	55832	2016-12-19	E	ytra
29598	29598	ICC HOLDINGS INC	ICCH	44931Q104	1681903	6331	524126.0	P	01	LC	16633	55887	2017-03-28	E	icch
29609	29609	HAIN CELESTIAL GROUP INC	HAIN	405217100	910406	2000	311.0	P	01	LU	80167	12569	1994-01-20	E	hain
29636	29636	VIVOPOWER INTERNATIONAL PLC	VVPR	G9376R209	1681348	3621	335312.0	P	01	LC	16536	55831	2016-12-29	E	vvpr
29649	29649	MID-AMERICA APT CMNTYS INC	MAA	59522J103	912595	6798	531110.0	P	01	LC	80183	30104	1994-01-28	E	maa
29649	29649	MID-AMERICA APT CMNTYS INC	MAA	59522J103	912595	6798	531110.0	P	01	LC	80183	30104	1994-01-28	E	maa-pi
29666	29666	INSPIRED ENTERTAINMENT	INSE	45782N108	1615063	7812	512110.0	P	01	LC	15129	55078	2016-12-28	E	inse
29670	29670	RAMACO RESOURCES INC	METC	75134P600	1687187	1220	212115.0	J	02	LC	23940	55864	2023-06-22	E	metc
29670	29670	RAMACO RESOURCES INC	METC	75134P600	1687187	1220	212115.0	J	02	LC	23940	55864	2023-06-22	E	metcl
29670	29670	RAMACO RESOURCES INC	METC	75134P600	1687187	1220	212115.0	P	01	LC	16592	55864	2017-02-03	E	metc
29670	29670	RAMACO RESOURCES INC	METC	75134P600	1687187	1220	212115.0	P	01	LC	16592	55864	2017-02-03	E	metcl
29680	29680	SELECT WATER SOLUTIONS INC	WTTR	81617J301	1693256	1389	213112.0	P	01	LC	16667	55911	2017-04-21	E	wttr
29684	29684	JOUNCE THERAPEUTICS INC	JNCE	481116101	1640455	2836	325414.0	P	01	LC	16570	55852	2017-01-27	2023-05-31	jnce
29687	29687	APOLLO ENDOSURGERY INC	APEN	03767D108	1251769	3841	339112.0	P	01	LC	13648	54228	2016-12-30	2023-04-28	apen
29705	29705	DAKTRONICS INC	DAKT	234264109	915779	3990	339950.0	P	01	LU	80233	12843	1994-02-10	E	dakt
29718	29718	OBSEVA SA	OBSVF	H5861P103	1685316	2836	325414.0	P	01	LC	16573	55853	2017-01-26	2023-04-28	obsv
29722	29722	DSP GROUP INC	DSPG	23332B106	915778	3663	334220.0	P	01	LU	80236	12846	1994-02-11	2021-12-31	
29733	29733	MARTIN MARIETTA MATERIALS	MLM	573284106	916076	1400	212313.0	P	01	LC	80204	30260	1994-02-17	E	mlm
29734	29734	MOBILE MINI INC	MINI	60740F105	911109	7359	532490.0	P	01	LU	80254	12859	1994-02-17	2020-07-31	
29736	29736	TRACTOR SUPPLY CO	TSCO	892356106	916365	5200	459999.0	P	01	LU	80286	12863	1994-02-18	E	tsco
29751	29751	ALBEMARLE CORP	ALB	012653101	915913	2810	325180.0	P	01	LU	80191	30249	1994-03-11	E	alb
29755	29755	BEAZER HOMES USA INC	BZH	07556Q881	915840	1531	236117.0	P	01	LC	80193	30251	1994-02-23	E	bzh
29760	29760	KIMBELL ROYALTY PARTNERS LP	KRP	49435R102	1657788	1311	2111.0	P	01	LC	16582	55859	2017-02-03	E	krp
29762	29762	AROTECH CORP	ARTX	042682203	916529	3690	333318.0	P	01	LC	80237	12874	1994-02-24	2019-12-31	
29789	29789	ARCADIS NV	ARCAY	03923E107	913596	8711	541330.0	P	90	LC	79976	12744	2001-03-16	2007-06-07	
29789	29789	ARCADIS NV	ARCAY	03923E107	913596	8711	541330.0	P	90	LC	19672	12744	1993-12-30	2001-03-15	
29804	29804	INVESCO LTD	IVZ	G491BT108	914208	6282	523940.0	P	02	LC	81910	30929	1995-08-25	2007-12-03	ivz
29804	29804	INVESCO LTD	IVZ	G491BT108	914208	6282	523940.0	P	02	LC	19583	30929	2007-12-04	E	ivz
29830	29830	WESTROCK CO	WRK	96145D105	1732845	2650	322211.0	P	01	LC	80361	12895	1994-03-03	2015-07-01	wrk
29830	29830	WESTROCK CO	WRK	96145D105	1732845	2650	322211.0	P	01	LC	21186	21913	2015-07-02	2024-07-31	wrk
29835	29835	FOUNDATION BLDG MRL INC	FBM	350392106	1688941	5031	423310.0	P	01	LC	16579	55857	2017-02-10	2021-01-29	
29837	29837	BIOCRYST PHARMACEUTICALS INC	BCRX	09058V103	882796	2836	325414.0	P	01	LU	80306	12902	1994-03-04	E	bcrx
29850	29850	GRUPO TELEVISA SAB	TV	40049J206	912892	4841	516210.0	P	91	LU	80089	30077	1993-12-14	E	tv
29850	29850	GRUPO TELEVISA SAB	TV	40049J206	912892	4841	516210.0	P	91	LU	80089	30077	1993-12-14	E	grpff
29868	29868	MACERICH CO	MAC	554382101	912242	6798	531120.0	P	01	LU	80399	30362	1994-03-10	E	mac
29870	29870	OLYMPIC STEEL INC	ZEUS	68162K106	917470	5051	423510.0	P	01	LU	80375	12908	1994-03-10	E	zeus
29875	29875	AVALONBAY COMMUNITIES INC	AVB	053484101	915912	6798	531110.0	P	01	LU	80381	30345	1994-03-11	E	avb
29894	29894	NN INC	NNBR	629337106	918541	3562	332991.0	P	01	LU	80343	12917	1994-03-15	E	nnbr
29901	29901	COPART INC	CPRT	217204106	900075	5010	425120.0	P	01	LU	80320	12926	1994-03-17	E	cprt
29910	29910	SCANSOURCE INC	SCSC	806037107	918965	5045	423430.0	P	01	LU	80362	12933	1994-03-18	E	scsc
29921	29921	REVOLUTION LIGHTING TECHNLGS	RVLT	76155G206	917523	3640	335122.0	P	01	LC	80368	12935	1994-03-22	2019-10-11	
29930	29930	MOTORCAR PARTS OF AMER INC	MPAA	620071100	918251	3690	336320.0	C	01	LU	80341	12938	1994-03-23	E	mpaa
29946	29946	LANDMARK BANCORP INC/KS	LARK	51504L107	1141688	6020	522110.0	P	01	LU	80336	12951	1994-03-28	E	lark
29955	29955	BAUSCH HEALTH COMPANIES INC	BHC	071734107	885590	2834	325412.0	P	01	LC	80307	12952	1994-03-29	E	bhc
29962	29962	LIMONEIRA CO	LMNR	532746104	1342423	100	111320.0	C	01	LC	93397	53423	2010-05-27	E	lmnr
29968	29968	AK STEEL HOLDING CORP	AKS	001547108	918160	3312	331110.0	P	01	LU	80303	12961	1994-03-30	2020-03-31	
29984	29984	PROLOGIS INC	PLD	74340W103	1045609	6798	531120.0	P	01	LC	85592	32135	2011-06-03	E	pld
29984	29984	PROLOGIS INC	PLD	74340W103	1045609	6798	531120.0	P	01	LC	85592	32135	2011-06-03	E	pldgp
29984	29984	PROLOGIS INC	PLD	74340W103	1045609	6798	531120.0	P	01	LC	80406	30369	1994-03-31	2011-06-02	pld
29984	29984	PROLOGIS INC	PLD	74340W103	1045609	6798	531120.0	P	01	LC	80406	30369	1994-03-31	2011-06-02	pldgp
29985	29985	STANTEC INC	STN	85472N109	1131383	8711	541330.0	P	01	LC	90850	47197	2005-08-05	E	stn
30004	30004	INVITATION HOMES INC	INVH	46187W107	1687229	6798	531110.0	P	01	LC	16581	55858	2017-02-01	E	invh
30007	30007	VIVUS INC	VVUSQ	928551308	881524	2834	325412.0	P	01	LC	80485	12981	1994-04-07	2020-07-16	
30024	30024	MILLICOM INTL CELLULAR SA	TIGO	L6388F110	912958	4812	517112.0	P	01	LC	79996	12746	2019-01-09	E	tigo
30024	30024	MILLICOM INTL CELLULAR SA	TIGO	L6388F110	912958	4812	517112.0	P	01	LC	79996	12746	2019-01-09	E	miccf
30024	30024	MILLICOM INTL CELLULAR SA	TIGO	L6388F110	912958	4812	517112.0	P	01	LC	79996	12746	1993-12-31	2011-05-27	tigo
30024	30024	MILLICOM INTL CELLULAR SA	TIGO	L6388F110	912958	4812	517112.0	P	01	LC	79996	12746	1993-12-31	2011-05-27	miccf
30030	30030	SILICOM LTD	SILC	M84116108	916793	3576	334118.0	P	01	LU	80276	12865	1994-02-18	E	silc
30032	30032	EAGLE MATERIALS INC	EXP	26969P108	918646	3270	327420.0	J	02	LC	89983	30381	2004-02-02	2006-04-11	exp
30032	30032	EAGLE MATERIALS INC	EXP	26969P108	918646	3270	327420.0	P	01	LC	80415	30381	1994-04-12	E	exp
30055	30055	SOUTHERN MISSOURI BANCP INC	SMBC	843380106	916907	6036	522180.0	P	01	LU	80478	12994	1994-04-13	E	smbc
30059	30059	AMERN EAGLE OUTFITTERS INC	AEO	02553E106	919012	5600	4481.0	P	01	LU	80432	13001	1994-04-14	E	aeo
30067	30067	AGREE REALTY CORP	ADC	008492100	917251	6798	531120.0	P	01	LU	80412	30378	1994-04-15	E	adc
30067	30067	AGREE REALTY CORP	ADC	008492100	917251	6798	531120.0	P	01	LU	80412	30378	1994-04-15	E	adc-pa
30075	30075	VERMILION ENERGY INC	VET	923725105	1293135	1311	211120.0	P	01	LC	13820	54349	2013-03-12	E	vet
30076	30076	HAMILTON LANE INC	HLNE	407497106	1433642	6282	5239.0	P	01	LC	16632	55886	2017-03-01	E	hlne
30091	30091	SNAP INC	SNAP	83304A106	1564408	7370	519290.0	P	01	LC	16595	55867	2017-03-02	E	snap
30098	30098	INGERSOLL RAND INC	IR	45687V106	1699150	3560	333912.0	P	01	LC	80446	13008	1994-04-25	2013-07-31	ir
30098	30098	INGERSOLL RAND INC	IR	45687V106	1699150	3560	333912.0	P	02	LC	16692	55928	2017-06-01	E	ir
30098	30098	INGERSOLL RAND INC	IR	45687V106	1699150	3560	333912.0	C	02	LC	16692	55928	2017-05-12	2017-05-31	ir
30112	30112	TDC A/S	TLDAY	87236N102	1605975	4813	517110.0	P	90	LC	80429	30394	1994-04-28	2006-04-18	
30137	30137	NEKTAR THERAPEUTICS	NKTR	640268108	906709	2834	325412.0	P	01	LU	80539	13036	1994-05-03	E	nktr
30145	30145	PROPETRO HOLDING CORP	PUMP	74347M108	1680247	1389	213112.0	P	01	LC	16617	55879	2017-03-17	E	pump
30146	30146	INVESTMENT TECHNOLOGY GP INC	ITG	46145F105	920424	6211	523120.0	P	01	LC	80541	13045	1994-05-04	1999-04-27	
30146	30146	INVESTMENT TECHNOLOGY GP INC	ITG	46145F105	920424	6211	523120.0	P	01	LC	46392	6496	1999-04-28	2019-03-01	
30170	30170	FLEX LTD	FLEX	Y2573F102	866374	3672	334412.0	P	01	LC	80329	12930	1994-03-18	E	flex
30175	30175	DIVERSICARE HEALTHCARE SVCS	DVCR	255104101	919956	8051	623110.0	P	01	LU	80587	30396	1994-05-10	2021-11-30	
30218	30218	BANCO SANTANDER-CHILE	BSAC	05965X109	1027552	6020	522110.0	P	90	LU	84386	31891	1997-01-13	E	bsac
30220	30220	SYPRIS SOLUTIONS INC	SYPR	871655106	864240	3714	336350.0	P	01	LU	80534	13087	1994-05-18	E	sypr
30222	30222	AMERIS BANCORP	ABCB	03076K108	351569	6020	522110.0	P	01	LU	80498	13092	1994-05-19	E	abcb
30223	30223	SACHEM CAPITAL CORP	SACH	78590A109	1682220	6798	525990.0	P	01	LC	16585	55861	2017-02-10	E	sach
30223	30223	SACHEM CAPITAL CORP	SACH	78590A109	1682220	6798	525990.0	P	01	LC	16585	55861	2017-02-10	E	sach-pa
30223	30223	SACHEM CAPITAL CORP	SACH	78590A109	1682220	6798	525990.0	P	01	LC	16585	55861	2017-02-10	E	sacc
30223	30223	SACHEM CAPITAL CORP	SACH	78590A109	1682220	6798	525990.0	P	01	LC	16585	55861	2017-02-10	E	sccb
30223	30223	SACHEM CAPITAL CORP	SACH	78590A109	1682220	6798	525990.0	P	01	LC	16585	55861	2017-02-10	E	sccc
30223	30223	SACHEM CAPITAL CORP	SACH	78590A109	1682220	6798	525990.0	P	01	LC	16585	55861	2017-02-10	E	sccd
30223	30223	SACHEM CAPITAL CORP	SACH	78590A109	1682220	6798	525990.0	P	01	LC	16585	55861	2017-02-10	E	scce
30223	30223	SACHEM CAPITAL CORP	SACH	78590A109	1682220	6798	525990.0	P	01	LC	16585	55861	2017-02-10	E	sccf
30223	30223	SACHEM CAPITAL CORP	SACH	78590A109	1682220	6798	525990.0	P	01	LC	16585	55861	2017-02-10	E	sccg
30241	30241	TELLURIAN INC	TELL	87968A104	61398	1311	211120.0	P	01	LC	89790	3021	2017-02-10	2024-10-31	tell
30241	30241	TELLURIAN INC	TELL	87968A104	61398	1311	211120.0	P	01	LC	89790	3021	2017-02-10	2024-10-31	telz
30259	30259	PENN ENTERTAINMENT INC	PENN	707569109	921738	7990	713290.0	P	01	LC	80563	13115	1994-05-26	E	penn
30260	30260	SIMPSON MANUFACTURING INC	SSD	829073105	920371	3420	332510.0	P	01	LU	80575	13114	1994-05-26	E	ssd
30280	30280	REKOR SYSTEMS INC	REKR	759419104	1697851	7370	518210.0	P	01	LC	17270	56237	2018-01-10	E	rekr
30281	30281	LA JOLLA PHARMACEUTICAL CO	LJPC	503459604	920465	2836	325414.0	P	01	LC	80640	13125	2014-01-29	2022-08-31	
30281	30281	LA JOLLA PHARMACEUTICAL CO	LJPC	503459604	920465	2836	325414.0	P	01	LC	80640	13125	1994-06-03	2010-03-03	
30284	30284	LIBERTY ENERGY INC	LBRT	53115L104	1694028	1389	213112.0	P	01	LC	17221	56210	2018-01-12	E	lbrt
30293	30293	ESSEX PROPERTY TRUST	ESS	297178105	920522	6798	531110.0	P	01	LU	80681	30421	1994-06-07	E	ess
30298	30298	HIGHWOODS PROPERTIES INC	HIW	431284108	921082	6798	531120.0	P	01	LU	80688	30427	1994-06-08	E	hiw
30311	30311	VIRIDIAN THERAPEUTICS INC	VRDN	92790C104	1590750	2836	325414.0	P	01	LC	14708	54899	2017-02-14	E	vrdn
30312	30312	IMAX CORP	IMAX	45245E109	921582	3861	333310.0	P	01	LU	80635	13136	1994-06-10	E	imax
30354	30354	LIBERTY PROPERTY TRUST	LPT	531172104	921112	6798	531120.0	P	01	LU	80691	30429	1994-06-17	2020-02-28	
30369	30369	CI FINANCIAL CORP	CIXXF	125491100	1829948	6282	523930.0	P	01	LC	20071	57536	2020-11-17	E	cixx
30384	30384	FIRST INDL REALTY TRUST INC	FR	32054K103	921825	6798	531120.0	P	01	LU	80683	30423	1994-06-24	E	fr
30397	30397	WARRIOR MET COAL INC	HCC	93627C101	1691303	1220	21211.0	P	01	LC	16653	55901	2017-04-13	E	hcc
30398	30398	FALCONSTOR SOFTWARE INC	FALC	306137209	922521	7373	541512.0	P	01	LC	89099	13180	2001-08-23	2017-09-22	falc
30398	30398	FALCONSTOR SOFTWARE INC	FALC	306137209	922521	7373	541512.0	P	01	LC	80652	13180	1994-06-28	2001-08-22	falc
30401	30401	NETSHOES CAYMAN LTD	NETS	G6455X107	1562767	5961	454110.0	P	01	LC	16669	55913	2017-04-12	2019-06-28	
30428	30428	ALTA MESA RESOURCES INC	AMRQQ	02133L109	1690769	1311	211120.0	P	03	LC	16677	55895	2017-04-28	2020-06-09	
30435	30435	J JILL INC	JILL	46620W201	1687932	5621	458110.0	P	01	LC	16611	55874	2017-03-09	E	jill
30443	30443	FRESH DEL MONTE PRODUCE INC	FDP	G36738105	1047340	100	111339.0	P	01	LU	85449	32130	1997-10-24	E	fdp
30452	30452	BRADESCO BANCO	BBD	059460303	1160330	6020	522110.0	J	91	LC	13286	42405	2012-03-13	E	bbd
30452	30452	BRADESCO BANCO	BBD	059460303	1160330	6020	522110.0	J	91	LC	13286	42405	2012-03-13	E	bbdo
30462	30462	GRUPO KUO SAB DE CV	DES.2	250309101	925259	9997	999977.0	P	90	LU	80714	30442	1994-07-14	2004-11-30	
30463	30463	GREENBRIER COS INC (THE)	GBX	393657101	923120	3743	336510.0	P	01	LU	80719	30446	1994-07-14	E	gbx
30477	30477	MATTHEWS INTL CORP  -CL A	MATW	577128101	63296	3990	339995.0	P	01	LU	80759	13210	1994-07-20	E	matw
30490	30490	APARTMENT INVST & MGMT CO	AIV	03748R747	922864	6798	531110.0	P	01	LU	80711	30438	1994-07-22	E	aiv
30501	30501	KB FINANCIAL GROUP	KB	48241A105	1445930	6020	522110.0	P	91	LC	89236	42416	2001-11-09	E	kb
30535	30535	MULESOFT INC	MULE	625207105	1374684	7370	519130.0	P	01	LC	16614	55877	2017-03-17	2018-05-31	
30536	30536	GEO GROUP INC	GEO	36162J106	923796	8744	561210.0	P	01	LU	80774	13225	1994-07-27	E	geo
30538	30538	ENEL GENERACION CHILE SA	EOCCY	29244T101	926864	4911	2211.0	P	90	LU	80717	30445	1994-07-27	2020-12-31	
30547	30547	SOLARIS ENRGY INFRASTRUCTURE	SEI	83418M103	1697500	7359	532412.0	P	01	LC	16750	55961	2017-05-12	E	soi
30554	30554	TARO PHARMACEUTICL INDS LTD	TARO	M8737E108	906338	2834	325412.0	P	01	LC	78447	5630	2012-03-22	2024-06-28	taro
30554	30554	TARO PHARMACEUTICL INDS LTD	TARO	M8737E108	906338	2834	325412.0	P	01	LC	78447	5630	1989-01-31	2006-12-13	taro
30554	30554	TARO PHARMACEUTICL INDS LTD	TARO	M8737E108	906338	2834	325412.0	C	00X	LC	78447	5630	1989-01-01	1989-01-30	taro
30558	30558	MILLER INDUSTRIES INC/TN	MLR	600551204	924822	3713	336211.0	P	01	LU	80828	13240	1994-08-02	E	mlr
30560	30560	CANADA GOOSE HLDG	GOOS	135086106	1690511	2300	315.0	P	01	LC	16603	55872	2017-03-16	E	goos
30571	30571	ARDAGH GROUP SA	ARD	L0223L101	1689662	3411	332431.0	P	01	LC	16624	55882	2017-03-15	2021-10-29	
30576	30576	ADTRAN HOLDINGS INC	ADTN	00486H105	926282	3661	334210.0	P	01	LU	80791	13252	1994-08-10	E	adtn
30582	30582	NATIONAL BANK OF GREECE	NBGGY	633643804	1096061	6020	522110.0	P	92	LC	87279	36349	1999-10-20	2015-11-27	
30612	30612	AMEDISYS INC	AMED	023436108	896262	8082	621610.0	P	01	LU	80795	13269	1994-08-17	E	amed
30614	30614	ENERGY FOCUS INC	EFOI	29268T508	924168	3640	335132.0	P	01	LC	80812	13276	2014-08-07	E	efoi
30614	30614	ENERGY FOCUS INC	EFOI	29268T508	924168	3640	335132.0	P	01	LC	80812	13276	1994-08-18	2011-11-28	efoi
30622	30622	YEXT INC	YEXT	98585N106	1614178	7370	519290.0	P	01	LC	16650	55900	2017-04-13	E	yext
30637	30637	VERIS RESIDENTIAL INC	VRE	554489104	924901	6798	531110.0	P	01	LU	80779	30458	1994-08-25	E	vre
30651	30651	DARLING INGREDIENTS INC	DAR	237266101	916540	2070	311613.0	P	01	LU	80928	13300	1994-09-12	E	dar
30655	30655	ALTERYX INC	AYX	02156B103	1689923	7370	519290.0	P	01	LC	16597	55869	2017-03-24	2024-03-28	ayx
30662	30662	SIRIUS XM HOLDINGS INC	SIRI	829933100	908937	4832	516110.0	P	01	LC	80924	13304	1994-09-13	E	siri
30664	30664	HEXO CORP	HEXO	428304406	1690947	2834	325412.0	P	01	LC	18344	56620	2019-01-23	2023-06-30	hexo
30671	30671	RELIANCE INC	RS	759509102	861884	5051	423510.0	P	01	LU	80864	30474	1994-09-16	E	rs
30714	30714	TESSCO TECHNOLOGIES INC	TESS	872386107	927355	5065	423690.0	P	01	LU	80951	13338	1994-09-28	2023-07-31	tess
30736	30736	OKTA INC	OKTA	679295105	1660134	7370	519290.0	P	01	LC	16649	55899	2017-04-07	E	okta
30747	30747	HUANENG POWER INTERNATIONAL	HNPIY	443304100	929058	4911	2211.0	P	90	LU	81038	30494	1994-10-06	2022-10-31	hungf
30747	30747	HUANENG POWER INTERNATIONAL	HNPIY	443304100	929058	4911	2211.0	P	90	LU	81038	30494	1994-10-06	2022-10-31	hnpiy
30778	30778	CENTRAL EUROPEAN MEDIA	CETV	G20045202	925645	4833	515120.0	P	01	LU	80962	13369	1994-10-13	2020-10-30	
30806	30806	FIBRIA CELULOSE SA	FBR	31573A109	1110649	2611	322110.0	P	90	LC	93001	37143	2009-08-18	2019-01-31	
30821	30821	PT INDOSAT OOREDOO HUTCHISON	PTINY	744383100	929700	4812	517210.0	P	90	LU	81042	30499	1994-10-18	2014-12-31	
30822	30822	REALTY INCOME CORP	O	756109104	726728	6798	531120.0	P	01	LU	81045	30500	1994-10-18	E	o
30838	30838	TRANSPORTADORA DE GAS DEL SU	TGS	893870204	931427	1311	211130.0	P	91	LU	81067	30527	1994-11-17	E	tgs
30847	30847	STRATASYS LTD	SSYS	M85548101	1517396	3577	334118.0	P	01	LC	81010	13384	1994-10-21	E	ssys
30861	30861	KNIGHT-SWIFT TRPTN HLDGS INC	KNX	499049104	1492691	4213	484121.0	P	01	LC	80987	13394	1994-10-25	2017-09-08	knx
30861	30861	KNIGHT-SWIFT TRPTN HLDGS INC	KNX	499049104	1492691	4213	484121.0	P	01	LC	12473	53620	2017-09-11	E	knx
30870	30870	ASPEN TECHNOLOGY INC	AZPN	29109X106	1897982	7372	513210.0	P	01	LC	80957	13398	2010-02-10	2022-05-16	azpn
30870	30870	ASPEN TECHNOLOGY INC	AZPN	29109X106	1897982	7372	513210.0	P	01	LC	80957	13398	1994-10-26	2008-02-18	azpn
30870	30870	ASPEN TECHNOLOGY INC	AZPN	29109X106	1897982	7372	513210.0	P	01	LC	23063	59277	2022-05-17	E	azpn
30874	30874	KEPCO-KOREA ELEC POWER CORP	KEP	500631106	887225	4911	2211.0	J	91	LU	82302	30497	1995-10-06	1995-12-29	kep
30874	30874	KEPCO-KOREA ELEC POWER CORP	KEP	500631106	887225	4911	2211.0	P	90	LC	81040	30497	1994-10-27	E	kep
30877	30877	COVENANT LOGISTICS GROUP INC	CVLG	22284P105	928658	4213	484121.0	P	01	LU	80969	13402	1994-10-28	E	cvlg
30899	30899	HUDSON TECHNOLOGIES INC	HDSN	444144109	925528	5070	423740.0	P	01	LU	81084	13407	1994-11-01	E	hdsn
30923	30923	TECHNIPFMC PLC	FTI	G87110105	1681459	1389	213112.0	P	91	LC	89196	42288	2001-10-19	2007-08-15	fti
30923	30923	TECHNIPFMC PLC	FTI	G87110105	1681459	1389	213112.0	P	01	LC	16538	55833	2017-01-17	E	fti
30962	30962	CADENCE BANCORPORATION	CADE.3	12739A100	1614184	6020	522110.0	P	01	LC	16654	55903	2017-04-13	2021-10-29	
30964	30964	ALGORHYTHM HOLDINGS INC	RIME	829322502	923601	3651	334310.0	P	01	LC	88937	13422	2022-05-24	E	mics
30964	30964	ALGORHYTHM HOLDINGS INC	RIME	829322502	923601	3651	334310.0	P	01	LC	88937	13422	2001-03-08	2009-07-06	mics
30964	30964	ALGORHYTHM HOLDINGS INC	RIME	829322502	923601	3651	334310.0	P	01	LC	81107	13422	1994-11-10	1996-01-25	mics
30990	30990	CAPITAL ONE FINANCIAL CORP	COF	14040H105	927628	6141	522210.0	P	01	LC	81055	30513	1994-11-16	E	cof
30990	30990	CAPITAL ONE FINANCIAL CORP	COF	14040H105	927628	6141	522210.0	P	01	LC	81055	30513	1994-11-16	E	cof-pi
30990	30990	CAPITAL ONE FINANCIAL CORP	COF	14040H105	927628	6141	522210.0	P	01	LC	81055	30513	1994-11-16	E	cof-pj
30990	30990	CAPITAL ONE FINANCIAL CORP	COF	14040H105	927628	6141	522210.0	P	01	LC	81055	30513	1994-11-16	E	cof-pk
30990	30990	CAPITAL ONE FINANCIAL CORP	COF	14040H105	927628	6141	522210.0	P	01	LC	81055	30513	1994-11-16	E	cof-pl
30990	30990	CAPITAL ONE FINANCIAL CORP	COF	14040H105	927628	6141	522210.0	P	01	LC	81055	30513	1994-11-16	E	cof-pn
30998	30998	EMERALD HOLDING INC	EEX	29103W104	1579214	7389	561920.0	P	01	LC	16660	55908	2017-04-28	E	eex
30999	30999	CARVANA CO	CVNA	146869102	1690820	5500	441120.0	P	01	LC	16655	55904	2017-04-28	E	cvna
31004	31004	CLOUDERA INC	CLDR	18914U100	1535379	7370	519130.0	P	01	LC	16657	55906	2017-04-28	2021-10-29	
31005	31005	NCS MULTISTAGE HLDG INC	NCSM	628877201	1692427	3533	333132.0	P	01	LC	16675	55918	2017-04-28	E	ncsm
31006	31006	BRAGG GAMING GROUP	BRAG	104833306	1867834	7990	713.0	P	01	LC	21830	58646	2021-08-27	E	brag
31059	31059	ZYMEWORKS INC	ZYME	98985Y108	1937653	2836	325414.0	P	01	LC	16668	55912	2017-04-28	E	
31060	31060	CHINA RAPID FNC- ADR -OLD	XRF.1	83599R939	0	6141	522291.0	P	90	LC	16656	55905	2017-04-28	2020-05-31	
31061	31061	UROGEN PHARMA LTD	URGN	M96088105	1668243	2836	325414.0	P	01	LC	16711	55942	2017-05-04	E	urgn
31091	31091	VERITONE INC	VERI	92347M100	1615165	7370	518210.0	P	01	LC	16712	55943	2017-05-12	E	veri
31094	31094	BIOHAVEN PHRMCUTCL HLD	BHVN.1	G11196105	1689813	2834	325412.0	P	01	LC	16751	55963	2017-05-04	2022-10-31	bhvn
31108	31108	FIVE POINT HOLDINGS LLC	FPH	33833Q106	1574197	6552	237210.0	P	01	LC	16746	55958	2017-05-10	E	fph
31109	31109	ANTERO MIDSTREAM CORP	AM	03676B102	1623925	4922	486210.0	P	01	LC	16738	55956	2017-05-04	E	am
31112	31112	OVID THRPUTCS INC	OVID	690469101	1636651	2836	325414.0	P	01	LC	16709	55940	2017-05-05	E	ovid
31137	31137	SKY PLC	BSY.1	83084V106	932793	4841	515210.0	P	90	LC	81121	30820	1994-12-08	2010-05-19	
31142	31142	STMICROELECTRONICS NV	STM	861012102	932787	3674	334413.0	P	90	LU	81132	30835	1994-12-08	E	stm
31142	31142	STMICROELECTRONICS NV	STM	861012102	932787	3674	334413.0	P	90	LU	81132	30835	1994-12-08	E	stmef
31156	31156	ROSEHILL RESOURCES INC	ROSEQ	777385105	1659122	1311	211120.0	P	02	LC	15970	55535	2017-05-01	2020-09-08	
31170	31170	UNVL STAINLESS & ALLOY PRODS	USAP	913837100	931584	3312	331110.0	P	01	LU	81184	13466	1994-12-14	E	usap
31177	31177	SAVARA INC	SVRA	805111101	1160308	2834	325412.0	P	01	LC	90101	45058	2017-05-01	E	svra
31177	31177	SAVARA INC	SVRA	805111101	1160308	2834	325412.0	C	01	LC	90101	45058	2017-04-28	2017-04-30	svra
31214	31214	MIND TECHNOLOGY INC	MIND	602566309	926423	3829	334519.0	P	01	LC	81165	13487	1994-12-19	E	mind
31214	31214	MIND TECHNOLOGY INC	MIND	602566309	926423	3829	334519.0	P	01	LC	81165	13487	1994-12-19	E	mindp
31227	31227	NUTRISYSTEM INC	NTRI	67069D108	1096376	5961	454110.0	P	01	LC	88379	37746	2004-05-11	E	
31227	31227	NUTRISYSTEM INC	NTRI	67069D108	1096376	5961	454110.0	P	01	LC	88379	37746	2000-06-16	2001-05-24	
31236	31236	APPIAN CORP	APPN	03782L101	1441683	7370	518210.0	P	01	LC	16698	55932	2017-05-25	E	appn
31249	31249	ALTIMMUNE INC	ALT	02155H200	1326190	2836	325414.0	P	01	LC	90926	46994	2017-05-05	E	alt
31251	31251	KKR REAL ESTATE FIN TR INC	KREF	48251K100	1631596	6798	525990.0	P	01	LC	16691	55927	2017-05-05	E	kref
31251	31251	KKR REAL ESTATE FIN TR INC	KREF	48251K100	1631596	6798	525990.0	P	01	LC	16691	55927	2017-05-05	E	kref-pa
31252	31252	MAGNOLIA OIL & GAS CORP	MGY	559663109	1698990	1311	211120.0	P	02	LC	16771	55962	2018-01-01	E	mgy
31252	31252	MAGNOLIA OIL & GAS CORP	MGY	559663109	1698990	1311	211120.0	J	02	LC	16771	55962	2017-06-26	2017-12-31	mgy
31255	31255	TOWER SEMICONDUCTOR LTD	TSEM	M87915274	928876	3674	334413.0	P	01	LC	81013	13400	1994-10-26	E	tsem
31265	31265	GUARANTY BANCSHARES INC	GNTY	400764106	1058867	6020	522110.0	P	01	LC	86067	16115	2017-05-09	E	gnty
31292	31292	ASV HOLDINGS INC	ASV	00215L104	1690881	3531	333120.0	P	01	LC	16700	55934	2017-05-12	2019-09-30	
31294	31294	G1 THERAPEUTICS INC	GTHX	3621LQ109	1560241	2836	325414.0	P	01	LC	16705	55936	2017-05-17	2024-09-30	gthx
31295	31295	FOCUS FINANCL PRTNR INC	FOCS	34417P100	1651052	6282	523940.0	P	01	LC	17950	56444	2018-07-26	2023-09-29	focs
31301	31301	ELEDON PHARMACEUTICALS INC	ELDN	28617K101	1404281	2836	325414.0	P	01	LC	14937	55031	2017-05-11	E	eldn
31317	31317	BRIGHT SCHOLAR EDUCATION	BEDU	109199208	1696355	8200	611110.0	P	90	LC	16739	55957	2017-05-18	E	bedu
31331	31331	NATIONAL ENERGY SERVICES REU	NESR	G6375R107	1698514	1389	213112.0	P	02	LC	16794	55939	2017-06-05	E	nesr
31331	31331	NATIONAL ENERGY SERVICES REU	NESR	G6375R107	1698514	1389	213112.0	P	02	LC	16794	55939	2017-06-05	E	nesrw
31348	31348	MOTUS GI HOLDINGS INC	MOTS	62014P504	1686850	3845	334510.0	P	01	LC	17325	56275	2018-02-14	E	mots
31368	31368	HANMI FINANCIAL CORP	HAFC	410495204	1109242	6020	522110.0	P	01	LC	88865	41159	2001-01-29	E	hafc
31386	31386	PLAYAGS INC	AGS	72814N104	1593548	3990	339999.0	P	01	LC	17252	56221	2018-01-26	E	ags
31405	31405	ATHENEX INC	ATNXQ	04685N202	1300699	2836	325414.0	P	01	LC	16777	55979	2017-06-14	2023-10-03	atnx
31418	31418	PROPHASE LABS INC	PRPH	74345W108	868278	2834	325412.0	P	01	LU	85205	15580	1997-07-07	E	prph
31424	31424	CHINA YUCHAI INTERNATIONAL	CYD	G21082105	932695	3510	333618.0	P	01	LU	81134	30838	1994-12-16	E	cyd
31442	31442	OASIS MIDSTREAM PARTNR	OMP	67420T206	1652133	4610	486.0	P	01	LC	16957	56077	2017-09-21	2022-02-28	
31453	31453	INSIGHT ENTERPRISES INC	NSIT	45765U103	932696	5045	423430.0	P	01	LU	81220	13521	1995-01-24	E	nsit
31457	31457	SOUNDTHINKING INC	SSTI	82536T107	1351636	7370	519290.0	P	01	LC	16805	55994	2017-06-07	E	ssti
31460	31460	UPBOUND GROUP INC	UPBD	76009N100	933036	7350	532210.0	P	01	LU	81222	13524	1995-01-25	E	rcii
31466	31466	WIDEOPENWEST INC	WOW	96758W101	1701051	4813	517111.0	P	01	LC	16697	55931	2017-05-25	E	wow
31477	31477	AZENTA INC	AZTA	114340102	933974	8731	541714.0	P	01	LU	81241	13539	1995-02-02	E	azta
31494	31494	PENGUIN SOLUTIONS INC	PENG	G8232Y101	1616533	3674	334413.0	P	01	LC	16710	55941	2017-05-24	E	sgh
31507	31507	NINE ENERGY SERVICE INC	NINE	65441V101	1532286	1389	213112.0	P	01	LC	17251	56220	2018-01-19	E	nine
31519	31519	YAMANA GOLD INC	AUY	98462Y100	1264089	1040	212220.0	P	01	LC	89976	44730	2003-12-05	2023-04-28	auy
31521	31521	STONEX GROUP INC	SNEX	861896108	913760	6200	523160.0	P	01	LC	81254	12949	1995-03-31	E	snex
31542	31542	CO-DIAGNOSTIC INC	CODX	189763105	1692415	2835	325413.0	P	01	LC	16820	56004	2017-07-12	E	codx
31560	31560	SPEEDWAY MOTORSPORTS INC	TRK	847788106	934648	7948	711212.0	P	01	LU	81292	30852	1995-02-24	2019-09-30	
31564	31564	ACI WORLDWIDE INC	ACIW	004498101	935036	7370	518210.0	P	01	LU	81282	13587	1995-02-24	E	aciw
31585	31585	BYLINE BANCORP INC	BY	124411109	1702750	6020	522110.0	P	01	LC	16756	55968	2017-06-30	E	by
31587	31587	DOLLAR TREE INC	DLTR	256746108	935703	5331	455219.0	P	01	LC	81481	13603	1995-03-07	E	dltr
31607	31607	NATIONAL INSTRUMENTS CORP	NATI	636518102	935494	7372	511210.0	P	01	LU	81501	13617	1995-03-14	2023-10-31	nati
31624	31624	BLUE APRON HOLDNG INC	APRN	09523Q309	1701114	5961	445298.0	P	01	LC	16755	55967	2017-06-29	2023-11-30	aprn
31628	31628	MERSANA THRPEUTIC INC	MRSN	59045L106	1442836	2836	325414.0	P	01	LC	16792	55991	2017-06-28	E	mrsn
31629	31629	READING INTL INC  -CL A	RDI	755408101	716634	7830	512131.0	J	03	LC	87533	20454	2000-01-05	E	rdi
31629	31629	READING INTL INC  -CL A	RDI	755408101	716634	7830	512131.0	J	03	LC	87533	20454	2000-01-05	E	rdib
31629	31629	READING INTL INC  -CL A	RDI	755408101	716634	7830	512131.0	P	02	LC	87532	20454	2002-01-02	E	rdi
31629	31629	READING INTL INC  -CL A	RDI	755408101	716634	7830	512131.0	P	02	LC	87532	20454	2002-01-02	E	rdib
31629	31629	READING INTL INC  -CL A	RDI	755408101	716634	7830	512131.0	C	01	LC	65525	20454	2000-01-01	2000-01-04	rdi
31629	31629	READING INTL INC  -CL A	RDI	755408101	716634	7830	512131.0	C	01	LC	65525	20454	2000-01-01	2000-01-04	rdib
31629	31629	READING INTL INC  -CL A	RDI	755408101	716634	7830	512131.0	P	01	LC	65525	20454	1994-01-01	1999-12-31	rdi
31629	31629	READING INTL INC  -CL A	RDI	755408101	716634	7830	512131.0	P	01	LC	65525	20454	1994-01-01	1999-12-31	rdib
31629	31629	READING INTL INC  -CL A	RDI	755408101	716634	7830	512131.0	C	01	LC	65525	20454	1983-12-13	1993-12-31	rdi
31629	31629	READING INTL INC  -CL A	RDI	755408101	716634	7830	512131.0	C	01	LC	65525	20454	1983-12-13	1993-12-31	rdib
31631	31631	TINTRI INC	TNTRQ	88770Q105	1554875	7370	519130.0	C	01	LC	16806	55995	2017-06-30	E	
31653	31653	ASSURE HOLDINGS CORP	IONM	04625J402	1798270	8090	6219.0	P	01	LC	21938	58729	2021-09-29	E	ionm
31656	31656	REIN THERAPEUTICS INC	RNTX	00887A204	1420565	2836	325414.0	P	01	LC	16776	55978	2017-06-29	E	alrn
31657	31657	DOVA PHARMACEUTICAL INC	DOVA	25985T102	1685071	2834	325412.0	P	01	LC	16783	55986	2017-06-29	2019-11-29	
31673	31673	CENCORA INC	COR	03073E105	1140859	5122	424210.0	P	01	LC	81540	13650	1995-04-04	E	abc
31674	31674	PCM INC	PCMI	69323K100	937941	5961	454110.0	P	01	LC	81566	13648	1995-04-04	2019-08-31	
31692	31692	MB FINANCIAL INC/MD	MBFI	55264U108	1139812	6020	522110.0	P	01	LC	81541	13660	1995-04-07	2019-03-21	
31717	31717	IRSA INVERSIONES Y REPRESENT	IRS	450047303	933267	6512	531120.0	P	90	LC	81127	30828	1994-12-20	E	irs
31717	31717	IRSA INVERSIONES Y REPRESENT	IRS	450047303	933267	6512	531120.0	P	90	LC	81127	30828	1994-12-20	E	irs-wt
31752	31752	CBIZ INC	CBZ	124805102	944148	8721	541219.0	P	01	LU	81584	13695	1995-04-27	E	cbz
31764	31764	BANK OF MARIN BANCORP	BMRC	063425102	1403475	6020	522110.0	P	01	LU	87476	17669	1999-12-27	E	bmrc
31774	31774	BRIGHTHOUSE FINANL INC	BHF	10922N103	1685040	6311	524113.0	P	01	LC	16816	56000	2017-08-07	E	bhf
31774	31774	BRIGHTHOUSE FINANL INC	BHF	10922N103	1685040	6311	524113.0	P	01	LC	16816	56000	2017-08-07	E	bhfal
31774	31774	BRIGHTHOUSE FINANL INC	BHF	10922N103	1685040	6311	524113.0	P	01	LC	16816	56000	2017-08-07	E	bhfap
31774	31774	BRIGHTHOUSE FINANL INC	BHF	10922N103	1685040	6311	524113.0	P	01	LC	16816	56000	2017-08-07	E	bhfam
31774	31774	BRIGHTHOUSE FINANL INC	BHF	10922N103	1685040	6311	524113.0	P	01	LC	16816	56000	2017-08-07	E	bhfan
31774	31774	BRIGHTHOUSE FINANL INC	BHF	10922N103	1685040	6311	524113.0	P	01	LC	16816	56000	2017-08-07	E	bhfao
31802	31802	DELPHI TECHNOLOGIES PLC	DLPH	G2709G107	1707092	3714	336310.0	P	01	LC	17040	56123	2017-12-05	2020-10-30	
31803	31803	ADVANTAGE SOLUTIONS INC	ADV	00791N102	1776661	8742	541613.0	P	01	LC	18953	56823	2020-10-29	E	adv
31803	31803	ADVANTAGE SOLUTIONS INC	ADV	00791N102	1776661	8742	541613.0	P	01	LC	18953	56823	2020-10-29	E	advww
31805	31805	MYOMO INC	MYO	62857J201	1369290	3845	334510.0	P	01	LC	16765	55972	2017-06-12	E	myo
31819	31819	CARLYLE SECURED LENDING INC	CGBD	872280102	1544206	6797	523910.0	P	01	LC	16780	55983	2017-06-14	E	cgbd
31823	31823	VENATOR MATERIALS PLC	VNTRF	G9329Z118	1705682	2810	325180.0	P	01	LC	16875	56041	2017-08-03	2023-05-12	vntr
31843	31843	HARMONIC INC	HLIT	413160102	851310	3663	334220.0	P	01	LU	81621	13739	1995-05-23	E	hlit
31845	31845	RANGER ENERGY SERVICES	RNGR	75282U104	1699039	1389	213112.0	P	01	LC	16866	56036	2017-08-11	E	rngr
31846	31846	DARDEN RESTAURANTS INC	DRI	237194105	940944	5812	722511.0	P	01	LC	81655	30886	1995-05-30	E	dri
31887	31887	RESMED INC	RMD	761152107	943819	3845	334510.0	P	01	LU	81736	13753	1995-06-02	E	rmd
31887	31887	RESMED INC	RMD	761152107	943819	3845	334510.0	P	01	LU	81736	13753	1995-06-02	E	rsmdf
31914	31914	NECESSITY RET REIT INC (THE)	RTL	02607T109	1568162	6798	531120.0	P	01	LC	17952	56447	2018-07-19	2023-09-29	rtl
31914	31914	NECESSITY RET REIT INC (THE)	RTL	02607T109	1568162	6798	531120.0	P	01	LC	17952	56447	2018-07-19	2023-09-29	rtlpo
31914	31914	NECESSITY RET REIT INC (THE)	RTL	02607T109	1568162	6798	531120.0	P	01	LC	17952	56447	2018-07-19	2023-09-29	rtlpp
31954	31954	AGILITI INC	AGTI	00848J104	1749704	7350	532490.0	C	05	LC	20901	58174	2021-04-23	2024-05-31	agti
31954	31954	AGILITI INC	AGTI	00848J104	1749704	7350	532490.0	P	02	LC	16925	56006	2017-09-08	2019-01-04	agti
31958	31958	SAFEHOLD INC	SAFE	78646V107	1095651	6798	531190.0	P	01	LC	75846	22124	2023-03-31	E	star
31958	31958	SAFEHOLD INC	SAFE	78646V107	1095651	6798	531190.0	P	01	LC	75846	22124	2023-03-31	E	star-pg
31958	31958	SAFEHOLD INC	SAFE	78646V107	1095651	6798	531190.0	P	01	LC	75846	22124	2023-03-31	E	star-pd
31958	31958	SAFEHOLD INC	SAFE	78646V107	1095651	6798	531190.0	P	01	LC	75846	22124	2023-03-31	E	star-pi
31958	31958	SAFEHOLD INC	SAFE	78646V107	1095651	6798	531190.0	P	01	LC	16770	55975	2017-06-22	2023-03-30	star
31958	31958	SAFEHOLD INC	SAFE	78646V107	1095651	6798	531190.0	P	01	LC	16770	55975	2017-06-22	2023-03-30	star-pg
31958	31958	SAFEHOLD INC	SAFE	78646V107	1095651	6798	531190.0	P	01	LC	16770	55975	2017-06-22	2023-03-30	star-pd
31958	31958	SAFEHOLD INC	SAFE	78646V107	1095651	6798	531190.0	P	01	LC	16770	55975	2017-06-22	2023-03-30	star-pi
31966	31966	TPG RE FINANCE TRT INC	TRTX	87266M107	1630472	6798	525990.0	P	01	LC	16813	55998	2017-07-20	E	trtx
31966	31966	TPG RE FINANCE TRT INC	TRTX	87266M107	1630472	6798	525990.0	P	01	LC	16813	55998	2017-07-20	E	trtx-pc
31994	31994	GRANITE POINT MORTGE TRS INC	GPMT	38741L107	1703644	6798	525990.0	P	01	LC	16764	55969	2017-06-23	E	gpmt
31994	31994	GRANITE POINT MORTGE TRS INC	GPMT	38741L107	1703644	6798	525990.0	P	01	LC	16764	55969	2017-06-23	E	gpmt-pa
32018	32018	KALA BIO INC	KALA	483119202	1479419	2836	325414.0	P	01	LC	16824	56008	2017-07-20	E	kala
32046	32046	AKCEA THERAPEUTICS INC	AKCA	00972L107	1662524	2836	325414.0	P	01	LC	16814	55999	2017-07-14	2020-10-30	
32074	32074	EXELA TECHNOLOGIES INC	XELA	30162V805	1620179	7374	518210.0	P	01	LC	15271	55174	2017-07-13	2024-11-07	xela
32074	32074	EXELA TECHNOLOGIES INC	XELA	30162V805	1620179	7374	518210.0	P	01	LC	15271	55174	2017-07-13	2024-11-07	xelap
32078	32078	PRECIPIO INC	PRPO	74019L602	1043961	8071	621511.0	P	01	LC	88471	37961	2017-07-01	E	prpo
32078	32078	PRECIPIO INC	PRPO	74019L602	1043961	8071	621511.0	C	01	LC	88471	37961	2017-06-30	2017-06-30	prpo
32086	32086	CISION LTD	CISN	G1992S109	1701040	7370	519130.0	P	01	LC	15899	55455	2017-07-01	2020-01-31	
32086	32086	CISION LTD	CISN	G1992S109	1701040	7370	519130.0	C	01	LC	15899	55455	2017-06-30	2017-06-30	
32098	32098	CONCRETE PUMPING HOLDINGS	BBCP	206704108	1703956	1700	238.0	P	02	LC	16895	56007	2017-08-21	E	bbcp
32098	32098	CONCRETE PUMPING HOLDINGS	BBCP	206704108	1703956	1700	238.0	P	02	LC	16895	56007	2017-08-21	E	bbcpw
32102	32102	REDFIN CORP	RDFN	75737F108	1382821	6531	531210.0	P	01	LC	16829	56014	2017-07-28	E	rdfn
32106	32106	BAKER HUGHES CO	BKR	05722G100	1701605	1389	213112.0	P	01	LC	75034	20253	2017-07-05	E	bkr
32192	32192	YOGAWORKS INC	YOGAQ	986005106	1703497	7990	713940.0	P	01	LC	16913	56051	2019-07-24	2019-07-31	
32192	32192	YOGAWORKS INC	YOGAQ	986005106	1703497	7990	713940.0	P	01	LC	16913	56051	2017-08-11	2019-07-21	
32193	32193	CIBUS INC	CBUS	17166A101	1705843	2836	325414.0	P	01	LC	16818	56002	2017-07-20	E	clxt
32219	32219	PETIQ INC	PETQ	71639T106	1668673	2834	325412.0	P	01	LC	16827	56012	2017-07-21	2024-10-31	petq
32233	32233	DARE BIOSCIENCE INC	DARE	23666P200	1401914	2834	325412.0	P	01	LC	14591	54817	2017-07-20	E	dare
32245	32245	ALPINE IMMUNE SCIENCES INC	ALPN	02083G100	1626199	2836	325414.0	P	01	LC	15432	55316	2017-07-25	2024-05-31	alpn
32271	32271	ACHIEVE LIFE SCIENCES INC	ACHV	004468500	949858	2834	325412.0	P	01	LC	82526	14043	2017-08-03	E	achv
32273	32273	TREMONT MORTGAGE TRUST	TRMT	894789106	1708405	6798	525990.0	P	01	LC	16936	56068	2017-09-14	2021-10-29	
32285	32285	ECOVYST INC	ECVT	27923Q109	1708035	2810	325180.0	P	01	LC	16961	56079	2017-09-29	E	ecvt
32298	32298	AERPIO PHARMACEUTICALS INC	ARPO	00810B105	0	2834	325412.0	P	01	LC	17869	56397	2018-06-26	2021-08-26	
32303	32303	QUINTANA ENERGY SVC INC	QES	74875T103	1704235	1389	213112.0	P	01	LC	17306	56258	2018-02-09	2020-07-31	
32316	32316	JAGUAR HEALTH INC	JAGX	47010C888	1585608	2834	325412.0	P	01	LC	15375	55275	2017-08-16	E	jagx
32321	32321	MEDICENNA THERAPEUTICS CORP	MDNAF	58490H107	1807983	2836	325414.0	P	01	LC	19645	57249	2020-08-24	E	mdna
32322	32322	CHICKEN SOUP FOR SOUL ENTNT	CSSEQ	16842Q100	1679063	7812	512110.0	P	01	LC	16883	56045	2017-08-18	E	csse
32322	32322	CHICKEN SOUP FOR SOUL ENTNT	CSSEQ	16842Q100	1679063	7812	512110.0	P	01	LC	16883	56045	2017-08-18	E	cssep
32322	32322	CHICKEN SOUP FOR SOUL ENTNT	CSSEQ	16842Q100	1679063	7812	512110.0	P	01	LC	16883	56045	2017-08-18	E	cssel
32322	32322	CHICKEN SOUP FOR SOUL ENTNT	CSSEQ	16842Q100	1679063	7812	512110.0	P	01	LC	16883	56045	2017-08-18	E	cssen
32332	32332	DESPEGAR COM CORP	DESP	G27358103	1703141	4700	561510.0	P	01	LC	16963	56081	2017-09-20	E	desp
32334	32334	ZAI LAB LTD	ZLAB	98887Q104	1704292	2836	325414.0	P	90	LC	16938	56070	2017-09-20	E	zlab
32349	32349	CANNTRUST HLDGS INC	CNTTQ	137800207	1652499	2834	325412.0	P	01	LC	18381	56634	2019-02-25	E	cnttq
32352	32352	HAMILTON BEACH BND HDNG	HBB	40701T104	1709164	3630	3352.0	P	01	LC	16920	56056	2017-10-02	E	hbb
32356	32356	CELCUITY INC	CELC	15102K100	1603454	2835	325413.0	P	01	LC	16923	56058	2017-09-20	E	celc
32365	32365	SYNLOGIC INC	SYBX	87166L209	1527599	2836	325414.0	P	01	LC	15787	55461	2017-08-28	E	sybx
32366	32366	SECOO HOLDING LIMITED	SECOY	81367P200	1633441	5961	455219.0	P	90	LC	16933	56067	2017-09-22	E	seco
32371	32371	MYND AI INC	MYND	628988107	1708441	8200	611.0	P	90	LC	16962	56080	2017-09-27	E	gehi
32372	32372	CORE NATURAL RESOURCES INC	CNR	218937100	1710366	1220	212115.0	P	01	LC	17039	56122	2017-11-29	E	ceix
32380	32380	RESTORATION ROBOTIC INC	HAIR	76133C103	0	3845	334510.0	P	01	LC	16987	56097	2017-10-12	2019-11-07	
32382	32382	ROKU INC	ROKU	77543R102	1428439	4841	517111.0	P	01	LC	16932	56066	2017-09-28	E	roku
32383	32383	DECIPHERA PHRMCTAL INC	DCPH	24344T101	1654151	2836	325414.0	P	01	LC	16924	56059	2017-09-28	2024-06-28	dcph
32413	32413	BP MIDSTREAM PARTNERS	BPMP	0556EL109	1708301	4610	486.0	P	01	LC	17002	56107	2017-10-26	2022-04-29	
32451	32451	OPTINOSE INC	OPTN	68404V209	1494650	2834	325412.0	P	01	LC	16992	56102	2017-10-13	E	optn
32453	32453	QUDIAN INC	QD	747798106	1692705	6141	522291.0	P	90	LC	17019	56110	2017-10-18	E	qd
32456	32456	ARCIMOTO INC	FUVV	039587209	1558583	3711	336110.0	P	01	LC	16927	56061	2017-09-21	E	fuv
32469	32469	SWITCH INC	SWCH	87105L104	1710583	7370	519130.0	P	01	LC	16966	56084	2017-10-06	2022-12-30	swch
32478	32478	XAI OCTAGON FLT RT & ALT INC	XFLT	98400T106	1703079	6726	525910.0	P	01	LC	17031	56114	2017-10-03	E	xflt
32478	32478	XAI OCTAGON FLT RT & ALT INC	XFLT	98400T106	1703079	6726	525910.0	P	01	LC	17031	56114	2017-10-03	E	xflt-pa
32502	32502	ANGI INC	ANGI	00183L201	1705110	7370	519290.0	P	01	LC	16921	56057	2017-10-02	E	angi
32519	32519	METROPOLITAN BANK HLDNG	MCB	591774104	1476034	6020	522110.0	P	01	LC	17093	56141	2017-11-08	E	mcb
32524	32524	AQUANTIA CORP	AQ	03842Q108	1316016	3674	334413.0	P	01	LC	17046	56129	2017-11-03	2019-09-30	
32525	32525	SPERO THERAPEUTICS INC	SPRO	84833T103	1701108	2836	325414.0	P	01	LC	17044	56127	2017-11-02	E	spro
32526	32526	MONGODB INC	MDB	60937P106	1441816	7370	518210.0	P	01	LC	16968	56086	2017-10-19	E	mdb
32528	32528	FUNKO INC	FNKO	361008105	1704711	3942	339930.0	P	01	LC	17043	56126	2017-11-02	E	fnko
32530	32530	ALTAIR ENGINEERING INC	ALTR	021369103	1701732	7372	513210.0	P	01	LC	17034	56117	2017-11-01	E	altr
32541	32541	CARGURUS INC	CARG	141788109	1494259	7370	519290.0	P	01	LC	16967	56085	2017-10-12	E	carg
32545	32545	NAAS TECHNOLOGY INC	NAAS	62955X201	1712178	5500	457120.0	P	90	LC	16998	56104	2017-10-20	E	naas
32546	32546	SEA LIMITED	SE	81141R100	1703399	7370	519290.0	P	90	LC	17023	56112	2017-10-20	E	se
32547	32547	NEXA RESOURCES SA	NEXA	L67359106	1713930	1000	212230.0	P	01	LC	17033	56116	2017-10-27	E	nexa
32557	32557	FORESCOUT TECH INC	FSCT	34553D101	1145057	7371	541511.0	P	01	LC	16984	56096	2017-10-27	2020-08-31	
32558	32558	RANPAK HOLDINGS CORP	PACK	75321W103	1712463	2670	3222.0	P	02	LC	17309	56223	2018-02-26	E	pack
32564	32564	ERO COPPER CORP	ERO	296006109	1853860	1000	212230.0	P	01	LC	21388	58339	2021-06-15	E	ero
32571	32571	BANDWIDTH INC	BAND	05988J103	1514416	7370	518210.0	P	01	LC	17106	56150	2017-11-10	E	band
32574	32574	NATIONAL VISION HOLDINGS INC	EYE	63845R107	1710155	5990	446130.0	P	01	LC	16971	56087	2017-10-26	E	eye
32580	32580	VICI PROPERTIES INC	VICI	925652109	1705696	6798	531120.0	P	01	LC	17307	56259	2018-02-01	E	vici
32592	32592	FAT BRANDS INC	FAT	30258N105	1705012	5812	722511.0	J	05	LC	21791	56093	2021-08-23	E	fat
32592	32592	FAT BRANDS INC	FAT	30258N105	1705012	5812	722511.0	J	05	LC	21791	56093	2021-08-23	E	fatbb
32592	32592	FAT BRANDS INC	FAT	30258N105	1705012	5812	722511.0	J	05	LC	21791	56093	2021-08-23	E	fatbp
32592	32592	FAT BRANDS INC	FAT	30258N105	1705012	5812	722511.0	J	05	LC	21791	56093	2021-08-23	E	fatbw
32592	32592	FAT BRANDS INC	FAT	30258N105	1705012	5812	722511.0	P	01	LC	16981	56093	2017-10-23	E	fat
32592	32592	FAT BRANDS INC	FAT	30258N105	1705012	5812	722511.0	P	01	LC	16981	56093	2017-10-23	E	fatbb
32592	32592	FAT BRANDS INC	FAT	30258N105	1705012	5812	722511.0	P	01	LC	16981	56093	2017-10-23	E	fatbp
32592	32592	FAT BRANDS INC	FAT	30258N105	1705012	5812	722511.0	P	01	LC	16981	56093	2017-10-23	E	fatbw
32600	32600	CBTX INC	CBTX	12481V104	0	6020	522110.0	P	01	LC	17108	56153	2017-11-08	2022-10-02	
32608	32608	ONESPAWORLD HOLDINGS LTD	OSW	P73684113	1758488	7200	81219.0	P	03	LC	18423	56664	2019-03-21	E	osw
32608	32608	ONESPAWORLD HOLDINGS LTD	OSW	P73684113	1758488	7200	81219.0	P	03	LC	17114	56098	2017-11-17	2019-03-19	osw
32610	32610	EVOQUA WATER TECH	AQUA	30057T105	1604643	3580	333310.0	P	01	LC	17035	56118	2017-11-02	2023-05-31	aqua
32615	32615	FOUR SEASONS EDUCATION (CAYM	FEDU	35101A309	1709819	8200	611691.0	P	90	LC	17058	56133	2017-11-08	E	fedu
32625	32625	FINVOLUTION GROUP	FINV	31810T101	1691445	6141	522291.0	P	90	LC	17094	56142	2017-11-10	E	finv
32638	32638	ACM RESEARCH INC	ACMR	00108J109	1680062	3559	333242.0	P	01	LC	17045	56128	2017-11-03	E	acmr
32639	32639	SOGOU INC	SOGO	83409V104	1713947	7370	519130.0	P	90	LC	17098	56144	2017-11-09	2021-09-30	
32640	32640	INFLARX NV	IFRX	N44821101	1708688	2836	325414.0	P	01	LC	17115	56156	2017-11-08	E	ifrx
32641	32641	SAILPOINT TECHNO HLDG	SAIL.2	78781P105	1627857	7370	518210.0	P	01	LC	17037	56120	2017-11-17	2022-08-31	
32654	32654	JIANPU TECH -ADR	AIJTY	47738D309	1713923	7370	519130.0	P	90	LC	17088	56137	2017-11-16	E	jt
32674	32674	CUE BIOPHARMA	CUE	22978P106	1645460	2836	325414.0	P	01	LC	17262	56229	2018-01-02	E	cue
32675	32675	SENDGRID INC	SEND	816883102	1477425	7370	519130.0	P	01	LC	17097	56143	2017-11-15	2019-01-31	
32677	32677	SPARK NETWORKS SE	LOVLQ	846517100	1705338	7370	519290.0	P	90	LC	17100	56145	2017-11-17	2023-09-07	lov
32688	32688	STITCH FIX INC	SFIX	860897107	1576942	5961	458110.0	P	01	LC	17038	56121	2017-11-17	E	sfix
32698	32698	STERLING BANCORP INC	SBT	85917W102	1680379	6035	522180.0	P	01	LC	17121	56160	2017-11-17	E	sbt
32715	32715	ARCTURUS THERAPETCS HOLD INC	ARCT	03969T109	1768224	2836	325414.0	P	01	LC	13918	54405	2017-11-16	E	arct
32741	32741	AMBER INTL HOLDING LTD -ADR	AMBR	45113Y203	1697818	7370	519290.0	P	90	LC	17146	56174	2017-12-22	E	iclk
32748	32748	NEWMARK GROUP INC	NMRK	65158N102	1690680	6531	531210.0	P	01	LC	17126	56164	2017-12-15	E	nmrk
32749	32749	ENTERA BIO LTD	ENTX	M40527109	1638097	2836	325414.0	P	01	LC	17879	56404	2018-06-28	E	entx
32749	32749	ENTERA BIO LTD	ENTX	M40527109	1638097	2836	325414.0	P	01	LC	17879	56404	2018-06-28	E	entxw
32750	32750	LEXINFINTECH HOLDINGS LTD	LX	528877103	1708259	6141	522291.0	P	90	LC	17150	56178	2017-12-21	E	lx
32751	32751	INDSTRL LGST PRPT TRST	ILPT	456237106	1717307	6798	531120.0	P	01	LC	17222	56211	2018-01-12	E	ilpt
32763	32763	LUTHER BURBANK CORP	LBC	550550107	1475348	6020	522110.0	P	01	LC	17148	56176	2017-12-08	2024-02-29	lbc
32767	32767	EQUITABLE HOLDINGS INC	EQH	29452E101	1333986	6311	524113.0	P	01	LC	17787	56352	2018-05-31	E	eqh
32767	32767	EQUITABLE HOLDINGS INC	EQH	29452E101	1333986	6311	524113.0	P	01	LC	17787	56352	2018-05-31	E	eqh-pa
32767	32767	EQUITABLE HOLDINGS INC	EQH	29452E101	1333986	6311	524113.0	P	01	LC	17787	56352	2018-05-31	E	eqh-pc
32771	32771	WILLSCOT HOLDINGS CORP	WSC	971378104	1647088	6512	531120.0	P	01	LC	15782	55406	2017-12-01	E	wsc
32771	32771	WILLSCOT HOLDINGS CORP	WSC	971378104	1647088	6512	531120.0	C	01	LC	15782	55406	2017-11-30	2017-11-30	wsc
32792	32792	QUANTERIX CORP	QTRX	74766Q101	1503274	3845	334510.0	P	01	LC	17155	56181	2017-12-07	E	qtrx
32804	32804	SELECT INTERIOR CONCEPTS INC	SIC	816120307	1723866	7389	541410.0	P	01	LC	18055	56491	2018-08-16	2021-10-29	
32809	32809	ASTRANA HEALTH INC	ASTH	03763A207	1083446	8090	621999.0	P	01	LC	17133	56168	2017-12-08	E	ameh
32843	32843	CORPORACION AMERICA AIRPORTS	CAAP	L1995B107	1717393	4581	4881.0	P	01	LC	17310	56263	2018-02-01	E	caap
32846	32846	PROCESSA PHARMACEUTICALS INC	PCSA	74275C304	1533743	2836	325414.0	P	01	LC	19985	57459	2020-10-02	E	pcsa
32851	32851	ONE STOP SYSTEMS INC	OSS	68247W109	1394056	3571	334111.0	P	01	LC	17327	56277	2018-02-01	E	oss
32852	32852	AKUMIN INC	AKUMQ	01021X100	1776197	8071	621512.0	P	01	LC	19810	57331	2020-09-03	2024-02-06	aku
32855	32855	AVAYA HLDGS CORP	AVYAQ	05351X101	1418100	7372	511210.0	P	01	LC	17234	56216	2018-01-17	2023-05-02	avya
32858	32858	ELOXX PHARMACEUTICALS INC	ELOX	29014R202	1035354	2836	325414.0	P	01	LC	89411	43166	2018-04-26	2023-10-13	elox
32860	32860	VIEMED HEALTHCARE	VMD	92663R105	1729149	8090	621999.0	P	01	LC	18904	56870	2019-08-09	E	vmd
32861	32861	EYENOVIA INC	EYEN	30234E203	1682639	2836	325414.0	P	01	LC	17263	56231	2018-01-25	E	eyen
32879	32879	HUDSON LTD	HUD	G46408103	1714368	5990	4539.0	P	01	LC	17308	56260	2018-02-01	2020-11-30	
32884	32884	PAGSEGURO DIGITAL LTD	PAGS	G68707101	1712807	7374	518210.0	P	01	LC	17254	56224	2018-01-24	E	pags
32886	32886	GATES INDUSTRIAL CORP PLC	GTES	G39108108	1718512	3560	333612.0	P	01	LC	17227	56214	2018-01-25	E	gtes
32894	32894	SOLID BIOSCIENCES INC	SLDB	83422E204	1707502	2836	325414.0	P	01	LC	17271	56238	2018-01-26	E	sldb
32901	32901	SELLAS LIFE SCIENCES GROUP I	SLS	81642T209	1390478	2836	325414.0	P	01	LC	92594	52971	2018-01-02	E	sls
32908	32908	ROCKET PHARMACEUTICALS INC	RCKT	77313F106	1281895	2836	325414.0	P	01	LC	15221	55196	2018-01-05	E	rckt
32919	32919	EVOLUS INC	EOLS	30052C107	1570562	2834	325412.0	P	01	LC	17317	56270	2018-02-08	E	eols
32930	32930	ADT INC	ADT	00090Q103	1703056	7380	561621.0	P	01	LC	17223	56212	2018-01-19	E	adt
32935	32935	CARDLYTICS INC	CDLX	14161W105	1666071	7311	541810.0	P	01	LC	17315	56267	2018-02-09	E	cdlx
32936	32936	ZEPP HEALTH CORP	ZEPP	98945L204	1720446	3829	334519.0	P	90	LC	17301	56256	2018-02-08	E	zepp
32938	32938	CACTUS INC	WHD	127203107	1699136	3533	333132.0	P	01	LC	17281	56251	2018-02-08	E	whd
32941	32941	BIOXCEL THERAPEUTICS INC	BTAI	09075P204	1720893	2836	325414.0	P	01	LC	17349	56292	2018-03-08	E	btai
32961	32961	EVOFEM BIOSCIENCES INC	EVFM	30048L302	1618835	2834	325412.0	P	01	LC	15075	55117	2018-01-18	2022-08-10	evfm
33037	33037	ZSCALER INC	ZS	98980G102	1713683	7370	518210.0	P	01	LC	17341	56287	2018-03-16	E	zs
33048	33048	9 METERS BIOPHARMA INC	NMTRQ	654405208	1551986	2836	325414.0	P	01	LC	16178	55621	2018-02-01	E	nmtr
33064	33064	IPIC ENTERTAINMENT INC	IPIC	46263D106	1720201	7830	51213.0	C	01	LC	17322	56272	2018-02-01	2019-07-31	
33066	33066	BRIGHTSPIRE CAPITAL INC	BRSP	10949T109	1717547	6798	525990.0	P	01	LC	17287	56255	2018-02-01	E	brsp
33067	33067	FTS INTERNATIONAL INC	FTSI	30283W302	1529463	1389	213112.0	P	01	LC	17273	56240	2018-02-02	2022-03-31	
33068	33068	PURPLE INNOVATION INC	PRPL	74640Y106	1643953	2510	337910.0	P	01	LC	15639	55358	2018-02-05	E	prpl
33073	33073	ONDAS HOLDINGS INC	ONDS	68236H204	1646188	3728	336413.0	P	01	LC	20312	57647	2020-12-04	E	onds
33110	33110	STEPSTONE GROUP INC	STEP	85914M107	1796022	6282	523940.0	P	01	LC	19655	57256	2020-09-16	E	step
33133	33133	ARCUS BIOSCIENCES INC	RCUS	03969F109	1724521	2836	325414.0	P	01	LC	17374	56308	2018-03-15	E	rcus
33138	33138	BURGERFI INTERNATIONAL INC	BFICQ	12122L101	1723580	5812	722511.0	P	02	LC	17369	56302	2018-03-26	E	bfi
33138	33138	BURGERFI INTERNATIONAL INC	BFICQ	12122L101	1723580	5812	722511.0	P	02	LC	17369	56302	2018-03-26	E	bfiiw
33152	33152	DROPBOX INC	DBX	26210C104	1467623	7370	519290.0	P	01	LC	17342	56288	2018-03-23	E	dbx
33159	33159	IBEX LTD	IBEX	G4690M101	1720420	7370	5415.0	P	01	LC	19638	57243	2020-08-07	E	ibex
33161	33161	SUNLANDS TECHNOLOGY GROUP	STG	86740P207	1723935	8200	611699.0	P	90	LC	17380	56313	2018-03-23	E	stg
33175	33175	SPOTIFY TECHNOLOGY SA	SPOT	L8681T102	1639920	7370	518210.0	P	01	LC	17782	56350	2018-04-03	E	spot
33185	33185	UNUM THERAPEUTICS INC OLD	UMRX.1	90399A933	0	2836	325414.0	P	01	LC	17372	56305	2018-03-29	2020-07-30	
33186	33186	BILIBILI INC	BILI	090040106	1723690	7372	513210.0	P	90	LC	17346	56291	2018-03-28	E	bili
33186	33186	BILIBILI INC	BILI	090040106	1723690	7372	513210.0	P	90	LC	17346	56291	2018-03-28	E	blblf
33187	33187	META DATA LIMITED	AIU	68276W608	1722380	8200	611699.0	C	90	LC	17379	56312	2018-03-28	2024-08-30	aiu
33195	33195	HUT 8 CORP	HUT	44812J104	1964789	7372	513210.0	P	01	LC	24655	59745	2023-12-04	E	
33195	33195	HUT 8 CORP	HUT	44812J104	1964789	7372	513210.0	P	01	LC	21553	58463	2021-06-15	2023-12-03	
33232	33232	ZUORA INC	ZUO	98983V106	1423774	7370	518210.0	P	01	LC	17382	56314	2018-04-12	E	zuo
33233	33233	RED VIOLET INC	RDVT	75704L104	1720116	7370	518210.0	P	01	LC	17343	56289	2018-03-27	E	rdvt
33242	33242	GREENTREE HOSPITALITY GROUP	GHG	39579V100	1724755	7011	721110.0	P	90	LC	17378	56311	2018-03-27	E	ghg
33243	33243	WYNDHAM HOTELS & RESRTS	WH	98311A105	1722684	7011	721110.0	P	01	LC	17794	56358	2018-06-01	E	wh
33254	33254	IQIYI INC	IQ	46267X108	1722608	7370	519290.0	P	90	LC	17362	56299	2018-03-29	E	iq
33275	33275	SMARTSHEET INC	SMAR	83200N103	1366561	7370	518210.0	P	01	LC	17701	56346	2018-04-27	E	smar
33279	33279	INFRASTRUCTR & ENRGY ALT INC	IEA	45686J104	1652362	1600	237.0	P	01	LC	16261	55620	2018-03-28	2022-10-31	iea
33279	33279	INFRASTRUCTR & ENRGY ALT INC	IEA	45686J104	1652362	1600	237.0	P	01	LC	16261	55620	2018-03-28	2022-10-31	ieaww
33301	33301	DOCUSIGN INC	DOCU	256163106	1261333	7370	518210.0	P	01	LC	17685	56335	2018-04-27	E	docu
33316	33316	SPRT OF TXS BNCSR INC	STXB	84861D103	1499453	6020	522110.0	P	01	LC	17802	56366	2018-05-31	2022-04-29	
33321	33321	PIVOTAL SOFTWARE INC	PVTL	72582H107	1574135	7370	519130.0	P	01	LC	17673	56328	2018-04-20	2019-12-31	
33326	33326	CHAMPIONX CORP	CHX	15872M104	1723089	3533	333132.0	P	01	LC	17783	56347	2018-05-09	E	chx
33337	33337	BLUE OWL CAPITAL CORP	OBDC	69121K104	1655888	6797	523910.0	P	01	LC	18807	56808	2019-07-18	E	orcc
33382	33382	SURGEPAYS INC	SURG	86882L204	1392694	4812	517312.0	P	01	LC	22344	58981	2021-11-02	E	surg
33382	33382	SURGEPAYS INC	SURG	86882L204	1392694	4812	517312.0	P	01	LC	22344	58981	2021-11-02	E	surgw
33420	33420	NLIGHT INC	LASR	65487K100	1124796	3674	334413.0	P	01	LC	17691	56339	2018-04-26	E	lasr
33421	33421	GOOSEHEAD INSURANCE	GSHD	38267D109	1726978	6411	524210.0	P	01	LC	17688	56337	2018-04-27	E	gshd
33423	33423	CARBON BLACK INC	CBLK	14081R103	1366527	7370	519130.0	P	01	LC	17784	56351	2018-05-31	2019-10-31	
33424	33424	CONSTRUCTION PRTNR INC	ROAD	21044C107	1718227	1600	237.0	P	01	LC	17801	56365	2018-05-31	E	road
33425	33425	LOVESAC CO (THE)	LOVE	54738L109	1701758	2510	3371.0	P	01	LC	17891	56415	2018-06-27	E	love
33429	33429	VINCO VENTURES INC	BBIG	927330209	1717556	7370	516210.0	P	01	LC	17826	56383	2018-05-03	E	bbig
33433	33433	WEWORK INC	WEWKQ	96209A401	1813756	6512	531120.0	P	02	LC	19950	57226	2021-10-21	2023-11-03	we
33433	33433	WEWORK INC	WEWKQ	96209A401	1813756	6512	531120.0	P	02	LC	19950	57226	2021-10-21	2023-11-03	we-wt
33435	33435	INSPIRE MEDICAL SYSTEM	INSP	457730109	1609550	3845	334510.0	P	01	LC	17799	56363	2018-05-31	E	insp
33439	33439	PERSPECTA INC	PRSP	715347100	1724670	7370	541512.0	P	01	LC	17792	56357	2018-06-01	2021-05-28	
33444	33444	EVELO BIOSCIENCES INC	EVLO	299734202	1694665	2836	325414.0	P	01	LC	17811	56371	2018-05-31	E	evlo
33445	33445	SCHOLAR ROCK HOLDNG CRP	SRRK	80706P103	1727196	2836	325414.0	P	01	LC	17821	56378	2018-05-24	E	srrk
33446	33446	PLURALSIGHT INC	PS	72941B106	1725579	7370	519130.0	P	01	LC	17788	56353	2018-05-17	2021-04-30	
33447	33447	KINIKSA PHRMCTICALS INTL PLC	KNSA	G52694109	1730430	2836	325414.0	P	01	LC	17817	56375	2018-05-24	E	knsa
33449	33449	USA COMPRESSION PRTNRS LP	USAC	90290N109	1522727	1389	213112.0	P	01	LC	13749	54304	2018-08-01	E	usac
33449	33449	USA COMPRESSION PRTNRS LP	USAC	90290N109	1522727	1389	213112.0	C	01	LC	13749	54304	2018-04-30	2018-07-31	usac
33459	33459	ORIGIN BANCORP	OBK	68621T102	1516912	6020	522110.0	P	01	LC	17818	56376	2018-05-31	E	obnk
33466	33466	ITERUM THERAPEUTICS	ITRM	G6333L200	1659323	2836	325414.0	P	01	LC	17816	56374	2018-05-25	E	itrm
33467	33467	BEYOND AIR INC	XAIR	08862L103	1641631	3845	334510.0	P	01	LC	18643	56732	2019-05-07	E	xair
33476	33476	JERASH HOLDINGS (US)	JRSH	47632P101	1696558	2300	315.0	P	01	LC	17803	56367	2018-05-31	E	jrsh
33487	33487	HUYA INC	HUYA	44852D108	1728190	7370	519290.0	P	90	LC	17832	56386	2018-05-31	E	huya
33528	33528	EURODRY LTD	EDRY	Y23508107	1731388	4412	483111.0	P	01	LC	17797	56361	2018-05-31	E	edry
33531	33531	GREENSKY INC	GSKY	39572G100	1712923	7370	519130.0	P	01	LC	17795	56359	2018-05-24	2022-03-31	gsky
33532	33532	CLPS INC	CLPS	G31642104	1724542	7370	518210.0	P	01	LC	17809	56370	2018-05-24	E	clps
33533	33533	EVO PAYMENTS INC	EVOP	26927E104	1704596	7374	518210.0	P	01	LC	17790	56355	2018-05-23	2023-03-31	evop
33542	33542	SPIRIT MTA REIT	SMTA	84861U105	1722992	6798	531120.0	P	01	LC	17791	56356	2018-06-01	2019-12-31	
33550	33550	WRAP TECHNOLOGIES	WRAP	98212N107	1702924	3690	335999.0	P	01	LC	18322	56617	2018-12-04	E	wrap
33557	33557	KULR TECHNOLOGY GROUP	KULR	50125G109	1662684	3670	33441.0	P	01	LC	21412	58343	2021-06-07	E	kulr
33573	33573	NRC GROUP HOLDINGS CORP	NRCG	629375106	1703038	4955	562112.0	P	01	LC	16864	55970	2018-10-18	2019-10-31	
33596	33596	CHARAH SOLUTIONS	CHRA	15957P303	1730346	4950	562.0	P	01	LC	17916	56429	2018-06-14	2023-07-31	chra
33596	33596	CHARAH SOLUTIONS	CHRA	15957P303	1730346	4950	562.0	P	01	LC	17916	56429	2018-06-14	2023-07-31	chrb
33598	33598	US XPRESS ENTRPRS INC	USX	90338N202	923571	4210	4841.0	P	01	LC	81021	13346	2018-06-18	2023-07-31	usx
33600	33600	TRICIDA INC	TCDAQ	89610F101	1595585	2834	325412.0	P	01	LC	17900	56423	2018-06-28	2023-06-30	tcda
33601	33601	TRANSLATE BIO INC	TBIO.2	89374L104	1693415	2836	325414.0	P	01	LC	17899	56421	2018-06-28	2021-09-30	
33603	33603	DOMO INC	DOMO	257554105	1505952	7370	518210.0	P	01	LC	17876	56401	2018-06-29	E	domo
33610	33610	AVALARA INC	AVLR	05338G106	1348036	7370	519130.0	P	01	LC	17855	56390	2018-06-15	2022-10-31	avlr
33614	33614	ELECTROCORE INC	ECOR	28531P202	1560258	3845	334510.0	P	01	LC	17877	56402	2018-06-22	E	ecor
33616	33616	PUXIN LTD -ADS	NEWYY	74704P405	1726189	8200	611691.0	P	90	LC	17939	56435	2018-06-15	2023-06-30	newyy
33624	33624	HYRECAR INC	HYREQ	44916T107	1713832	7370	519130.0	P	01	LC	17886	56410	2018-06-15	E	hyre
33625	33625	AMALGAMATED FINANCIAL CORP	AMAL	022671101	1823608	6020	522110.0	P	01	LC	18043	56481	2018-08-09	E	amal
33631	33631	KEZAR LIFE SCIENCES	KZR	49372L209	1645666	2836	325414.0	P	01	LC	17889	56413	2018-06-21	E	kzr
33635	33635	AUTOLUS THERAPEUTICS -ADR	AUTL	05280R100	1730463	2836	325414.0	P	90	LC	17870	56398	2018-06-22	E	autl
33637	33637	BRIGHTVIEW HOLDINGS	BV	10948C107	1734713	700	541320.0	P	01	LC	17867	56395	2018-06-28	E	bv
33638	33638	I3 VERTICALS INC	IIIV	46571Y107	1728688	7374	518210.0	P	01	LC	17887	56411	2018-06-21	E	iiiv
33643	33643	APTINYX INC	APTX	03836N103	1674365	2836	325414.0	P	01	LC	17868	56396	2018-06-21	2024-01-02	aptx
33647	33647	VEONEER INC	VNE	92336X109	1733186	3714	3363.0	P	01	LC	17859	56392	2018-07-02	2022-04-29	
33652	33652	CHAMPION HOMES INC	SKY	830830105	90896	2451	321991.0	P	01	LC	38850	21623	2018-06-01	E	sky
33660	33660	XERIS BIOPHARMA HOLDINGS INC	XERS	98422E103	1867096	2834	325412.0	P	01	LC	17908	56428	2018-06-21	E	xers
33668	33668	BLOOM ENERGY CORP	BE	093712107	1664703	3621	335312.0	P	01	LC	17949	56445	2018-07-25	E	be
33684	33684	ESSENTIAL PPT RLTY TST	EPRT	29670E107	1728951	6798	5311.0	P	01	LC	17919	56430	2018-06-21	E	eprt
33693	33693	REPAY HOLDINGS CORP	RPAY	76029L100	1720592	7389	522320.0	P	02	LC	17976	56422	2018-07-17	E	rpay
33694	33694	EVERQUOTE INC	EVER	30041R108	1640428	7370	519130.0	P	01	LC	17880	56405	2018-06-28	E	ever
33696	33696	FORTY SEVEN INC	FTSV	34983P104	1667633	2836	325414.0	P	01	LC	17883	56406	2018-06-28	2020-04-30	
33697	33697	UXIN LIMITED	UXIN	91818X306	1729173	7370	519290.0	P	90	LC	17905	56426	2018-06-27	E	uxin
33698	33698	NEURONETICS INC	STIM	64131A105	1227636	3845	334510.0	P	01	LC	17898	56420	2018-06-28	E	stim
33700	33700	AMERICAN MIDSTREAM PTNRS LP	AMID.2	02752P100	1513965	4922	486210.0	P	01	LC	12892	53827	2018-06-01	2019-07-31	
33700	33700	AMERICAN MIDSTREAM PTNRS LP	AMID.2	02752P100	1513965	4922	486210.0	C	01	LC	12892	53827	2017-03-31	2018-05-31	
33703	33703	TILRAY INC -OLD	TLRY.1	88699C930	0	2834	325412.0	C	01	LC	17977	56465	2018-07-19	2021-04-30	
33704	33704	FIRST WSTRN FINNCIL INC	MYFW	33751L105	1327607	6020	522110.0	P	01	LC	17970	56459	2018-07-19	E	myfw
33718	33718	BJS WHSL CLUB HLDGS INC	BJ	05550J101	1531152	5399	455211.0	P	01	LC	17864	56394	2018-06-28	E	bj
33720	33720	RUBIUS THERAPEUTICS INC	RUBY	78116T103	1709401	2836	325414.0	C	01	LC	17947	56440	2018-07-18	2024-01-02	ruby
33723	33723	CRINETICS PHARMCTCL INC	CRNX	22663K107	1658247	2836	325414.0	P	01	LC	17959	56453	2018-07-18	E	crnx
33724	33724	CONSTELLATION PHARMCTCL	CNST	210373106	1434418	2836	325414.0	P	01	LC	17958	56452	2018-07-19	2021-07-30	
33725	33725	DATAVAULT AI INC	DVLT	86633R609	1682149	3674	334413.0	P	01	LC	17979	56466	2018-07-27	E	wisa
33733	33733	LEGACY HOUSING CORP	LEGH	52472M101	1436208	2451	321991.0	P	01	LC	18311	56610	2018-12-14	E	legh
33734	33734	NEW FRONTIER HEALTH CORP	NFH	G6461G106	1737422	8062	622110.0	P	02	LC	18010	56437	2018-07-27	2022-01-31	
33743	33743	AQUESTIVE THERAPETC INC	AQST	03843E104	1398733	2834	325412.0	P	01	LC	17955	56449	2018-07-25	E	aqst
33749	33749	BIONANO GENOMICS INC	BNGO	09075F404	1411690	3841	339112.0	P	01	LC	18102	56483	2018-09-21	E	bngo
33749	33749	BIONANO GENOMICS INC	BNGO	09075F404	1411690	3841	339112.0	P	01	LC	18102	56483	2018-09-21	E	bngow
33750	33750	IAA INC	IAA	449253103	1745041	5500	441120.0	P	01	LC	18736	56775	2019-06-17	2023-03-31	iaa
33751	33751	PROVENTION BIO INC	PRVB	74374N102	1695357	2836	325414.0	P	01	LC	17973	56462	2018-07-24	2023-04-28	prvb
33759	33759	TENABLE HOLDINGS INC	TENB	88025T102	1660280	7370	518210.0	P	01	LC	17944	56441	2018-07-26	E	tenb
33766	33766	ARLO TECHNOLOGIES INC	ARLO	04206A101	1736946	3669	334290.0	P	01	LC	18013	56475	2018-08-03	E	arlo
33767	33767	SONOS INC	SONO	83570H108	1314727	3651	334310.0	P	01	LC	18011	56473	2018-08-02	E	sono
33779	33779	ESTABLISHMNT LBS HLDNG	ESTA	G31249108	1688757	3842	339113.0	P	01	LC	17964	56454	2018-07-19	E	esta
33781	33781	TOUGHBUILT INDUSTRIES INC	TBLT	89157G868	1668370	3420	332216.0	P	01	LC	18320	56592	2018-12-03	E	tblt
33781	33781	TOUGHBUILT INDUSTRIES INC	TBLT	89157G868	1668370	3420	332216.0	P	01	LC	18320	56592	2018-12-03	E	tbltw
33809	33809	CUSHMAN & WAKEFIELD	CWK	G2717B108	1628369	6531	531312.0	P	01	LC	18012	56474	2018-08-02	E	cwk
33810	33810	LIQUIDIA CORP	LQDA	53635D202	1819576	2836	325414.0	P	01	LC	17968	56457	2018-07-26	E	lqda
33816	33816	UROVANT SCIENCES LTD	UROV	G9381B108	1740547	2836	325414.0	P	01	LC	18130	56529	2018-09-27	2021-03-31	
33824	33824	CATHETER PRECISION INC	VTAK	74933X609	1716621	3845	334510.0	P	01	LC	18089	56509	2018-09-27	E	rmed
33825	33825	PINTEC TCHN HLDN -ADR	PT	72352G206	1716338	7370	519290.0	P	90	LC	18211	56570	2018-10-25	E	pt
33850	33850	OPERA LIMITED	OPRA	68373M107	1737450	7370	519290.0	P	90	LC	17971	56460	2018-07-27	E	opra
33852	33852	AURORA MOBILE -ADR	JG	051857209	1737339	7370	518210.0	P	90	LC	17967	56456	2018-07-26	E	jg
33859	33859	CANGO INC	CANG	137586103	1725123	5500	4411.0	P	90	LC	17980	56467	2018-07-26	E	cang
33861	33861	PDD HOLDINGS INC	PDD	722304102	1737806	7370	519290.0	P	90	LC	17972	56461	2018-07-26	E	pdd
33911	33911	INTERNATIONAL MONEY EXPR INC	IMXI	46005L101	1683695	6099	522320.0	P	01	LC	16630	55849	2018-07-27	E	imxi
33913	33913	ENDAVA PLC	DAVA	29260V105	1656081	7373	541512.0	P	90	LC	17984	56469	2018-07-27	E	dava
33951	33951	FRONTDOOR INC	FTDR	35905A109	1727263	7600	811490.0	P	01	LC	18064	56500	2018-10-01	E	ftdr
33955	33955	ELANCO ANIMAL HLTH INC	ELAN	28414H103	1739104	2834	325412.0	P	01	LC	18062	56498	2018-09-21	E	elan
33955	33955	ELANCO ANIMAL HLTH INC	ELAN	28414H103	1739104	2834	325412.0	P	01	LC	18062	56498	2018-09-21	E	elat
33962	33962	MESA AIR GROUP	MESA	590479135	810332	4512	481111.0	P	01	LC	18051	9014	2018-08-10	E	mesa
33971	33971	RATTLER MDSTRM PRTNRS LP	RTLR	75419T103	1748773	4922	486.0	P	01	LC	18669	56752	2019-05-23	2022-08-31	rtlr
33997	33997	ETON PHARMACEUTICALS	ETON	29772L108	1710340	2834	325412.0	P	01	LC	18257	56588	2018-11-13	E	eton
33999	33999	AMERANT BANCORP INC	AMTB	023576101	1734342	6020	522110.0	P	01	LC	18050	56487	2019-08-30	2021-11-30	amtb
33999	33999	AMERANT BANCORP INC	AMTB	023576101	1734342	6020	522110.0	J	02	LC	18049	56487	2018-08-31	E	amtb
34010	34010	COMSTOCK RESOURCES INC	CRK	205768302	23194	1311	2111.0	P	01	LC	11644	9465	2018-08-14	E	crk
34029	34029	FARFETCH LIMITED	FTCHQ	30744W107	1740915	7370	519290.0	P	01	LC	18077	56504	2018-09-21	2023-12-15	ftch
34034	34034	SITIO ROYALTIES CORP	STR	82983N108	1949543	1311	211120.0	P	01	LC	16905	56011	2018-08-24	E	
34039	34039	ARCO PLATFORM LTD	ARCE	G04553106	1740594	8200	61.0	P	01	LC	18099	56513	2018-09-28	2023-12-29	arce
34048	34048	ARCADIUM LITHIUM PLC	ALTM	G0508H110	1977303	2810	325180.0	P	01	LC	24595	59734	2024-01-04	E	
34048	34048	ARCADIUM LITHIUM PLC	ALTM	G0508H110	1977303	2810	325180.0	P	01	LC	18138	56537	2018-10-11	2024-01-03	
34051	34051	GARRETT MOTION INC	GTX	366505105	1735707	3714	336310.0	P	01	LC	18065	56501	2021-05-03	E	gtx
34051	34051	GARRETT MOTION INC	GTX	366505105	1735707	3714	336310.0	P	01	LC	18065	56501	2021-05-03	E	gtxap
34051	34051	GARRETT MOTION INC	GTX	366505105	1735707	3714	336310.0	P	01	LC	18065	56501	2018-10-01	2020-09-20	gtx
34051	34051	GARRETT MOTION INC	GTX	366505105	1735707	3714	336310.0	P	01	LC	18065	56501	2018-10-01	2020-09-20	gtxap
34053	34053	RESIDEO TECHNOLOGIES	REZI	76118Y104	1740332	5065	423690.0	P	01	LC	18142	56539	2018-10-29	E	rezi
34054	34054	X FINANCIAL -ADR	XYF	98372W202	1725033	7370	519290.0	P	90	LC	18096	56510	2018-09-19	E	xyf
34055	34055	KLX ENERGY SERVS HLDNG	KLXE	48253L205	1738827	1389	213112.0	P	01	LC	18048	56485	2018-09-17	E	klxe
34066	34066	111 INC	YI	68247Q201	1738906	5961	456110.0	P	90	LC	18132	56531	2018-09-12	E	yi
34067	34067	NIO INC	NIO	62914V106	1736541	3711	336110.0	P	90	LC	18087	56508	2018-09-12	E	nio
34068	34068	VIOMI TECHNOLOGY -ADR	VIOT	92762J103	1742770	3630	3352.0	P	90	LC	18131	56530	2018-10-13	E	viot
34074	34074	QUTOUTIAO INC -ADR	QTTOY	74915J206	1733298	7370	519130.0	C	90	LC	18127	56527	2018-09-14	2023-03-22	qtt
34076	34076	EVENTBRITE INC	EB	29975E109	1475115	7370	519290.0	P	01	LC	18063	56499	2018-09-20	E	eb
34078	34078	INMUNE BIO INC	INMB	45782T105	1711754	2836	325414.0	P	01	LC	18406	56651	2019-02-04	E	inmb
34101	34101	UPWORK INC	UPWK	91688F104	1627475	7361	561311.0	P	01	LC	18134	56533	2018-10-03	E	upwk
34102	34102	GUARDANT HEALTH INC	GH	40131M109	1576280	2835	325413.0	P	01	LC	18135	56534	2018-10-01	E	gh
34118	34118	KODIAK SCIENCES INC	KOD	50015M109	1468748	2836	325414.0	P	01	LC	18203	56563	2018-10-01	E	kod
34132	34132	BANK7 CORP	BSVN	06652N107	1746129	6020	522110.0	P	01	LC	18106	56516	2018-09-20	E	bsvn
34135	34135	Y MABS THERAPEUTICS INC	YMAB	984241109	1722964	2836	325414.0	P	01	LC	18133	56532	2018-09-21	E	ymab
34140	34140	MOMENTIVE GLOBAL INC	MNTV	60878Y108	1739936	7370	518210.0	P	01	LC	18097	56511	2018-09-26	2023-06-30	mntv
34160	34160	RVL PHARMACEUTICALS PLC	RVLPQ	G6S41R101	1739426	2834	325412.0	P	01	LC	18209	56568	2018-10-18	E	rvlp
34161	34161	ALLOGENE THERAPEUTICS	ALLO	019770106	1737287	2836	325414.0	P	01	LC	18137	56536	2018-10-11	E	allo
34186	34186	COOTEK (CAYMAN) INC	CTKYY	21718L201	1734262	7372	513210.0	P	90	LC	18071	56503	2018-09-28	E	ctkyy
34193	34193	SI-BONE INC	SIBN	825704109	1459839	3842	339113.0	P	01	LC	18212	56571	2018-10-17	E	sibn
34212	34212	LAIX INC - ADR	LAIXY	50736W204	1742056	8200	611.0	P	90	LC	18085	56507	2018-09-27	2022-10-31	laixy
34241	34241	TWIST BIOSCIENCE CORP	TWST	90184D100	1581280	2836	325414.0	P	01	LC	18214	56573	2018-10-31	E	twst
34242	34242	GREENBROOK TMS INC	GBNHF	393704309	1735948	8093	621420.0	C	01	LC	20797	58106	2021-03-16	2024-12-31	gbnh
34243	34243	ELASTIC NV	ESTC	N14506104	1707753	7372	513210.0	P	01	LC	18136	56535	2018-10-05	E	estc
34259	34259	UTZ BRANDS INC	UTZ	918090101	1739566	2090	311919.0	P	02	LC	18248	56553	2018-11-26	E	utz
34270	34270	NIU TECHNOLOGIES	NIU	65481N100	1744781	3751	336991.0	P	90	LC	18206	56565	2018-10-19	E	niu
34287	34287	GAMIDA CELL LTD	GMDAQ	M47364100	1600847	2836	325414.0	P	01	LC	18197	56562	2018-10-26	2024-05-31	gmda
34296	34296	ROAN RESOURCES INC	ROAN	769755109	1326428	1311	211120.0	P	01	LC	18246	56580	2018-11-09	2019-12-31	
34300	34300	VERRA MOBILITY CORP	VRRM	92511U102	1682745	7374	518210.0	P	01	LC	16631	55850	2018-10-18	E	vrrm
34300	34300	VERRA MOBILITY CORP	VRRM	92511U102	1682745	7374	518210.0	P	01	LC	16631	55850	2018-10-18	E	vrrmw
34309	34309	STONECO LTD	STNE	G85158106	1745431	6099	522320.0	P	01	LC	18213	56572	2018-10-25	E	stne
34326	34326	QUALTRICS INTERNATIONAL INC	XM	747601201	1747748	7370	519290.0	P	02	LC	20345	57674	2021-01-28	2023-06-30	xm
34327	34327	VAPOTHERM INC	VAPO	922107305	1253176	3845	334510.0	P	01	LC	18247	56581	2018-11-14	2024-09-30	vapo
34328	34328	TOKEN CAT LTD -ADR	TC	89856T302	1743340	7389	541890.0	P	90	LC	18261	56593	2018-11-20	E	tc
34330	34330	ASSETMARK FIN HOLDINGS INC	AMK	04546L106	1591587	7370	519290.0	P	01	LC	18786	56802	2019-07-18	E	amk
34337	34337	EQUITRANS MID CORP	ETRN	294600101	1747009	4922	486210.0	P	01	LC	18150	56546	2018-11-13	2024-07-31	etrn
34342	34342	AXONICS INC	AXNX	05465P101	1603756	3845	334510.0	P	01	LC	18190	56556	2018-10-31	2024-11-29	axnx
34361	34361	ORCHARD THERAPEUTICS PLC	ORTX	68570P200	1748907	2836	325414.0	P	90	LC	18208	56567	2018-11-01	2024-01-31	ortx
34361	34361	ORCHARD THERAPEUTICS PLC	ORTX	68570P200	1748907	2836	325414.0	C	90	LC	18208	56567	2018-10-31	2018-10-31	ortx
34376	34376	ALITHYA GROUP INC	ALYAF	01643B106	1734520	7370	5415.0	P	01	LC	18149	56544	2018-11-02	E	alya
34379	34379	CNFINANCE HLDGS LTD -ADR	CNF	18979T105	1733868	6162	522292.0	P	90	LC	18223	56577	2018-11-07	E	cnf
34396	34396	SIRIUS INTL INSURANCE LTD	SG.4	G8196D101	1744894	6331	524126.0	P	01	LC	18260	56591	2018-11-06	2021-02-28	
34410	34410	MODERNA INC	MRNA	60770K107	1682852	2836	325414.0	P	01	LC	18312	56611	2018-12-07	E	mrna
34411	34411	MOGU INC -ADR	MOGU	608012308	1743971	5961	458110.0	P	90	LC	18292	56599	2018-12-06	E	mogu
34412	34412	US WELL SERVICES INC	USWS	91274U309	1670349	1389	213112.0	P	01	LC	16674	55889	2018-11-12	2022-10-31	usws
34412	34412	US WELL SERVICES INC	USWS	91274U309	1670349	1389	213112.0	P	01	LC	16674	55889	2018-11-12	2022-10-31	uswsw
34414	34414	KINETIK HOLDINGS INC	KNTK	02215L209	1692787	4922	486210.0	P	01	LC	16673	55888	2018-11-12	E	kntk
34415	34415	BAIN CAP SPECIALTY FIN INC	BCSF	05684B107	1655050	6797	523910.0	P	01	LC	18222	56576	2018-11-15	E	bcsf
34418	34418	NEW FORTRESS ENERGY INC	NFE	644393100	1749723	4924	221210.0	P	01	LC	18368	56629	2019-01-31	E	nfe
34439	34439	WAITR HOLDINGS INC	ASAPQ	930752209	1653247	7370	519290.0	P	01	LC	16173	55565	2018-11-16	2023-02-01	wtrh
34443	34443	DOW INC	DOW	260557103	1751788	2821	325211.0	P	01	LC	18428	56668	2019-04-02	E	dow
34446	34446	SILVERGATE CAPITAL CORP	SICPQ	82837P408	1312109	6020	522110.0	P	01	LC	19058	56932	2019-11-07	2023-05-10	si
34446	34446	SILVERGATE CAPITAL CORP	SICPQ	82837P408	1312109	6020	522110.0	P	01	LC	19058	56932	2019-11-07	2023-05-10	si-pa
34447	34447	BEYOND MEAT INC	BYND	08862E109	1655210	2030	3114.0	P	01	LC	18572	56715	2019-05-02	E	bynd
34459	34459	LIGHTNING EMOTORS INC	ZEVY	53228T200	1802749	3711	336120.0	P	01	LC	19521	57077	2021-05-07	E	zev
34459	34459	LIGHTNING EMOTORS INC	ZEVY	53228T200	1802749	3711	336120.0	P	01	LC	19521	57077	2021-05-07	E	zev-wt
34467	34467	REVOLVE GROUP INC	RVLV	76156B107	1746618	5961	458110.0	P	01	LC	18725	56768	2019-06-07	E	rvlv
34496	34496	TENCENT MUSIC ENTERTAINMENT	TME	88034P109	1744676	7370	519290.0	P	90	LC	18299	56603	2018-12-12	E	tme
34525	34525	QIFU TECHNOLOGY INC	QFIN	88557W101	1741530	6141	522220.0	P	90	LC	18317	56614	2018-12-14	E	qfin
34562	34562	ORGANOGENESIS HOLDINGS INC	ORGO	68621F102	1661181	2836	325414.0	P	01	LC	16522	55742	2018-12-17	E	orgo
34569	34569	REEBONZ HOLDING LTD	RBZHF	G7457R122	1752108	5961	454110.0	C	01	LC	16980	56060	2018-12-21	2020-04-29	
34571	34571	JIAYIN GROUP INC -ADR	JFIN	47737C104	1743102	6159	522299.0	P	90	LC	18660	56744	2019-05-10	E	jfin
34578	34578	GOSSAMER BIO INC	GOSS	38341P102	1728117	2836	325414.0	P	01	LC	18377	56633	2019-02-08	E	goss
34584	34584	PHUNWARE INC	PHUN	71948P209	1665300	7370	518210.0	P	01	LC	16400	55675	2018-12-28	E	phun
34584	34584	PHUNWARE INC	PHUN	71948P209	1665300	7370	518210.0	P	01	LC	16400	55675	2018-12-28	E	phunw
34587	34587	HARPOON THERAPEUTICS	HARP	41358P205	1708493	2836	325414.0	P	01	LC	18401	56647	2019-02-08	2024-03-28	harp
34593	34593	STEALTH BIOTHERA -ADR	MITO	85789A105	1696396	2836	325414.0	P	90	LC	18409	56654	2019-02-15	2022-11-30	mito
34602	34602	HIGHEST PERF HOLDGS INC -ADR	HPH	69373Y109	1750264	6411	524291.0	P	90	LC	18465	56677	2019-03-29	E	puyi
34603	34603	FUTU HOLDINGS LIMITED	FUTU	36118L106	1754581	6211	523150.0	P	90	LC	18466	56680	2019-03-08	E	futu
34613	34613	SUPER LEAGUE ENTERPRISE INC	SLE	86804F301	1621672	7370	519290.0	P	01	LC	18413	56656	2019-02-26	E	slgg
34621	34621	CBDMD INC	YCBD	12482W309	1644903	2834	325412.0	P	01	LC	17091	56139	2018-12-31	E	ycbd
34621	34621	CBDMD INC	YCBD	12482W309	1644903	2834	325412.0	P	01	LC	17091	56139	2018-12-31	E	ycbd-pa
34636	34636	FOX CORP	FOXA	35137L105	1754301	4833	516120.0	J	02	LC	18421	56662	2019-03-19	E	foxa
34636	34636	FOX CORP	FOXA	35137L105	1754301	4833	516120.0	J	02	LC	18421	56662	2019-03-19	E	fox
34636	34636	FOX CORP	FOXA	35137L105	1754301	4833	516120.0	P	01	LC	18420	56662	2019-03-19	E	foxa
34636	34636	FOX CORP	FOXA	35137L105	1754301	4833	516120.0	P	01	LC	18420	56662	2019-03-19	E	fox
34640	34640	KALEIDO BIOSCIENCES INC	KLDO	483347100	1751299	2836	325414.0	P	01	LC	18408	56653	2019-02-28	E	kldo
34682	34682	AVEDRO INC	AVDR.1	05355N109	1343304	2834	325412.0	P	01	LC	18397	56642	2019-02-14	2019-11-29	
34698	34698	SKYLIGHT HEALTH GROUP INC	SLHGF	83086L205	1839730	8011	621111.0	C	01	LC	21579	58486	2021-06-07	E	slhgf
34698	34698	SKYLIGHT HEALTH GROUP INC	SLHGF	83086L205	1839730	8011	621111.0	C	01	LC	21579	58486	2021-06-07	E	slhpf
34746	34746	CYCLERION THERAPEUTICS	CYCN	23255M204	1755237	2836	325414.0	P	01	LC	18427	56667	2019-04-02	E	cycn
34749	34749	COINBASE GLOBAL INC	COIN	19260Q107	1679788	6200	523210.0	P	01	LC	20892	58167	2021-04-14	E	coin
34750	34750	WATFORD HOLDINGS LTD	WTRE.1	G94787101	1601669	6331	524130.0	P	01	LC	18460	56674	2019-03-28	2021-07-30	wtre
34765	34765	COVETRUS INC	CVET	22304C100	1752836	5912	446110.0	P	01	LC	18327	56619	2019-02-08	2022-10-31	cvet
34834	34834	SOLITON INC	SOLY	834251100	1548187	3845	334510.0	P	01	LC	18414	56657	2019-02-19	2021-12-31	
34854	34854	SHOCKWAVE MEDICAL INC	SWAV	82489T104	1642545	3845	334510.0	P	01	LC	18456	56679	2019-03-07	2024-06-28	swav
34863	34863	UP FINTECH HOLDING LTD	TIGR	91531W106	1756699	6211	523120.0	P	90	LC	18467	56684	2019-03-20	E	tigr
34873	34873	LYFT INC	LYFT	55087P104	1759509	4100	485310.0	P	01	LC	18452	56673	2019-03-29	E	lyft
34882	34882	SILK ROAD MEDICAL INC	SILK	82710M100	1397702	3845	334510.0	P	01	LC	18566	56711	2019-04-04	2024-09-30	silk
34910	34910	LIGHTSPEED COMMERCE INC	LSPD	53229C107	1823306	7370	518210.0	P	01	LC	19779	57305	2020-09-11	E	lspd
34915	34915	BLUE HAT INTERACTIVE ENTERTA	BHAT	G1329V114	1759136	7372	513210.0	P	01	LC	18831	56822	2019-07-26	E	bhat
34916	34916	RUHNN HOLDING LTD -ADR	RUHN	781314109	1753268	5961	454110.0	P	90	LC	18565	56710	2019-04-03	2021-04-30	
34919	34919	TRADEWEB MARKETS INC	TW	892672106	1758730	7370	519290.0	P	01	LC	18480	56687	2019-04-04	E	tw
34941	34941	TARGET HOSPITALITY CORP	TH	87615L107	1712189	6510	531110.0	P	01	LC	17357	56230	2019-03-18	E	th
34941	34941	TARGET HOSPITALITY CORP	TH	87615L107	1712189	6510	531110.0	P	01	LC	17357	56230	2019-03-18	E	thwww
34942	34942	PDS BIOTECHNOLOGY CORP	PDSB	70465T107	1472091	2836	325414.0	P	01	LC	15784	55458	2019-03-18	E	pdsb
34945	34945	BIOCERES CROP SOLUTIONS CORP	BIOX	G1117K114	1769484	2870	325320.0	P	01	LC	17381	56262	2019-03-15	E	biox
34953	34953	PALOMAR HOLDINGS INC	PLMR	69753M105	1761312	6331	524126.0	P	01	LC	18563	56708	2019-04-17	E	plmr
34954	34954	CHANGE HEALTHCARE INC	CHNG	15912K100	1756497	7372	511210.0	P	01	LC	18771	56788	2019-06-27	2022-10-31	chng
34955	34955	PAGERDUTY INC	PD	69553P100	1568100	7370	519290.0	P	01	LC	18482	56688	2019-04-11	E	pd
34956	34956	DIAMOND S SHIPPING INC	DSSI	Y20676105	1761940	4412	483111.0	P	01	LC	18426	56666	2019-03-28	2021-07-30	
34965	34965	JUMIA TECHNOLOGIES AG	JMIA	48138M105	1756708	5961	455.0	P	90	LC	18529	56694	2019-04-11	E	jmia
35004	35004	BRIGHAM MINERALS INC	MNRL	10918L103	1745797	1311	211120.0	P	01	LC	18515	56693	2019-04-18	2022-12-30	mnrl
35005	35005	ZOOM COMMUNICATIONS INC	ZM	98980L101	1585521	7370	519290.0	P	01	LC	18484	56690	2019-04-18	E	zm
35006	35006	TURNING POINT THERAPE INC	TPTX	90041T108	1595893	2836	325414.0	P	01	LC	18567	56712	2019-04-17	2022-08-31	
35007	35007	YUNJI INC -ADR	YJ	98873N305	1759614	5961	455.0	P	90	LC	18678	56759	2019-05-03	E	yj
35009	35009	GREENLANE HOLDINGS INC	GNLN	395330400	1743745	5099	423990.0	P	01	LC	18556	56703	2019-04-18	E	gnln
35013	35013	PINTEREST INC	PINS	72352L106	1506293	7370	519290.0	P	01	LC	18485	56691	2019-04-18	E	pins
35014	35014	HOOKIPA PHARMA INC	HOOK	43906K209	1760542	2836	325414.0	P	01	LC	18559	56704	2019-04-18	E	hook
35030	35030	POSTAL REALTY TRUST INC	PSTL	73757R102	1759774	6798	531120.0	P	01	LC	18715	56763	2019-05-15	E	pstl
35035	35035	KONTOOR BRANDS INC	KTB	50050N103	1760965	2300	315.0	P	01	LC	18578	56720	2019-05-23	E	ktb
35038	35038	TUFIN SOFTWARE TECHNOLOGIES	TUFN	M8893U102	1757399	7372	511210.0	P	01	LC	18545	56697	2019-04-11	2022-08-31	
35053	35053	WHOLE EARTH BRANDS INC	FREE	96684W100	1753706	2090	311999.0	P	02	LC	18642	56698	2019-05-14	E	free
35053	35053	WHOLE EARTH BRANDS INC	FREE	96684W100	1753706	2090	311999.0	P	02	LC	18642	56698	2019-05-14	E	freew
35054	35054	TREVI THERAPEUTICS INC	TRVI	89532M101	1563880	2834	325412.0	P	01	LC	18677	56758	2019-05-07	E	trvi
35055	35055	SCIPLAY CORP	SCPL	809087109	1760717	7372	513210.0	P	01	LC	18573	56716	2019-05-03	2023-10-31	scpl
35056	35056	ALCON INC	ALC	H01301128	1167379	3851	339115.0	P	01	LC	18481	42936	2019-04-09	E	alc
35059	35059	SO-YOUNG INTERNATIONAL INC	SY	83356Q108	1758530	7370	519290.0	P	90	LC	18675	56755	2019-05-02	E	sy
35062	35062	TRANSMEDICS GROUP INC	TMDX	89377M109	1756262	3845	334510.0	P	01	LC	18676	56757	2019-05-02	E	tmdx
35065	35065	AVANTOR INC	AVTR	05352A100	1722482	3826	334516.0	P	01	LC	18579	56721	2019-05-17	E	avtr
35077	35077	UBER TECHNOLOGIES INC	UBER	90353T100	1543151	4100	485310.0	P	01	LC	18576	56719	2019-05-10	E	uber
35089	35089	AXCELLA HEALTH INC	AXLA	05454B204	1633070	2836	325414.0	P	01	LC	18646	56735	2019-05-09	2023-11-22	axla
35099	35099	MAYVILLE ENGNERING CMPNY INC	MEC	578605107	1766368	3460	33211.0	P	01	LC	18709	56762	2019-05-09	E	mec
35101	35101	SOUTH PLAINS FINANCIAL INC	SPFI	83946P107	1163668	6020	522110.0	P	01	LC	18671	56754	2019-05-09	E	spfi
35104	35104	SONIM TECHNOLOGIES INC	SONM	83548F309	1178697	3663	334220.0	P	01	LC	18670	56753	2019-05-10	E	sonm
35120	35120	FASTLY INC	FSLY	31188V100	1517413	7370	519290.0	P	01	LC	18580	56722	2019-05-17	E	fsly
35132	35132	HEADHUNTER GROUP PLC -ADR	HHR	42207L106	1721181	7370	519290.0	P	90	LC	18655	56741	2019-05-09	E	hhr
35133	35133	SLACK TECHNOLOGIES INC	WORK	83088V102	1764925	7370	519130.0	P	01	LC	18734	56773	2019-06-20	2021-07-30	
35136	35136	IDEAYA BIOSCIENCES INC	IDYA	45166A102	1676725	2836	325414.0	P	01	LC	18656	56743	2019-05-23	E	idya
35153	35153	KAIXIN HOLDINGS	KXIN	G5223X159	1713539	5500	441120.0	P	01	LC	17109	56092	2019-05-02	E	kxin
35153	35153	KAIXIN HOLDINGS	KXIN	G5223X159	1713539	5500	441120.0	P	01	LC	17109	56092	2019-05-02	E	kxinw
35158	35158	PARSONS CORP	PSN	70202L102	275880	7370	54151.0	P	01	LC	18575	56718	2019-05-08	E	psn
35168	35168	CORTEVA INC	CTVA	22052L104	1755672	100	111.0	P	01	LC	18592	56723	2019-06-03	E	ctva
35169	35169	LUCKIN COFFEE INC	LKNCY	54951L109	1767582	5961	445298.0	P	90	LC	18662	56746	2019-05-17	E	lkncy
35182	35182	CROWDSTRIKE HOLDINGS INC	CRWD	22788C105	1535527	7370	518210.0	P	01	LC	18726	56769	2019-06-12	E	crwd
35207	35207	GAOTU TECHEDU INC	GOTU	36257Y109	1768259	8200	611699.0	P	90	LC	18743	56780	2019-06-06	E	gotu
35210	35210	ATERIAN INC	ATER	02156U200	1757715	3634	335210.0	C	01	LC	18780	56796	2019-06-12	E	ater
35211	35211	CLARIVATE PLC	CLVT	G21810109	1764046	7370	518210.0	P	01	LC	18723	56766	2019-05-14	E	clvt
35211	35211	CLARIVATE PLC	CLVT	G21810109	1764046	7370	518210.0	P	01	LC	18723	56766	2019-05-14	E	clvt-pa
35222	35222	FIVERR INTERNATIONAL LTD	FVRR	M4R82T106	1762301	7363	5613.0	P	01	LC	18768	56785	2019-06-13	E	fvrr
35223	35223	RED CAT HOLDINGS INC	RCAT	75644T100	748268	3721	336411.0	P	01	LC	21090	58217	2021-04-30	E	rcat
35245	35245	ENDEAVOR GROUP HOLDINGS	EDR	29260Y109	1766363	7900	711.0	P	01	LC	20923	58181	2021-04-29	E	edr
35254	35254	PERSONALIS INC	PSNL	71535D106	1527753	2835	325413.0	P	01	LC	18783	56798	2019-06-20	E	psnl
35279	35279	ADAPTIVE BIOTECH CORP	ADPT	00650F109	1478320	2835	325413.0	P	01	LC	18769	56786	2019-06-27	E	adpt
35287	35287	CHEWY INC	CHWY	16679L109	1766502	5961	459910.0	P	01	LC	18727	56770	2019-06-14	E	chwy
35288	35288	REALREAL INC (THE)	REAL	88339P101	1573221	7370	519290.0	P	01	LC	18784	56799	2019-06-28	E	real
35313	35313	CHINA INDEX HLD LTD -ADR	CIH	16954W101	1749797	7370	519130.0	P	90	LC	18728	56771	2019-06-12	2023-04-28	cih
35320	35320	ONCTERNAL THERAPEUTICS INC	ONCT	68236P206	1260990	2836	325414.0	P	01	LC	90031	44887	2019-06-10	2024-12-03	onct
35322	35322	WANDA SPRT GP CO -ADR	WSG	93368R101	1771279	7900	711320.0	P	90	LC	18854	56836	2019-07-26	2021-01-31	
35327	35327	SKILLSOFT CORP	SKIL	83066P309	1774675	8200	611430.0	P	02	LC	21416	17907	2021-06-14	E	skil
35327	35327	SKILLSOFT CORP	SKIL	83066P309	1774675	8200	611430.0	P	02	LC	21416	17907	2021-06-14	E	skil-wt
35327	35327	SKILLSOFT CORP	SKIL	83066P309	1774675	8200	611430.0	P	02	LC	18794	56778	2019-07-26	2021-06-13	skil
35327	35327	SKILLSOFT CORP	SKIL	83066P309	1774675	8200	611430.0	P	02	LC	18794	56778	2019-07-26	2021-06-13	skil-wt
35345	35345	NIXXY INC	NIXX	75630B402	1462223	7370	519290.0	P	01	LC	21577	58483	2021-06-30	E	rcrt
35345	35345	NIXXY INC	NIXX	75630B402	1462223	7370	519290.0	P	01	LC	21577	58483	2021-06-30	E	rcrtw
35354	35354	GRYPHON DIGITAL MINING INC	GRYP	400510103	1755953	7370	518210.0	P	01	LC	17326	56234	2019-06-18	E	kern
35354	35354	GRYPHON DIGITAL MINING INC	GRYP	400510103	1755953	7370	518210.0	P	01	LC	17326	56234	2019-06-18	E	kernw
35358	35358	LMP AUTOMOTIVE HOLDINGS INC	LMPX	53952P101	1731727	5500	4411.0	P	01	LC	19139	56975	2019-12-05	E	lmpx
35367	35367	ISUN INC	ISUNQ	465246106	1634447	1700	238210.0	P	01	LC	16012	55534	2019-06-20	E	isun
35373	35373	CAMBIUM NETWORKS CORP	CMBM	G17766109	1738177	3663	334220.0	P	01	LC	18775	56792	2019-06-26	E	cmbm
35374	35374	MEDALLIA INC	MDLA	584021109	1540184	7370	518210.0	P	01	LC	18787	56803	2019-07-19	2021-10-29	
35375	35375	MIRUM PHARMACEUTICALS INC	MIRM	604749101	1759425	2836	325414.0	P	01	LC	18846	56831	2019-07-18	E	mirm
35376	35376	FULCRUM THERAPEUTICS INC	FULC	359616109	1680581	2836	325414.0	P	01	LC	18838	56828	2019-07-18	E	fulc
35377	35377	PHREESIA INC	PHR	71944F106	1412408	7370	518210.0	P	01	LC	18808	56809	2019-07-18	E	phr
35378	35378	AFYA LIMITED	AFYA	G01125106	1771007	8200	611310.0	P	01	LC	18829	56821	2019-07-19	E	afya
35391	35391	HEALTH CATALYST INC	HCAT	42225T107	1636422	7370	518210.0	P	01	LC	18789	56804	2019-07-25	E	hcat
35394	35394	LIVONGO HEALTH INC	LVGO	539183103	1639225	3845	334510.0	P	01	LC	18790	56805	2019-07-25	2020-11-30	
35395	35395	SUNNOVA ENRGY INTL INC	NOVA	86745K104	1772695	4991	221114.0	P	01	LC	18815	56814	2019-07-25	E	nova
35396	35396	CASTLE BIOSCIENCES INC	CSTL	14843C105	1447362	8071	621511.0	P	01	LC	18832	56824	2019-07-25	E	cstl
35404	35404	PROSIGHT GLOBAL INC	PROS	74349J103	1634038	6331	524126.0	P	01	LC	18810	56811	2019-07-25	2021-08-31	
35419	35419	DOUYU INTERNATIONAL HOLDINGS	DOYU	25985W204	1762417	7370	519290.0	P	90	LC	18836	56825	2019-07-17	E	doyu
35422	35422	INTELLIGENT BIO SOLUTION INC	INBS	36151G600	1725430	2835	325413.0	P	01	LC	20294	57629	2020-12-23	E	gbs
35423	35423	KURA SUSHI USA INC	KRUS	501270102	1772177	5812	722511.0	P	01	LC	18898	56863	2019-08-01	E	krus
35430	35430	SNDL INC	SNDL	83307B101	1766600	2834	325412.0	P	01	LC	18902	56866	2019-08-01	E	sndl
35447	35447	DYNATRACE INC	DT	268150109	1773383	7370	518210.0	P	01	LC	18886	56857	2019-08-01	E	dt
35451	35451	ONEWATER MARINE INC	ONEW	68280L101	1772921	5500	441222.0	P	01	LC	19250	57029	2020-02-07	E	onew
35455	35455	CROSSFIRST BANKSHARES INC	CFB	22766M109	1458412	6020	522110.0	P	01	LC	18895	56860	2019-08-15	E	cfb
35471	35471	OPORTUN FINANCIAL CORP	OPRT	68376D104	1538716	6141	522291.0	P	01	LC	18958	56892	2019-09-26	E	oprt
35477	35477	SALARIUS PHARMACEUTICALS INC	SLRX	79400X404	1615219	2836	325414.0	P	01	LC	15177	55169	2019-07-22	E	slrx
35481	35481	HIREQUEST INC	HQI	433535101	1140102	7363	561320.0	P	01	LC	17875	56400	2019-07-31	E	hqi
35490	35490	CUSTOM TRUCK ONE SOURCE INC	CTOS	23204X103	1709682	7359	532412.0	P	01	LC	17032	56040	2019-08-01	E	ctos
35490	35490	CUSTOM TRUCK ONE SOURCE INC	CTOS	23204X103	1709682	7359	532412.0	P	01	LC	17032	56040	2019-08-01	E	ctos-wt
35497	35497	ENVISTA HOLDINGS CORP	NVST	29415F104	1757073	3843	339114.0	P	01	LC	18910	56875	2019-09-18	E	nvst
35530	35530	STABILIS SOLUTIONS INC	SLNG	85236P101	1043186	1311	211130.0	P	01	LC	86812	16473	2021-04-29	E	slng
35530	35530	STABILIS SOLUTIONS INC	SLNG	85236P101	1043186	1311	211130.0	P	01	LC	86812	16473	2019-07-29	2019-10-02	slng
35541	35541	URBAN-GRO INC	UGRO	91704K202	1706524	3523	333111.0	P	01	LC	20637	57989	2021-02-12	E	ugro
35543	35543	OPTION CARE HEALTH INC	OPCH	68404L201	1014739	8090	621498.0	P	01	LC	83883	14905	2019-08-07	E	opch
35544	35544	INMODE LTD	INMD	M5425M103	1742692	3845	334510.0	P	01	LC	18896	56861	2019-08-08	E	inmd
35552	35552	ALLIED GAMING & ENTERTAI INC	AGAE	019170109	1708341	7900	711.0	P	01	LC	16975	56090	2019-08-12	E	aese
35602	35602	SMILEDIRECTCLUB INC	SDCCQ	83192H106	1775625	3843	339114.0	P	01	LC	18907	56872	2019-09-12	E	sdc
35604	35604	CLOUDFLARE INC	NET	18915M107	1477333	7370	519290.0	P	01	LC	18909	56874	2019-09-13	E	net
35611	35611	TFF PHARMACEUTICALS INC	TFFP	87241J203	1733413	2834	325412.0	P	01	LC	19026	56922	2019-10-25	2024-12-13	tffp
35612	35612	GFL ENVIRONMENTAL INC	GFL	36168Q104	1780232	4950	562.0	P	01	LC	19291	57040	2020-03-03	E	gfl
35612	35612	GFL ENVIRONMENTAL INC	GFL	36168Q104	1780232	4950	562.0	P	01	LC	19291	57040	2020-03-03	E	gflu
35614	35614	CERENCE INC	CRNC	156727109	1768267	7372	513210.0	P	01	LC	18915	56879	2019-10-02	E	crnc
35617	35617	PING IDENTITY HOLDING CORP	PING	72341T103	1679826	7370	519130.0	P	01	LC	18912	56877	2019-09-19	2022-10-31	ping
35620	35620	DATADOG INC	DDOG	23804L103	1561550	7370	518210.0	P	01	LC	18911	56876	2019-09-19	E	ddog
35627	35627	PELOTON INTERACTIVE INC	PTON	70614W100	1639825	7370	518210.0	P	01	LC	18940	56886	2019-09-26	E	pton
35630	35630	VIELA BIO INC	VIE	926613100	1734517	2836	325414.0	P	01	LC	19031	56923	2019-10-03	2021-03-31	
35632	35632	FRESH TRACKS THERAPEUTIC INC	FRTX	10802T204	819050	2834	325412.0	P	01	LC	79022	12005	2019-09-03	E	frtx
35632	35632	FRESH TRACKS THERAPEUTIC INC	FRTX	10802T204	819050	2834	325412.0	P	01	LC	79022	12005	2019-09-03	E	bbi
35639	35639	IGM BIOSCIENCES INC	IGMS	449585108	1496323	2836	325414.0	P	01	LC	18955	56890	2019-09-18	E	igms
35640	35640	10X GENOMICS INC	TXG	88025U109	1770787	2835	325413.0	P	01	LC	18908	56873	2019-09-12	E	txg
35641	35641	HUIZE HOLDING LTD -ADR	HUIZ	44473E204	1778982	6411	524210.0	P	90	LC	19234	57026	2020-02-12	E	huiz
35642	35642	PENNANT GROUP INC (THE)	PNTG	70805E109	1766400	8050	623.0	P	01	LC	18913	56878	2019-10-01	E	pntg
35649	35649	ADC THERAPEUTICS SA	ADCT	H0036K147	1771910	2836	325414.0	P	01	LC	19391	57082	2020-05-15	E	adct
35653	35653	BIONTECH SE	BNTX	09075V102	1776985	2836	325414.0	P	90	LC	19001	56906	2019-10-10	E	bntx
35666	35666	ENTHUSIAST GAMING HLD INC	EGLXF	29385B109	1854233	7372	511210.0	P	01	LC	21037	58200	2021-04-21	E	eglx
35674	35674	KARAT PACKAGING INC	KRT	48563L101	1758021	5110	424130.0	P	01	LC	21072	58209	2021-04-15	E	krt
35684	35684	BELLRING BRANDS INC	BRBR	07831C103	1772016	2000	312111.0	P	04	LC	22812	59201	2022-03-11	E	brbr
35684	35684	BELLRING BRANDS INC	BRBR	07831C103	1772016	2000	312111.0	C	01	LC	18967	56896	2022-03-01	2022-03-10	brbr
35684	35684	BELLRING BRANDS INC	BRBR	07831C103	1772016	2000	312111.0	P	01	LC	18967	56896	2019-10-17	2022-02-28	brbr
35708	35708	PROGYNY INC	PGNY	74340E103	1551306	8090	621999.0	P	01	LC	18968	56897	2019-10-25	E	pgny
35712	35712	OCUGEN INC	OCGN	67577C105	1372299	2836	325414.0	P	01	LC	15132	55148	2019-09-30	E	ocgn
35730	35730	AESTHETIC MEDICAL INTERNATIO	PAIYY	00809M104	1757143	8090	621498.0	P	90	LC	18996	56904	2019-10-25	E	aih
35731	35731	YOUDAO INC -ADS	DAO	98741T104	1781753	8200	611710.0	P	90	LC	18994	56902	2019-10-25	E	dao
35733	35733	36KR HOLDINGS INC -ADS	KRKR	88429K202	1779476	7370	519290.0	P	90	LC	19073	56948	2019-11-08	E	krkr
35743	35743	DOCEBO INC	DCBO	25609L105	1829959	7370	519290.0	P	01	LC	20289	57622	2020-12-03	E	dcbo
35747	35747	OYSTER POINT PHARM INC	OYST	69242L106	1720725	2836	325414.0	P	01	LC	19016	56916	2019-10-31	2023-01-31	oyst
35748	35748	XCHANGE TEC.INC -ADR	XHG	74738J409	1788016	6411	524210.0	P	90	LC	19080	56953	2019-11-05	E	
35761	35761	LEAFLY HOLDINGS INC	LFLY	52178J303	1785592	7370	519290.0	P	02	LC	19140	56950	2019-12-12	E	lfly
35761	35761	LEAFLY HOLDINGS INC	LFLY	52178J303	1785592	7370	519290.0	P	02	LC	19140	56950	2019-12-12	E	lflyw
35762	35762	FANGDD NETWORK GROUP LTD	DUO	G33147110	1750593	7370	519290.0	P	01	LC	25438	56943	2024-10-01	E	duo
35762	35762	FANGDD NETWORK GROUP LTD	DUO	G33147110	1750593	7370	519290.0	J	01	LC	25438	56943	2024-09-30	2024-09-30	duo
35762	35762	FANGDD NETWORK GROUP LTD	DUO	G33147110	1750593	7370	519290.0	C	90	LC	19069	56943	2024-09-01	2024-09-27	duo
35762	35762	FANGDD NETWORK GROUP LTD	DUO	G33147110	1750593	7370	519290.0	P	90	LC	19069	56943	2019-11-01	2024-08-31	duo
35779	35779	TELA BIO INC	TELA	872381108	1561921	3841	339112.0	P	01	LC	19082	56957	2019-11-08	E	tela
35780	35780	CENTOGENE NV	CNTGF	N1976T109	1757097	8071	621511.0	P	01	LC	19067	56940	2019-11-07	E	cntg
35781	35781	VELOCITY FINANCIAL INC	VEL	92262D101	1692376	6162	522292.0	P	01	LC	19172	56990	2020-01-17	E	vel
35793	35793	ALPINE INCOME PROPERTY TRUST	PINE	02083X103	1786117	6798	531120.0	P	01	LC	19037	56927	2019-11-22	E	pine
35794	35794	SITIME CORP	SITM	82982T106	1451809	3674	334413.0	P	01	LC	19081	56955	2019-11-21	E	sitm
35796	35796	BAUDAX BIO INC	BXRXQ	07160F404	1780097	2836	325414.0	P	01	LC	19034	56926	2019-11-22	2023-11-15	bxrx
35808	35808	VIRGIN GALACTIC HOLDINGS INC	SPCE	92766K403	1706946	4700	488999.0	P	01	LC	16964	56082	2019-10-28	E	spce
35810	35810	GREENLAND TECH HOLDING CORP	GTEC	G4095T107	1735041	3569	333998.0	P	01	LC	18047	56455	2019-10-29	E	gtec
35814	35814	BIOMX INC	PHGE	09090D301	1739174	2836	325414.0	P	01	LC	18419	56597	2019-10-29	E	phge
35814	35814	BIOMX INC	PHGE	09090D301	1739174	2836	325414.0	P	01	LC	18419	56597	2019-10-29	E	phge-un
35814	35814	BIOMX INC	PHGE	09090D301	1739174	2836	325414.0	P	01	LC	18419	56597	2019-10-29	E	phge-wt
35832	35832	EHANG HOLDINGS LIMITED	EH	26853E102	1759783	3721	336411.0	P	90	LC	19134	56970	2019-12-12	E	eh
35833	35833	ECMOHO LTD -ADS	MOHOY	27888P104	1763197	5961	454110.0	P	90	LC	19075	56951	2019-11-08	2023-03-03	moho
35836	35836	I-MAB	IMAB	44975P103	1778016	2836	325414.0	P	90	LC	19193	57003	2020-01-17	E	imab
35837	35837	CANAAN INC	CAN	134748102	1780652	3674	334413.0	P	90	LC	19065	56937	2019-11-21	E	can
35850	35850	VENUS CONCEPT INC	VERO	92332W303	1409269	3845	334510.0	P	01	LC	16987	56097	2019-11-08	E	vero
35852	35852	ADAPTHEALTH CORP	AHCO	00653Q102	1725255	5047	423450.0	P	01	LC	17684	56269	2019-11-11	E	ahco
35858	35858	ONECONNECT FINANCIAL	OCFT	68248T204	1780531	7370	519290.0	P	90	LC	19113	56964	2019-12-13	E	ocft
35867	35867	BROADMARK REALTY CAPITAL INC	BRMK	11135B100	1784797	6798	525990.0	P	01	LC	19033	56925	2019-11-15	2023-05-31	brmk
35867	35867	BROADMARK REALTY CAPITAL INC	BRMK	11135B100	1784797	6798	525990.0	P	01	LC	19033	56925	2019-11-15	2023-05-31	brmk-wt
35868	35868	BILL HOLDINGS INC	BILL	090043100	1786352	7370	518210.0	P	01	LC	19084	56959	2019-12-12	E	bill
35874	35874	REYNOLDS CONSUMER PRODUCTS	REYN	76171L106	1786431	2673	3222.0	P	01	LC	19178	56994	2020-01-31	E	reyn
35880	35880	BETTERWARE DE MEXICO S A P	BWMX	P1666E105	1788257	5961	455.0	P	01	LC	19309	57049	2020-03-13	E	bwmx
35881	35881	XP INC	XP	G98239109	1787425	6211	523150.0	P	01	LC	19148	56982	2019-12-11	E	xp
35890	35890	GENETRON HOLD LTD -ADS	GTH	37186H209	1782594	2836	325414.0	P	90	LC	19477	57120	2020-06-19	2024-04-30	gth
35894	35894	DRAGANFLY INC	DPRO	26142Q304	1786286	3829	334519.0	P	01	LC	21712	58560	2021-07-30	E	dpro
35909	35909	KALEYRA INC	KLR	483379202	1719489	7370	518210.0	P	01	LC	17245	56192	2019-11-26	2023-10-04	klr
35909	35909	KALEYRA INC	KLR	483379202	1719489	7370	518210.0	P	01	LC	17245	56192	2019-11-26	2023-10-04	klr-wt
35922	35922	SPROUT SOCIAL INC	SPT	85209W109	1517375	7370	518210.0	P	01	LC	19145	56980	2019-12-13	E	spt
35957	35957	TRIPLE FLAG PRECIOUS METALS	TFPM	89679M104	1829726	1040	212220.0	P	01	LC	23304	59367	2022-08-30	E	tfpm
35957	35957	TRIPLE FLAG PRECIOUS METALS	TFPM	89679M104	1829726	1040	212220.0	P	01	LC	23304	59367	2022-08-30	E	trfpf
35967	35967	SADOT GROUP INC	SDOT	627333305	1701756	100	1111.0	P	01	LC	19233	57025	2020-02-13	E	gril
35978	35978	ARCONIC CORP	ARNC	03966V107	1790982	3350	3313.0	P	01	LC	19283	57034	2020-04-01	2023-08-31	arnc
35982	35982	IMMUNOVANT INC	IMVT	45258J102	1764013	2836	325414.0	P	01	LC	18776	56742	2019-12-19	E	imvt
35993	35993	BROOGE ENERGY LIMITED	BROG	G1611B107	1774983	5171	424710.0	P	01	LC	17978	56425	2019-12-23	E	brog
35993	35993	BROOGE ENERGY LIMITED	BROG	G1611B107	1774983	5171	424710.0	P	01	LC	17978	56425	2019-12-23	E	brogw
35994	35994	MOLECULAR DATA INC -ADS	MKDTY	60852L205	1758736	5961	454110.0	P	90	LC	19141	56977	2019-12-30	E	mkdty
35994	35994	MOLECULAR DATA INC -ADS	MKDTY	60852L205	1758736	5961	454110.0	P	90	LC	19141	56977	2019-12-30	E	mkd
36003	36003	OBLONG INC	OBLG	674434303	746210	7370	518210.0	P	01	LC	81761	13783	2019-12-01	E	oblg
36003	36003	OBLONG INC	OBLG	674434303	746210	7370	518210.0	C	01	LC	81761	13783	2019-10-31	2019-11-30	oblg
36016	36016	GREENROSE HLDG CO INC (THE)	GNRSQ	395392103	1790665	2833	325411.0	C	02	LC	19399	57024	2020-05-11	E	gnrs
36016	36016	GREENROSE HLDG CO INC (THE)	GNRSQ	395392103	1790665	2833	325411.0	C	02	LC	19399	57024	2020-05-11	E	gnrsu
36016	36016	GREENROSE HLDG CO INC (THE)	GNRSQ	395392103	1790665	2833	325411.0	C	02	LC	19399	57024	2020-05-11	E	gnrsw
36025	36025	1LIFE HEALTHCARE INC	ONEM	68269G107	1404123	8011	621112.0	P	01	LC	19177	56993	2020-01-31	2023-02-28	onem
36037	36037	AMERICAN STRATEGIC INVEST CO	NYC	649439304	1595527	6512	531120.0	P	01	LC	19602	57209	2020-08-18	E	nyc
36048	36048	SOUND GROUP INC -ADR	SOGP	53933L203	1783407	7370	519290.0	P	90	LC	19195	57004	2020-01-17	E	lizi
36049	36049	PPD INC	PPD	69355F102	1793294	8731	541714.0	P	01	LC	19199	14304	2020-02-06	2021-12-31	
36050	36050	CASPER SLEEP INC	CSPR	147626105	1598674	2510	337910.0	P	01	LC	19202	57010	2020-02-06	2022-01-31	
36051	36051	SCHRODINGER INC	SDGR	80810D103	1490978	7372	513210.0	P	01	LC	19200	57007	2020-02-06	E	sdgr
36053	36053	NEXPOINT REAL EST FIN	NREF	65342V101	1786248	6798	525990.0	P	01	LC	19225	57015	2020-02-07	E	nref
36053	36053	NEXPOINT REAL EST FIN	NREF	65342V101	1786248	6798	525990.0	P	01	LC	19225	57015	2020-02-07	E	nref-pa
36054	36054	PHOENIX TREE HOLD -ADS	DNK	719156101	1785154	6513	531110.0	P	90	LC	19168	56988	2020-01-17	2021-03-31	
36061	36061	ATOTECH LIMITED	ATC	G0625A105	1762459	2890	325.0	P	01	LC	20560	57887	2021-02-04	2022-08-31	
36083	36083	REVOLUTION MEDICINES INC	RVMD	76155X100	1628171	2836	325414.0	P	01	LC	19201	57008	2020-02-13	E	rvmd
36084	36084	FATHOM HOLDINGS INC	FTHM	31189V109	1753162	6531	531210.0	P	01	LC	19555	57172	2020-07-31	E	fthm
36133	36133	CRESCENT CAPITAL BDC INC	CCAP	225655109	1633336	6797	523910.0	P	01	LC	19229	57020	2020-02-03	E	ccap
36140	36140	PASSAGE BIO INC	PASG	702712100	1787297	2836	325414.0	P	01	LC	19251	57030	2020-02-28	E	pasg
36153	36153	AMMO INC	POWW	00175J107	1015383	3480	33299.0	P	01	LC	85399	15711	2020-12-01	E	poww
36153	36153	AMMO INC	POWW	00175J107	1015383	3480	33299.0	P	01	LC	85399	15711	2020-12-01	E	powwp
36175	36175	VERTIV HOLDINGS CO	VRT	92537N108	1674101	3679	335999.0	P	01	LC	17987	56432	2020-02-10	E	vrt
36180	36180	PAE INC	PAE	69290Y109	1720821	8700	5419.0	P	01	LC	18202	56522	2020-02-11	2022-02-28	
36190	36190	OTIS WORLDWIDE CORP	OTIS	68902V107	1781335	3530	333921.0	P	01	LC	19286	57037	2020-04-03	E	otis
36191	36191	CARRIER GLOBAL CORP	CARR	14448C104	1783180	3585	333415.0	P	01	LC	19285	57036	2020-04-03	E	carr
36193	36193	AZEK COMPANY INC (THE)	AZEK	05478C105	1782754	2430	32191.0	P	01	LC	19409	57095	2020-06-12	E	azek
36203	36203	VONTIER CORP	VNT	928881101	1786842	3829	334519.0	P	01	LC	19807	57315	2020-10-09	E	vnt
36204	36204	ENLIVEN THERAPEUTICS INC	ELVN	29337E102	1672619	2834	325412.0	P	01	LC	19313	57052	2020-03-12	E	imra
36206	36206	ALTA EQUIPMENT GROUP INC	ALTG	02128L106	1759824	5080	4238.0	P	01	LC	18514	56692	2020-02-18	E	altg
36206	36206	ALTA EQUIPMENT GROUP INC	ALTG	02128L106	1759824	5080	4238.0	P	01	LC	18514	56692	2020-02-18	E	altg-pa
36211	36211	CHEER HOLDING INC	CHR	G39973204	1738758	7822	512120.0	P	01	LC	18129	56493	2020-02-19	E	gsmg
36211	36211	CHEER HOLDING INC	CHR	G39973204	1738758	7822	512120.0	P	01	LC	18129	56493	2020-02-19	E	gsmgw
36234	36234	SELECTQUOTE INC	SLQT	816307300	1794783	6411	524210.0	P	01	LC	19357	57071	2020-05-21	E	slqt
36235	36235	MOVING IMAGE TECHNOLOGIS INC	MITQ	62464R109	1770236	3861	333310.0	P	01	LC	21664	58525	2022-06-30	E	mitq
36236	36236	INARI MEDICAL INC	NARI	45332Y109	1531048	3841	339112.0	P	01	LC	19358	57072	2020-05-22	E	nari
36237	36237	ONCOLOGY INSTITUTE INC (THE)	TOI	68236X100	1799191	8011	621111.0	P	03	LC	19397	57051	2020-05-01	E	toi
36237	36237	ONCOLOGY INSTITUTE INC (THE)	TOI	68236X100	1799191	8011	621111.0	P	03	LC	19397	57051	2020-05-01	E	toiiw
36260	36260	PULMONX CORP	LUNG	745848101	1127537	3841	339112.0	P	01	LC	19979	57449	2020-10-01	E	lung
36263	36263	ACCOLADE INC	ACCD	00437E102	1481646	8090	621999.0	P	01	LC	19496	57136	2020-07-02	E	accd
36264	36264	ORIC PHARMACEUTICALS	ORIC	68622P109	1796280	2836	325414.0	P	01	LC	19353	57068	2020-04-24	E	oric
36273	36273	PROCORE TECHNOLGY INC	PCOR	74275K108	1611052	7370	518210.0	P	01	LC	21237	58267	2021-05-20	E	pcor
36288	36288	MIND MEDICINE MINDMED INC	MNMD	60255C885	1813814	2834	325412.0	P	01	LC	21077	58211	2021-04-27	E	mnmd
36293	36293	GRID DYNAMICS HOLDGS INC	GDYN	39813G109	1743725	7370	54151.0	P	01	LC	18192	56558	2020-03-06	E	gdyn
36299	36299	E2OPEN PARENT HOLDINGS INC	ETWO	29788T103	1800347	7370	518210.0	P	03	LC	19454	57063	2020-06-15	E	etwo
36299	36299	E2OPEN PARENT HOLDINGS INC	ETWO	29788T103	1800347	7370	518210.0	P	03	LC	19454	57063	2020-06-15	E	etwo-wt
36300	36300	LYRA THERAPEUTICS INC	LYRA	55234L105	1327273	3841	339112.0	P	01	LC	19402	57089	2020-05-01	E	lyra
36309	36309	SPHERE ENTERTAINMENT CO	SPHR	55826T102	1795250	4841	516210.0	P	01	LC	19316	57056	2020-04-20	E	msge
36329	36329	INTERNATIONAL GEN INS HL LTD	IGIC	G4809J106	1794338	6331	524126.0	P	01	LC	17696	56304	2020-03-18	E	igic
36329	36329	INTERNATIONAL GEN INS HL LTD	IGIC	G4809J106	1794338	6331	524126.0	P	01	LC	17696	56304	2020-03-18	E	igicw
36330	36330	LI AUTO INC	LI	50202M102	1791706	3711	336110.0	P	90	LC	19564	57178	2020-07-30	E	li
36330	36330	LI AUTO INC	LI	50202M102	1791706	3711	336110.0	P	90	LC	19564	57178	2020-07-30	E	laaof
36333	36333	LUMOS PHARMA INC	LUMO	55028X109	1126234	2836	325414.0	P	01	LC	13111	53935	2020-03-19	2024-12-31	lumo
36357	36357	CROWN ELECTROKINETICS CORP	CRKN	228339503	1761696	1623	237130.0	P	01	LC	20422	57723	2021-01-26	E	crkn
36394	36394	LANTERN PHARMA INC	LTRN	51654W101	1763950	2836	325414.0	P	01	LC	19479	57123	2020-06-11	E	ltrn
36395	36395	KINGSOFT CLOUD HOLDINGS LTD	KC	49639K101	1795589	7370	518210.0	P	90	LC	19400	57088	2020-05-08	E	kc
36399	36399	POLISHED.COM INC	POLCQ	28252C208	1810140	5961	449210.0	P	01	LC	19515	57149	2020-07-31	2024-02-29	pol
36399	36399	POLISHED.COM INC	POLCQ	28252C208	1810140	5961	449210.0	P	01	LC	19515	57149	2020-07-31	2024-02-29	pol-wt
36404	36404	DRAFTKINGS INC	DKNG	26142V105	1883685	7990	713290.0	P	01	LC	18835	56738	2020-04-24	E	dkng
36444	36444	UCLOUDLINK GR INC -ADR	UCL	90354D104	1775898	4899	517112.0	P	90	LC	19492	57133	2020-06-10	E	ucl
36463	36463	ALIGHT INC	ALIT	01626W101	1809104	7374	518210.0	P	06	LC	21617	58517	2021-08-01	E	alit
36463	36463	ALIGHT INC	ALIT	01626W101	1809104	7374	518210.0	J	06	LC	21617	58517	2021-07-06	2021-07-31	alit
36463	36463	ALIGHT INC	ALIT	01626W101	1809104	7374	518210.0	P	02	LC	19519	57076	2020-07-17	2021-07-02	alit
36471	36471	BURNING ROCK BIOTECH LIMITED	BNR	12233L206	1792267	2835	325413.0	P	90	LC	19464	57113	2020-06-12	E	bnr
36474	36474	ROYALTY PHARMA PLC	RPRX	G7709Q104	1802768	2834	325412.0	P	01	LC	19490	57131	2020-06-16	E	rprx
36477	36477	DADA NEXUS LIMITED	DADA	23344D108	1793862	5960	455.0	P	90	LC	19470	57116	2020-06-05	E	dada
36482	36482	LEGEND BIOTEC COR -ADR	LEGN	52490G102	1801198	2836	325414.0	P	90	LC	19478	57122	2020-06-05	E	legn
36494	36494	SHIFT4 PAYMENTS INC	FOUR	82452J109	1794669	7389	522320.0	P	01	LC	19404	57092	2020-06-05	E	four
36500	36500	PRESIDIO PROPERTY TRUST INC	SQFT	74102L303	1080657	6798	531120.0	P	01	LC	19858	57373	2020-10-08	E	sqft
36500	36500	PRESIDIO PROPERTY TRUST INC	SQFT	74102L303	1080657	6798	531120.0	P	01	LC	19858	57373	2020-10-08	E	sqftp
36500	36500	PRESIDIO PROPERTY TRUST INC	SQFT	74102L303	1080657	6798	531120.0	P	01	LC	19858	57373	2020-10-08	E	sqftw
36512	36512	VROOM INC	VRM	92918V307	1580864	7370	519290.0	P	01	LC	19408	57094	2020-06-09	E	vrm
36515	36515	ATLAS TECHNICAL CONSULTANTS	ATCX	049430101	1751143	8700	541.0	P	01	LC	18357	56586	2020-05-01	2023-04-28	atcx
36515	36515	ATLAS TECHNICAL CONSULTANTS	ATCX	049430101	1751143	8700	541.0	N	01	LC	18357	56586	2020-02-28	2020-04-30	atcx
36515	36515	ATLAS TECHNICAL CONSULTANTS	ATCX	049430101	1751143	8700	541.0	C	01	LC	18357	56586	2020-02-18	2020-02-27	atcx
36530	36530	DOGWOOD THERAPEUTICS INC	DWTX	92829J203	1818844	2836	325414.0	P	01	LC	20331	57663	2020-12-17	E	viri
36535	36535	AYRO INC	AYRO	054748207	1086745	3711	336110.0	P	01	LC	90640	46446	2020-05-29	E	ayro
36550	36550	ACCEL ENTERTAINMENT INC	ACEL	00436Q106	1698991	7990	713.0	P	01	LC	16874	55976	2020-06-01	E	acel
36550	36550	ACCEL ENTERTAINMENT INC	ACEL	00436Q106	1698991	7990	713.0	N	01	LC	16874	55976	2019-11-29	2020-05-31	acel
36550	36550	ACCEL ENTERTAINMENT INC	ACEL	00436Q106	1698991	7990	713.0	C	01	LC	16874	55976	2019-11-21	2019-11-28	acel
36555	36555	FORMA THERA HOLDIN INC	FMTX	34633R104	1538927	2836	325414.0	P	01	LC	19410	57096	2020-06-19	2022-10-31	fmtx
36557	36557	SYSTEM1 INC	SST	87200P109	1805833	7370	519290.0	P	05	LC	19616	57107	2020-08-07	E	sst
36557	36557	SYSTEM1 INC	SST	87200P109	1805833	7370	519290.0	P	05	LC	19616	57107	2020-08-07	E	sst-wt
36559	36559	DOUBLEDOWN INTERACTIVE CO	DDI	25862B109	1799567	7372	511210.0	P	90	LC	21838	58658	2021-08-31	E	ddi
36565	36565	NIKOLA CORP	NKLAQ	654110303	1731289	3711	336120.0	P	01	LC	17907	56382	2020-06-04	E	nkla
36569	36569	QUHUO LIMITED	QH	74841Q209	1781193	7389	561499.0	P	90	LC	19569	57186	2020-07-10	E	qh
36570	36570	AGORA INC	API	00851L103	1802883	7370	518210.0	P	90	LC	19463	57111	2020-06-26	E	api
36598	36598	OPEN LENDING CORP	LPRO	68373J104	1806201	7323	561450.0	P	01	LC	17367	56235	2020-06-11	E	lpro
36600	36600	VAXCYTE INC	PCVX	92243G108	1649094	2836	325414.0	P	01	LC	19484	57126	2020-06-12	E	pcvx
36609	36609	FORTE BIOSCIENCES INC	FBRX	34962G208	1419041	2836	325414.0	P	01	LC	16681	55921	2020-06-16	E	fbrx
36613	36613	FS KKR CAPITAL CORP II	FSKR	35952V303	1525759	6797	523910.0	P	01	LC	19435	57101	2020-06-17	2021-07-30	
36616	36616	BLUECITY HOLDI LI -ADR	BLCT	09610L106	1791278	7370	519130.0	P	90	LC	19548	57167	2020-07-08	2022-08-31	
36619	36619	BIORA THERAPEUTICS INC	BIORQ	74319F404	1580063	2836	325414.0	P	01	LC	19486	57128	2020-06-19	2024-12-10	bior
36633	36633	EASTERN BANKSHARES INC	EBC	27627N105	1810546	6020	522110.0	P	01	LC	19854	57369	2020-10-15	E	ebc
36635	36635	GOHEALTH INC	GOCO	38046W204	1808220	6411	524210.0	P	01	LC	19500	57139	2020-07-15	E	goco
36636	36636	TREAN INSURANCE GR INC	TIG	89457R101	1801754	6331	524126.0	P	01	LC	19572	57189	2020-07-16	2023-04-28	tig
36641	36641	RACKSPACE TECHNOLO INC	RXT	750102105	1810019	7370	518210.0	P	01	LC	19576	57193	2020-08-05	E	rxt
36660	36660	PHENOMEX INC	CELL	084310101	1689657	2836	325414.0	P	01	LC	19504	57141	2020-07-17	2023-10-31	bli
36678	36678	GELESIS HOLDINGS INC	GLSHQ	36850R204	1805087	2836	325414.0	C	03	LC	19586	57147	2020-08-24	2023-04-10	gls
36678	36678	GELESIS HOLDINGS INC	GLSHQ	36850R204	1805087	2836	325414.0	C	03	LC	19586	57147	2020-08-24	2023-04-10	gls-wt
36679	36679	ITEOS THERAPEUTICS INC	ITOS	46565G104	1808865	2836	325414.0	P	01	LC	19560	57176	2020-07-24	E	itos
36692	36692	LEMONADE INC	LMND	52567D107	1691421	6331	524126.0	P	01	LC	19497	57137	2020-07-02	E	lmnd
36701	36701	HALL OF FAME RESORT & ENT CO	HOFV	40619L201	1708176	7900	711310.0	P	01	LC	17361	56232	2020-07-02	E	hofv
36701	36701	HALL OF FAME RESORT & ENT CO	HOFV	40619L201	1708176	7900	711310.0	P	01	LC	17361	56232	2020-07-02	E	hofvw
36711	36711	NCINO INC	NCNO	63947X101	1902733	7370	518210.0	P	01	LC	19565	57180	2020-07-14	E	ncno
36717	36717	JAMF HOLDING CORP	JAMF	47074L105	1721947	7370	518210.0	P	01	LC	19505	57142	2020-07-22	E	jamf
36718	36718	MONTROSE ENV GROUP INC	MEG	615111101	1643615	8734	541380.0	P	01	LC	19534	57152	2020-07-23	E	meg
36720	36720	VASTA PLATFORM LTD	VSTA	G9440A109	1792829	8200	611110.0	P	01	LC	19574	57191	2020-08-31	E	vsta
36722	36722	ROCKET COS INC	RKT	77311W101	1805284	6162	522292.0	P	01	LC	19577	57194	2020-08-06	E	rkt
36726	36726	VITAL FARMS INC	VITL	92847W103	1579733	2015	311999.0	P	01	LC	19541	57161	2020-07-31	E	vitl
36728	36728	OAK STREET HEALTH INC	OSH	67181A107	1564406	8000	621.0	P	01	LC	19605	57212	2020-08-06	2023-05-31	osh
36735	36735	KUBIENT INC	KBNT	50116V107	1729750	7370	519290.0	P	01	LC	19640	57245	2020-08-12	E	kbnt
36735	36735	KUBIENT INC	KBNT	50116V107	1729750	7370	519290.0	P	01	LC	19640	57245	2020-08-12	E	kbntw
36748	36748	DIGITAL MEDIA SOLUTIONS INC	DMSLQ	25401G403	1725134	7310	5418.0	P	01	LC	17781	56261	2020-07-16	2023-09-25	dms
36748	36748	DIGITAL MEDIA SOLUTIONS INC	DMSLQ	25401G403	1725134	7310	5418.0	P	01	LC	17781	56261	2020-07-16	2023-09-25	dms-wt
36754	36754	BIGCOMMERCE HOLDIN INC	BIGC	08975P108	1626450	7370	518210.0	P	01	LC	19575	57192	2020-08-05	E	bigc
36757	36757	ACUTUS MEDICAL INC	AFIB	005111109	1522860	3841	339112.0	P	01	LC	19619	57223	2020-08-06	E	afib
36777	36777	NETSTREIT CORP	NTST	64119V303	1798100	6798	531120.0	P	01	LC	19601	57208	2020-08-13	E	ntst
36788	36788	DUCK CREEK TECHNOL INC	DCT	264120106	1160951	7370	518210.0	P	01	LC	19578	57195	2020-08-14	2023-03-31	dct
36790	36790	BROOKFIELD RENEWABLE CORP	BEPC	11285B108	1791863	4911	2211.0	P	01	LC	19514	57146	2020-07-24	E	bepc
36798	36798	KE HOLDINGS INC	BEKE	482497104	1809587	6531	531210.0	P	90	LC	19598	57207	2020-08-13	E	beke
36799	36799	TRANSPHORM INC	TGAN	89386L100	1715768	3674	334413.0	P	01	LC	22802	59198	2022-02-22	2024-06-28	tgan
36826	36826	AMERICAN OUTDOOR BRANDS	AOUT	02875D109	1808997	3949	339920.0	P	01	LC	19579	57196	2020-08-25	E	aout
36828	36828	CUREVAC N.V.	CVAC	N2451R105	1809122	2836	325414.0	P	01	LC	19623	57230	2020-08-14	E	cvac
36847	36847	HARMONY BIOSC HOLD INC	HRMY	413197104	1802665	2834	325412.0	P	01	LC	19635	57241	2020-08-19	E	hrmy
36853	36853	MAXEON SOLAR TECHNOLOGIES	MAXN	Y58473128	1796898	3674	334413.0	P	01	LC	19584	57200	2020-08-27	E	maxn
36857	36857	NANO X IMAGING LTD	NNOX	M70700105	1795251	3844	334517.0	P	01	LC	19647	57250	2020-08-21	E	nnox
36885	36885	OUTSET MEDICAL INC	OM	690145206	1484612	3845	334510.0	P	01	LC	19653	57254	2020-09-15	E	om
36896	36896	SUMO LOGIC INC	SUMO	86646P103	1643269	7370	518210.0	P	01	LC	19660	57261	2020-09-17	2023-05-31	sumo
36897	36897	HIGHPEAK ENERGY INC	HPK	43114Q105	1792849	1311	2111.0	P	01	LC	19632	57240	2020-08-24	E	hpk
36897	36897	HIGHPEAK ENERGY INC	HPK	43114Q105	1792849	1311	2111.0	P	01	LC	19632	57240	2020-08-24	E	hpkew
36898	36898	UNITY SOFTWARE INC	U	91332U101	1810806	7372	513210.0	P	01	LC	19794	57313	2020-09-18	E	u
36902	36902	VITRU BRASIL EMPREENDIMENTOS	VTRU	G9440D103	1805012	8200	611.0	P	01	LC	19848	57366	2020-09-18	2024-06-28	vtru
36910	36910	PALANTIR TECHNOLOG INC	PLTR	69608A108	1321655	7370	519130.0	P	01	LC	19788	57309	2020-09-30	E	pltr
36929	36929	LENSAR INC	LNSR	52634L108	1320350	3845	334510.0	P	01	LC	19680	57326	2020-10-02	E	lnsr
36945	36945	JFROG LTD	FROG	M6191J100	1800667	7372	513210.0	P	01	LC	19656	57257	2020-09-16	E	frog
36950	36950	AMERICAN WELL CORP	AMWL	03044L204	1393584	7370	518210.0	P	01	LC	19657	57258	2020-09-17	E	amwl
36964	36964	ASANA INC	ASAN	04342Y104	1477720	7370	518210.0	P	01	LC	19746	57296	2020-09-30	E	asan
36965	36965	GRAB HOLDINGS LIMITED	GRAB	G4124C109	1855612	4210	492210.0	P	03	LC	22558	59080	2021-12-02	E	grab
36965	36965	GRAB HOLDINGS LIMITED	GRAB	G4124C109	1855612	4210	492210.0	P	03	LC	22558	59080	2021-12-02	E	grabw
36965	36965	GRAB HOLDINGS LIMITED	GRAB	G4124C109	1855612	4210	492210.0	P	03	LC	20279	57422	2020-12-01	2021-12-01	grab
36965	36965	GRAB HOLDINGS LIMITED	GRAB	G4124C109	1855612	4210	492210.0	P	03	LC	20279	57422	2020-12-01	2021-12-01	grabw
36967	36967	BROADSTONE NET LEASE INC	BNL	11135E203	1424182	6798	531120.0	P	01	LC	19658	57259	2020-09-17	E	bnl
36973	36973	PACTIV EVERGREEN INC	PTVE	69526K105	1527508	2650	3222.0	P	01	LC	19659	57260	2020-09-17	E	ptve
36975	36975	COMPASS PATHWAYS PLC	CMPS	20451W101	1816590	2834	325412.0	P	90	LC	19821	57340	2020-09-18	E	cmps
36985	36985	ELUTIA INC	ELUT	05479K106	1708527	2836	325414.0	P	01	LC	19947	57426	2020-10-08	E	azyo
36989	36989	LAIRD SUPERFOOD INC	LSF	50736T102	1650696	2000	311.0	P	01	LC	19778	57304	2020-09-23	E	lsf
36995	36995	NUVEI CORP	NVEI	67079A102	1765159	7389	522320.0	P	01	LC	22222	58874	2021-10-06	2024-11-29	nvei
37013	37013	TAYSHA GENE THERPS INC	TSHA	877619106	1806310	2836	325414.0	P	01	LC	19847	57361	2020-09-24	E	tsha
37019	37019	MISSION PRODUCE INC	AVO	60510V108	1802974	5140	424480.0	P	01	LC	19946	57425	2020-10-01	E	avo
37023	37023	GOODRX HLDGS INC	GDRX	38246G108	1809519	7370	519290.0	P	01	LC	19679	57265	2020-09-23	E	gdrx
37032	37032	VIA OPTRONICS AG	VIAOY	91823Y109	1769116	3679	334419.0	P	90	LC	19795	57314	2020-09-25	E	viao
37054	37054	ACADEMY SPO AND OU INC	ASO	00402L107	1817358	5940	459110.0	P	01	LC	19945	57424	2020-10-02	E	aso
37061	37061	YALLA GROUP LIMITED	YALA	98459U103	1794350	7370	519290.0	P	90	LC	19743	57316	2020-10-01	E	yala
37061	37061	YALLA GROUP LIMITED	YALA	98459U103	1794350	7370	519290.0	C	90	LC	19743	57316	2020-09-30	2020-09-30	yala
37076	37076	BENTLEY SYSTEMS INC	BSY	08265T208	1031308	7370	518210.0	P	01	LC	19818	57336	2020-09-23	E	bsy
37079	37079	GLOBAL BUSINESS TRAVL GP INC	GBTG	37890B100	1820872	4700	561599.0	P	03	LC	20114	57400	2020-11-23	E	gbtg
37079	37079	GLOBAL BUSINESS TRAVL GP INC	GBTG	37890B100	1820872	4700	561599.0	P	03	LC	20114	57400	2020-11-23	E	gbtg-wt
37080	37080	EARGO INC	EAR	270087208	1719395	3842	339113.0	P	01	LC	19958	57436	2020-10-16	2024-02-29	ear
37085	37085	BOQII HOLDING LTD -ADR	BQ	09950L401	1815021	5961	459910.0	P	90	LC	19744	57298	2020-09-30	E	bq
37090	37090	CORSAIR GAMING INC	CRSR	22041X102	1743759	3570	33411.0	P	01	LC	19822	57341	2020-09-23	E	crsr
37101	37101	CHINDATA GROUP HOLD LTD -ADR	CD	16955F107	1807192	7374	518210.0	P	90	LC	19819	57338	2020-09-30	2023-12-29	cd
37106	37106	VELODYNE LIDAR INC	VLDR	92259F101	1745317	3812	334511.0	P	01	LC	18162	56547	2020-09-30	2023-02-28	vldr
37106	37106	VELODYNE LIDAR INC	VLDR	92259F101	1745317	3812	334511.0	P	01	LC	18162	56547	2020-09-30	2023-02-28	vldrw
37110	37110	SHATTUCK LABS INC	STTK	82024L103	1680367	2836	325414.0	P	01	LC	19994	57465	2020-10-09	E	sttk
37113	37113	STARRY GROUP HOLDINGS INC	STRYQ	85572U102	1884697	4899	517919.0	P	04	LC	22959	59242	2022-03-29	2022-12-14	stry
37113	37113	STARRY GROUP HOLDINGS INC	STRYQ	85572U102	1884697	4899	517919.0	P	04	LC	22959	59242	2022-03-29	2022-12-14	stry-wt
37113	37113	STARRY GROUP HOLDINGS INC	STRYQ	85572U102	1884697	4899	517919.0	P	04	LC	20083	57383	2020-11-27	2022-03-28	stry
37113	37113	STARRY GROUP HOLDINGS INC	STRYQ	85572U102	1884697	4899	517919.0	P	04	LC	20083	57383	2020-11-27	2022-03-28	stry-wt
37130	37130	THRYV HOLDINGS INC	THRY	886029206	1556739	2741	513140.0	P	01	LC	19996	57468	2020-10-01	E	thry
37134	37134	BIODESIX INC	BDSX	09075X108	1439725	8071	621511.0	P	01	LC	19948	57427	2020-10-28	E	bdsx
37146	37146	DOCGO INC	DCGO	256086109	1822359	8090	621999.0	P	02	LC	20307	57454	2020-12-11	E	dcgo
37146	37146	DOCGO INC	DCGO	256086109	1822359	8090	621999.0	P	02	LC	20307	57454	2020-12-11	E	dcgow
37148	37148	MEDIAALPHA INC	MAX	58450V104	1818383	7370	519130.0	P	01	LC	19859	57374	2020-10-28	E	max
37150	37150	ROOT INC	ROOT	77664L207	1788882	6331	524126.0	P	01	LC	19862	57375	2020-10-28	E	root
37153	37153	COMPOSECURE INC	CMPO	20459V105	1823144	3577	334118.0	P	02	LC	20138	57561	2020-11-19	E	cmpo
37153	37153	COMPOSECURE INC	CMPO	20459V105	1823144	3577	334118.0	P	02	LC	20138	57561	2020-11-19	E	cmpow
37157	37157	MINISO GROUP HOLDING LTD	MNSO	66981J102	1815846	5331	455219.0	P	90	LC	19912	57391	2020-10-15	E	mnso
37164	37164	ARCHAEA ENERGY INC	LFG	03940F103	1823766	4900	221210.0	P	03	LC	20246	57392	2020-12-14	2022-12-30	lfg
37180	37180	MCAFEE CORP	MCFE	579063108	1783317	7372	511210.0	P	01	LC	19857	57372	2020-10-22	2022-03-31	mcfe
37182	37182	HYLIION HOLDINGS CORP	HYLN	449109107	1759631	3711	336120.0	P	01	LC	18539	56638	2020-10-02	E	hyln
37186	37186	GUILD HOLDINGS CO	GHLD	40172N107	1821160	6162	522292.0	P	01	LC	19898	57387	2020-10-22	E	ghld
37187	37187	PRAXIS PRECIS MEDI INC	PRAX	74006W207	1689548	2836	325414.0	P	01	LC	19986	57460	2020-10-16	E	prax
37188	37188	CLARITEV CORP	CTEV	62548M209	1793229	7372	513210.0	P	01	LC	19331	57011	2020-10-09	E	mpln
37188	37188	CLARITEV CORP	CTEV	62548M209	1793229	7372	513210.0	P	01	LC	19331	57011	2020-10-09	E	mpln-wt
37198	37198	REAL BROKERAGE INC (THE)	REAX	75585H206	1862461	6531	531210.0	P	01	LC	21578	58484	2021-06-15	E	reax
37200	37200	ARRAY TECHNOLOGIES INC	ARRY	04271T100	1820721	3829	334519.0	P	01	LC	19851	57368	2020-10-15	E	arry
37213	37213	SHIFT TECHNOLOGIES INC	SFTGQ	82452T305	1762322	5961	441.0	P	01	LC	18659	56682	2020-10-15	E	sft
37214	37214	CURIOSITYSTREAM INC	CURI	23130Q107	1776909	7374	518210.0	P	01	LC	19197	56954	2020-10-15	E	curi
37214	37214	CURIOSITYSTREAM INC	CURI	23130Q107	1776909	7374	518210.0	P	01	LC	19197	56954	2020-10-15	E	curiw
37230	37230	TATTOOED CHEF INC	TTCFQ	87663X102	1741231	2090	3119.0	P	01	LC	18114	56484	2020-10-16	E	ttcf
37231	37231	PAYA HOLDINGS INC	PAYA	70434P103	1819881	7374	518210.0	P	01	LC	18361	56589	2020-10-19	2023-02-28	paya
37233	37233	LUFAX HOLDING LTD	LU	54975P201	1816007	6141	522291.0	P	90	LC	19910	57389	2020-10-30	E	lu
37254	37254	DATTO HOLDING CORP	MSP	23821D100	1724570	7370	518210.0	P	01	LC	19856	57371	2020-10-21	2022-06-30	
37268	37268	NU RIDE INC	NRDE	54405Q209	1759546	3711	336110.0	P	01	LC	18552	56644	2020-10-26	2023-07-06	ride
37275	37275	CEREVEL THERAPEUTICS HOLDING	CERE	15678U128	1805387	2836	325414.0	P	01	LC	19547	57112	2020-10-28	2024-08-30	cere
37284	37284	LESLIE'S INC	LESL	527064109	1821806	5990	459999.0	P	01	LC	19937	57416	2020-10-29	E	lesl
37290	37290	VIVOS THERAPEUTICS INC	VVOS	92859E207	1716166	3841	339112.0	P	01	LC	20332	57665	2020-12-11	E	vvos
37292	37292	ATEA PHARMACEUTICALS INC	AVIR	04683R106	1593899	2834	325412.0	P	01	LC	19939	57418	2020-10-30	E	avir
37293	37293	GATOS SILVER INC	GATO	368036109	1517006	1040	212220.0	P	01	LC	19894	57385	2020-10-28	E	gato
37305	37305	NEOGAMES SA	NGMS	L6673X107	1821349	7372	513210.0	P	01	LC	20157	57571	2020-11-19	2024-04-30	ngms
37309	37309	ALLEGRO MICROSYSTEMS INC	ALGM	01749D105	866291	3674	334413.0	P	01	LC	19938	57417	2020-10-29	E	algm
37318	37318	FISKER INC	FSRNQ	33813J106	1720990	3711	336111.0	P	01	LC	18184	56480	2020-10-30	2024-03-25	fsr
37338	37338	SOTERA HEALTH CO	SHC	83601L102	1822479	8734	541380.0	P	01	LC	20062	57532	2020-11-20	E	shc
37354	37354	MARAVAI LIFESCIENS HLDGS INC	MRVI	56600D107	1823239	8731	541713.0	P	01	LC	20059	57531	2020-11-20	E	mrvi
37355	37355	ALTUS POWER INC	AMPS	02217A102	1828723	4911	221114.0	P	02	LC	20522	57594	2021-02-01	E	amps
37355	37355	ALTUS POWER INC	AMPS	02217A102	1828723	4911	221114.0	P	02	LC	20522	57594	2021-02-01	E	amps-wt
37356	37356	CVENT HOLDING CORP	CVT	126677103	1827075	7370	518210.0	P	01	LC	20142	57563	2020-11-17	2023-06-30	cvt
37357	37357	UPSTART HOLDINGS INC	UPST	91680M107	1647639	6141	522291.0	P	01	LC	20196	57593	2020-12-16	E	upst
37362	37362	INSPIRATO INC	ISPO	45791E206	1820566	4700	561510.0	P	02	LC	20636	57661	2021-02-09	E	ispo
37362	37362	INSPIRATO INC	ISPO	45791E206	1820566	4700	561510.0	P	02	LC	20636	57661	2021-02-09	E	ispow
37366	37366	TRITERRAS INC	TRIRF	G9103H102	1819876	7370	519130.0	P	01	LC	18900	56832	2020-11-11	E	trirf
37366	37366	TRITERRAS INC	TRIRF	G9103H102	1819876	7370	519130.0	P	01	LC	18900	56832	2020-11-11	E	trirw
37382	37382	CONCENTRIX CORP	CNXC	20602D101	1803599	7374	518210.0	P	01	LC	20065	57534	2020-12-01	E	cnxc
37388	37388	17 EDUCATION & TE -ADR	YQ	81807M304	1821468	8200	611.0	P	90	LC	20337	57668	2020-12-04	E	yq
37392	37392	EOS ENERGY ENTERPRISES INC	EOSE	29415C101	1805077	3690	335910.0	P	01	LC	19416	57075	2020-11-17	E	eose
37392	37392	EOS ENERGY ENTERPRISES INC	EOSE	29415C101	1805077	3690	335910.0	P	01	LC	19416	57075	2020-11-17	E	eosew
37393	37393	YATSEN HOLDING LTD -ADR	YSG	985194208	1819580	2844	325620.0	P	90	LC	20112	57548	2020-11-19	E	ysg
37394	37394	OZON HOLDINGS PLC	OZON	69269L104	1822829	5961	455110.0	P	90	LC	20162	57574	2020-11-24	E	ozon
37396	37396	MEDAVAIL HOLDINGS INC	MDVLQ	58406B202	1402479	5912	456110.0	C	01	LC	14820	54965	2020-11-18	2024-02-12	mdvl
37404	37404	GCM GROSVENOR INC	GCMG	36831E108	1819796	6200	523.0	P	01	LC	18360	56605	2020-11-18	E	gcmg
37404	37404	GCM GROSVENOR INC	GCMG	36831E108	1819796	6200	523.0	P	01	LC	18360	56605	2020-11-18	E	gcmgw
37407	37407	MP MATERIALS CORP	MP	553368101	1801368	1090	212290.0	P	01	LC	19433	57062	2020-11-18	E	mp
37413	37413	AFFIRM HOLDINGS INC	AFRM	00827B106	1820953	6141	522291.0	P	01	LC	20339	57669	2021-01-13	E	afrm
37414	37414	CERTARA INC	CERT	15687V109	1827090	7370	518210.0	P	01	LC	20195	57592	2020-12-11	E	cert
37420	37420	DOORDASH INC	DASH	25809K105	1792789	7370	519290.0	P	01	LC	20189	57587	2020-12-09	E	dash
37425	37425	SEER INC	SEER	81578P106	1726445	8731	541713.0	P	01	LC	20187	57586	2020-12-04	E	seer
37426	37426	PARTS ID INC	IDICQ	702141102	1698113	5961	441330.0	P	01	LC	17090	56138	2020-11-23	2024-02-29	id
37445	37445	AARONS CO INC (THE)	AAN	00258W108	1821393	5700	449110.0	P	01	LC	20064	57533	2020-12-01	2024-10-31	aan
37449	37449	QUANTUMSCAPE CORP	QS	74767V109	1811414	3690	335910.0	P	01	LC	19599	57104	2020-11-27	E	qs
37453	37453	ROBLOX CORP	RBLX	771049103	1315098	7370	518210.0	P	01	LC	20648	57999	2021-03-10	E	rblx
37460	37460	AIRBNB INC	ABNB	009066101	1559720	7000	721.0	P	01	LC	20190	57588	2020-12-10	E	abnb
37480	37480	908 DEVICES INC	MASS	65443P102	1555279	3826	334516.0	P	01	LC	20305	57638	2020-12-18	E	mass
37489	37489	APARTMENT INCOME REIT CORP	AIRC	03750L109	1820877	6798	531110.0	P	01	LC	20191	57589	2020-12-15	2024-06-28	airc
37490	37490	LUMINAR TECHNOLOGIES INC	LAZR	550424303	1758057	3714	336320.0	P	01	LC	18453	56646	2020-12-03	E	lazr
37502	37502	PETCO HEALTH AND WELLNESS CO	WOOF	71601V105	1826470	5990	459910.0	P	01	LC	20341	57671	2021-01-14	E	woof
37510	37510	PUBMATIC INC	PUBM	74467Q103	1422930	7370	518210.0	P	01	LC	20315	57650	2020-12-09	E	pubm
37517	37517	C3.AI INC	AI	12468P104	1577526	7370	518210.0	P	01	LC	20193	57590	2020-12-09	E	ai
37519	37519	OPENDOOR TECHNOLOGIES INC	OPEN	683712103	1801169	6531	531210.0	P	01	LC	19455	57064	2020-12-21	E	open
37527	37527	ABCELLERA BIOLOGICS INC	ABCL	00288U106	1703057	2836	325414.0	P	01	LC	20276	57611	2020-12-11	E	abcl
37530	37530	FORGE GLOBAL HOLDINGS INC	FRGE	34629L103	1827821	6200	52399.0	P	02	LC	20561	57609	2021-02-01	E	frge
37537	37537	DESKTOP METAL INC	DM	25058X303	1754820	3555	333248.0	P	01	LC	18719	56672	2020-12-31	E	dm
37541	37541	BIOATLA INC	BCAB	09077B104	1826892	2836	325414.0	P	01	LC	20280	57614	2020-12-16	E	bcab
37559	37559	CLEVER LEAVES HOLDINGS INC	CLVR	186760203	1819615	2833	325411.0	P	01	LC	18370	56615	2020-12-18	2024-05-16	clvr
37559	37559	CLEVER LEAVES HOLDINGS INC	CLVR	186760203	1819615	2833	325411.0	P	01	LC	18370	56615	2020-12-18	2024-05-16	clvrw
37560	37560	POSHMARK INC	POSH	73739W104	1825480	5961	454110.0	P	01	LC	20340	57670	2021-01-14	2023-01-31	posh
37562	37562	SKILLZ INC	SKLZ	83067L208	1801661	7370	518210.0	P	01	LC	19338	57039	2020-12-17	E	sklz
37576	37576	CANOO INC	GOEVQ	13803R300	1750153	3711	336110.0	P	01	LC	18558	56676	2020-12-22	E	goev
37576	37576	CANOO INC	GOEVQ	13803R300	1750153	3711	336110.0	P	01	LC	18558	56676	2020-12-22	E	goevw
37587	37587	AERSALE CORP	ASLE	00810F106	1754170	5080	423860.0	P	01	LC	18410	56655	2020-12-23	E	asle
37593	37593	PORCH GROUP INC	PRCH	733245104	1784535	6331	524126.0	P	01	LC	19196	56952	2020-12-24	E	prch
37594	37594	SPRUCE POWER HOLDG CORP	SPRU	9837FR209	1772720	4911	221114.0	P	01	LC	18936	56810	2020-12-22	E	xl
37596	37596	SENTINELONE INC	S	81730H109	1583708	7372	513210.0	P	01	LC	21415	58344	2021-06-30	E	s
37605	37605	MYT NETHERLANDS PARENT BV	MYTE	55406W103	1831907	5961	458110.0	P	90	LC	20382	57686	2021-01-21	E	myte
37607	37607	EMBARK TECHNOLOGY INC	EMBK	29079J202	1827980	7372	513210.0	P	02	LC	20717	57688	2021-03-05	2023-08-01	embk
37607	37607	EMBARK TECHNOLOGY INC	EMBK	29079J202	1827980	7372	513210.0	P	02	LC	20717	57688	2021-03-05	2023-08-01	embkw
37610	37610	BUZZFEED INC	BZFD	12430A300	1828972	7370	519290.0	P	02	LC	20787	57727	2021-03-05	E	bzfd
37610	37610	BUZZFEED INC	BZFD	12430A300	1828972	7370	519290.0	P	02	LC	20787	57727	2021-03-05	E	bzfdw
37617	37617	ROMEO POWER INC	RMO	776153108	1757932	3690	335911.0	P	01	LC	18533	56637	2020-12-30	2022-10-31	rmo
37623	37623	RUSH STREET INTERACTIVE INC	RSI	782011100	1793659	7990	7132.0	P	01	LC	19333	57012	2020-12-30	E	rsi
37630	37630	DANIMER SCIENTIFIC INC	DNMRQ	236272407	1779020	2821	325211.0	P	01	LC	19388	57078	2020-12-30	2024-12-30	dnmr
37646	37646	SHOALS TECHNOLOGIES GRP INC	SHLS	82489W107	1831651	3670	33441.0	P	01	LC	20347	57676	2021-01-27	E	shls
37651	37651	SES AI CORPORATION	SES	78397Q109	1819142	3690	335910.0	P	03	LC	20751	57700	2021-05-01	E	ses
37651	37651	SES AI CORPORATION	SES	78397Q109	1819142	3690	335910.0	P	03	LC	20751	57700	2021-05-01	E	ses-wt
37651	37651	SES AI CORPORATION	SES	78397Q109	1819142	3690	335910.0	J	03	LC	20751	57700	2021-03-01	2021-04-30	ses
37651	37651	SES AI CORPORATION	SES	78397Q109	1819142	3690	335910.0	J	03	LC	20751	57700	2021-03-01	2021-04-30	ses-wt
37658	37658	BIRD GLOBAL INC	BRDSQ	09077J206	1861449	4100	485999.0	P	02	LC	22356	58997	2021-11-04	2023-09-22	brds
37658	37658	BIRD GLOBAL INC	BRDSQ	09077J206	1861449	4100	485999.0	P	02	LC	22356	58997	2021-11-04	2023-09-22	brds-wt
37658	37658	BIRD GLOBAL INC	BRDSQ	09077J206	1861449	4100	485999.0	P	02	LC	20759	57704	2021-03-01	2021-11-03	brds
37658	37658	BIRD GLOBAL INC	BRDSQ	09077J206	1861449	4100	485999.0	P	02	LC	20759	57704	2021-03-01	2021-11-03	brds-wt
37664	37664	PURECYCLE TECHNOLOGIES INC	PCT	74623V103	1830033	2821	325211.0	P	02	LC	19489	57091	2021-03-18	E	pct
37664	37664	PURECYCLE TECHNOLOGIES INC	PCT	74623V103	1830033	2821	325211.0	P	02	LC	19489	57091	2021-03-18	E	pcttu
37664	37664	PURECYCLE TECHNOLOGIES INC	PCT	74623V103	1830033	2821	325211.0	P	02	LC	19489	57091	2021-03-18	E	pcttw
37671	37671	ISPECIMEN INC	ISPC	45032V207	1558569	7372	513210.0	P	01	LC	21562	58469	2021-06-17	E	ispc
37672	37672	MONTAUK RENEWABLES INC	MNTK	61218C103	1826600	1311	211120.0	P	01	LC	20438	57763	2021-01-22	E	mntk
37673	37673	BM TECHNOLOGIES INC	BMTX	05591L107	1725872	7370	518210.0	P	01	LC	18086	56477	2021-01-06	E	bmtx
37673	37673	BM TECHNOLOGIES INC	BMTX	05591L107	1725872	7370	518210.0	P	01	LC	18086	56477	2021-01-06	E	bmtx-wt
37674	37674	MOTORSPORT GAMES INC	MSGM	62011B201	1821175	7372	513210.0	P	01	LC	20439	57765	2021-01-13	E	msgm
37676	37676	RLX TECHNOLOGY INC	RLX	74969N103	1828365	3990	339999.0	P	90	LC	20389	57691	2021-01-22	E	rlx
37677	37677	GRACELL BIOTE INC -ADR	GRCL	38406L103	1826492	2836	325414.0	P	90	LC	20428	57741	2021-01-08	2024-02-29	grcl
37678	37678	VINCI PARTNERS INV LTD	VINP	G9451V109	1826286	6200	523.0	P	01	LC	20461	57790	2021-01-28	E	vinp
37680	37680	ORTHO CLINICAL DIAG HLDG PLC	OCDX	G6829J107	1828443	3845	334510.0	P	01	LC	20411	57707	2021-01-28	2022-05-31	
37711	37711	CLOVER HEALTH INVESTMENTS	CLOV	18914F103	1801170	6324	621491.0	P	01	LC	19456	57065	2021-01-08	E	clov
37713	37713	LANDSEA HOMES CORP	LSEA	51509P103	1721386	1520	2361.0	P	01	LC	17890	56414	2021-01-08	E	lsea
37713	37713	LANDSEA HOMES CORP	LSEA	51509P103	1721386	1520	2361.0	P	01	LC	17890	56414	2021-01-08	E	lseaw
37723	37723	TRINITY CAPITAL INC	TRIN	896442308	1786108	6797	523910.0	P	01	LC	20456	57787	2021-01-29	E	trin
37723	37723	TRINITY CAPITAL INC	TRIN	896442308	1786108	6797	523910.0	P	01	LC	20456	57787	2021-01-29	E	trinl
37740	37740	BTRS HOLDINGS INC	BTRS	11778X104	1774155	7370	518210.0	P	01	LC	18852	56800	2021-01-13	2022-12-30	btrs
37751	37751	DRIVEN BRANDS HOLDINGS INC	DRVN	26210V102	1804745	7500	811111.0	P	01	LC	20342	57672	2021-01-15	E	drvn
37752	37752	PLAYTIKA HOLDING CORP	PLTK	72815L107	1828016	7372	513210.0	P	01	LC	20447	57775	2021-01-15	E	pltk
37763	37763	UWM HOLDINGS CORP	UWMC	91823B109	1783398	6162	522292.0	P	01	LC	19312	57001	2021-01-22	E	uwmc
37763	37763	UWM HOLDINGS CORP	UWMC	91823B109	1783398	6162	522292.0	P	01	LC	19312	57001	2021-01-22	E	uwmc-wt
37773	37773	EVAXION BIOTECH -ADR	EVAX	29970R303	1828253	2836	325414.0	P	90	LC	20593	57930	2021-02-05	E	evax
37775	37775	TELUS INTERNATIONAL IN	TIXT	87975H100	1825155	7374	518210.0	P	01	LC	20553	57875	2021-02-03	E	tixt
37776	37776	PATRIA INVESTMENTS LTD	PAX	G69451105	1825570	6282	523940.0	P	01	LC	20445	57774	2021-01-22	E	pax
37778	37778	GOLD ROYALTY CORP	GROY	38071H106	1834026	1040	212220.0	P	01	LC	20700	58031	2021-03-09	E	groy
37778	37778	GOLD ROYALTY CORP	GROY	38071H106	1834026	1040	212220.0	P	01	LC	20700	58031	2021-03-09	E	groy-wt
37784	37784	HOME POINT CAPITAL INC	HMPT	43734L106	1830197	6162	522292.0	P	01	LC	20435	57748	2021-01-29	2023-08-31	hmpt
37785	37785	MONDEE HOLDINGS INC	MONDQ	465712107	1828852	4700	561510.0	P	02	LC	20820	57752	2021-03-19	E	mond
37785	37785	MONDEE HOLDINGS INC	MONDQ	465712107	1828852	4700	561510.0	P	02	LC	20820	57752	2021-03-19	E	mondw
37787	37787	ON24 INC	ONTF	68339B104	1110611	7370	519290.0	P	01	LC	20465	57795	2021-02-03	E	ontf
37790	37790	BUMBLE INC	BMBL	12047B105	1830043	7370	519290.0	P	01	LC	20471	57799	2021-02-11	E	bmbl
37810	37810	SONDER HOLDINGS INC	SOND	83542D300	1819395	7000	721310.0	P	02	LC	20801	57738	2021-03-15	E	sond
37810	37810	SONDER HOLDINGS INC	SOND	83542D300	1819395	7000	721310.0	P	02	LC	20801	57738	2021-03-15	E	sondw
37811	37811	SIGNIFY HEALTH INC	SGFY	82671G100	1828182	8082	621610.0	P	01	LC	20470	57798	2021-02-11	2023-03-31	sgfy
37812	37812	IMMUNOCORE HOLDINGS PLC	IMCR	45258D105	1671927	2836	325414.0	P	90	LC	20604	57944	2021-02-05	E	imcr
37813	37813	LUMIRADX LTD	LMDXF	G5709L109	1685428	3845	334510.0	P	01	LC	21941	58733	2021-09-29	2024-10-31	lmdx
37813	37813	LUMIRADX LTD	LMDXF	G5709L109	1685428	3845	334510.0	P	01	LC	21941	58733	2021-09-29	2024-10-31	lmdxw
37814	37814	CLOOPEN GROUP LTD -ADR	RAASY	18900M203	1804583	7370	518210.0	P	90	LC	20524	57857	2021-02-09	E	raas
37824	37824	VIANT TECHNOLOGY INC	DSP	92557A101	1828791	7370	518210.0	P	01	LC	20469	57797	2021-02-10	E	dsp
37826	37826	APRIA INC	APR	03836A101	1735803	8082	621610.0	P	01	LC	20568	57906	2021-02-11	2022-03-31	
37827	37827	PEAR THERAPEUTICS INC	PEARQ	704723105	1835567	7370	519290.0	C	02	LC	20879	57985	2021-03-25	2024-05-31	pear
37827	37827	PEAR THERAPEUTICS INC	PEARQ	704723105	1835567	7370	519290.0	C	02	LC	20879	57985	2021-03-25	2024-05-31	pearw
37840	37840	LUCIRA HEALTH INC	LHDXQ	54948U105	1652724	3845	334510.0	P	01	LC	20610	57954	2021-02-05	2023-10-05	lhdx
37851	37851	HIMS & HERS HEALTH INC	HIMS	433000106	1773751	2834	325412.0	P	01	LC	18938	56818	2021-01-21	E	hims
37856	37856	LOCAL BOUNTI CORP	LOCL	53960E205	1840780	100	111.0	P	03	LC	20999	57900	2021-04-19	E	locl
37856	37856	LOCAL BOUNTI CORP	LOCL	53960E205	1840780	100	111.0	P	03	LC	20999	57900	2021-04-19	E	locl-wt
37861	37861	CARLOTZ INC	LOTZ	142552108	1759008	5500	441120.0	P	01	LC	18546	56639	2021-01-22	2022-12-08	lotz
37861	37861	CARLOTZ INC	LOTZ	142552108	1759008	5500	441120.0	P	01	LC	18546	56639	2021-01-22	2022-12-08	lotzw
37871	37871	CORE SCIENTIFIC INC	CORZ	21874A106	1839341	7370	518210.0	P	05	LC	24698	57996	2024-01-24	E	corz
37871	37871	CORE SCIENTIFIC INC	CORZ	21874A106	1839341	7370	518210.0	P	05	LC	24698	57996	2024-01-24	E	corzw
37871	37871	CORE SCIENTIFIC INC	CORZ	21874A106	1839341	7370	518210.0	P	02	LC	21117	57996	2021-04-05	2022-12-30	corz
37871	37871	CORE SCIENTIFIC INC	CORZ	21874A106	1839341	7370	518210.0	P	02	LC	21117	57996	2021-04-05	2022-12-30	corzw
37872	37872	TALIS BIOMEDICAL CORP	TLIS	87424L207	1584751	2835	325413.0	P	01	LC	20633	57986	2021-02-12	E	tlis
37895	37895	COGNYTE SOFTWARE LTD	CGNT	M25133105	1824814	7372	513210.0	P	01	LC	20346	57675	2021-02-02	E	cgnt
37896	37896	AGRIFY CORP	AGFY	00853E404	1800637	3523	333111.0	P	01	LC	20412	57710	2021-01-28	E	agfy
37909	37909	INNOVID CORP	CTV	457679108	1835378	7310	541810.0	N	02	LC	20996	57898	2021-04-05	E	ctv
37909	37909	INNOVID CORP	CTV	457679108	1835378	7310	541810.0	N	02	LC	20996	57898	2021-04-05	E	ctv-wt
37946	37946	APPHARVEST INC	APPHQ	03783T103	1807707	100	111.0	P	01	LC	19480	57090	2021-02-01	2023-12-06	apph
37946	37946	APPHARVEST INC	APPHQ	03783T103	1807707	100	111.0	P	01	LC	19480	57090	2021-02-01	2023-12-06	apphw
37961	37961	DAVE INC	DAVE	23834J201	1841408	7370	518210.0	P	02	LC	20975	58048	2021-04-26	E	dave
37961	37961	DAVE INC	DAVE	23834J201	1841408	7370	518210.0	P	02	LC	20975	58048	2021-04-26	E	davew
37971	37971	IPOWER INC	IPW	46265P107	1830072	5961	444230.0	P	01	LC	21308	58296	2021-05-12	E	ipw
38001	38001	ADVENT TECHNOLOGIES HOLD INC	ADN	00788A204	1744494	3690	3359.0	P	01	LC	18302	56584	2021-02-05	E	adn
38001	38001	ADVENT TECHNOLOGIES HOLD INC	ADN	00788A204	1744494	3690	3359.0	P	01	LC	18302	56584	2021-02-05	E	adnww
38019	38019	OSCAR HEALTH INC	OSCR	687793109	1568651	6321	524114.0	P	01	LC	20646	57997	2021-03-03	E	oscr
38038	38038	SUN CONTY AIR HLD INC	SNCY	866683105	1743907	4512	481111.0	P	01	LC	20652	58002	2021-03-17	E	sncy
38041	38041	PAGAYA TECHNOLOGIES LTD	PGY	M7S64L123	1883085	7370	518210.0	P	02	LC	23194	59322	2022-06-23	E	pgy
38041	38041	PAGAYA TECHNOLOGIES LTD	PGY	M7S64L123	1883085	7370	518210.0	P	02	LC	23194	59322	2022-06-23	E	pgyww
38041	38041	PAGAYA TECHNOLOGIES LTD	PGY	M7S64L123	1883085	7370	518210.0	P	02	LC	21038	57928	2021-04-19	2022-06-22	pgy
38041	38041	PAGAYA TECHNOLOGIES LTD	PGY	M7S64L123	1883085	7370	518210.0	P	02	LC	21038	57928	2021-04-19	2022-06-22	pgyww
38050	38050	METROMILE INC	MILE	591697107	1819035	6331	524126.0	P	01	LC	19970	57349	2021-02-10	2022-07-29	
38053	38053	ADVANCED FLOWER CAPITAL INC	AFCG	00109K105	1822523	6798	525990.0	P	01	LC	20764	58075	2021-03-19	E	afcg
38065	38065	PLBY GROUP INC	PLBY	72814P109	1803914	2300	315.0	P	01	LC	19644	57124	2021-02-11	E	plby
38073	38073	QUALTEK SERVICES INC	QTEKQ	74760R303	1839412	1623	237130.0	P	03	LC	20869	58151	2021-03-22	2023-07-31	qtek
38073	38073	QUALTEK SERVICES INC	QTEKQ	74760R303	1839412	1623	237130.0	P	03	LC	20869	58151	2021-03-22	2023-07-31	qtekw
38075	38075	FLORA GRWT CORP	FLGC	339764201	1790169	2833	325411.0	P	01	LC	21289	58290	2021-05-11	E	flgc
38077	38077	COMSOVEREIGN HOLDING CORP	COMS	205650401	1178727	3663	334220.0	P	01	LC	20421	57722	2021-01-22	E	coms
38077	38077	COMSOVEREIGN HOLDING CORP	COMS	205650401	1178727	3663	334220.0	P	01	LC	20421	57722	2021-01-22	E	comsp
38077	38077	COMSOVEREIGN HOLDING CORP	COMS	205650401	1178727	3663	334220.0	P	01	LC	20421	57722	2021-01-22	E	comsw
38079	38079	BUTTERFLY NETWORK INC	BFLY	124155102	1804176	3845	334510.0	P	01	LC	19533	57079	2021-02-16	E	bfly
38079	38079	BUTTERFLY NETWORK INC	BFLY	124155102	1804176	3845	334510.0	P	01	LC	19533	57079	2021-02-16	E	bfly-wt
38081	38081	JOANN INC	JOANQ	47768J101	1834585	5940	459130.0	P	01	LC	20823	58121	2021-03-12	2024-04-30	joan
38087	38087	SOUNDHOUND AI INC	SOUN	836100107	1840856	7372	513210.0	P	04	LC	23054	58080	2022-04-28	E	soun
38087	38087	SOUNDHOUND AI INC	SOUN	836100107	1840856	7372	513210.0	P	04	LC	23054	58080	2022-04-28	E	sounw
38092	38092	COUPANG INC	CPNG	22266T109	1834584	5961	455110.0	P	01	LC	20682	58024	2021-03-11	E	cpng
38100	38100	NEXTDOOR HOLDINGS INC	KIND	65345M108	1846069	7370	519290.0	P	01	LC	20832	58125	2021-04-30	E	kind
38107	38107	AURORA INNOVATION INC	AUR	051774107	1828108	7372	513210.0	P	02	LC	21331	58152	2021-05-06	E	aur
38107	38107	AURORA INNOVATION INC	AUR	051774107	1828108	7372	513210.0	P	02	LC	21331	58152	2021-05-06	E	aurow
38109	38109	GROVE COLLABORATIVE HLDG INC	GROV	39957D201	1841761	5961	455219.0	P	02	LC	21260	58067	2021-05-13	E	grov
38109	38109	GROVE COLLABORATIVE HLDG INC	GROV	39957D201	1841761	5961	455219.0	P	02	LC	21260	58067	2021-05-13	E	grov-wt
38125	38125	HAYWARD HOLDINGS INC	HAYW	421298100	1834622	3590	333996.0	P	01	LC	20649	58000	2021-03-12	E	hayw
38132	38132	TERRAN ORBITAL CORP	LLAP	88105P103	1835512	3663	334220.0	P	02	LC	21002	58062	2021-04-23	2024-10-31	llap
38132	38132	TERRAN ORBITAL CORP	LLAP	88105P103	1835512	3663	334220.0	P	02	LC	21002	58062	2021-04-23	2024-10-31	llap-wt
38160	38160	DUCKHORN PORTFOLIO INC (THE)	NAPA	26414D106	1835256	2084	312130.0	P	01	LC	20654	58004	2021-03-18	2024-12-31	napa
38174	38174	INNOVAGE HOLD CORP	INNV	45784A104	1834376	8090	6219.0	P	01	LC	20647	57998	2021-03-04	E	innv
38181	38181	SENDAS DISTRIBUIDORA S.A.	ASAIY	81689T104	1834048	5411	445110.0	P	90	LC	20728	58044	2021-03-08	E	asai
38188	38188	DIGITALOCEAN HOLDINGS INC	DOCN	25402D102	1582961	7370	519290.0	P	01	LC	20656	58006	2021-03-24	E	docn
38198	38198	CHARGEPOINT HOLDINGS INC	CHPT	15961R105	1777393	7500	811198.0	P	01	LC	18937	56815	2021-03-01	E	chpt
38212	38212	APPLOVIN CORP	APP	03831W108	1751008	7372	513210.0	P	01	LC	20894	58169	2021-04-15	E	app
38237	38237	HAGERTY INC	HGTY	405166109	1840776	6331	524126.0	P	02	LC	21361	58176	2021-06-01	E	hgty
38237	38237	HAGERTY INC	HGTY	405166109	1840776	6331	524126.0	P	02	LC	21361	58176	2021-06-01	E	hgty-wt
38238	38238	ALIGNMENT HEALTHCARE INC	ALHC	01625V104	1832466	6324	524114.0	P	01	LC	20661	58011	2021-03-26	E	alhc
38265	38265	COURSERA INC	COUR	22266M104	1651562	8200	611410.0	P	01	LC	20681	58023	2021-03-31	E	cour
38271	38271	VIEW INC	VIEWQ	92671V304	1811856	3211	327211.0	P	01	LC	19955	57228	2021-03-09	2024-05-31	view
38271	38271	VIEW INC	VIEWQ	92671V304	1811856	3211	327211.0	P	01	LC	19955	57228	2021-03-09	2024-05-31	vieww
38282	38282	FRONTIER GRP HOLD INC	ULCC	35909R108	1670076	4512	481111.0	P	01	LC	20891	58166	2021-04-01	E	ulcc
38285	38285	OLO INC	OLO	68134L109	1431695	7370	519290.0	P	01	LC	20653	58003	2021-03-17	E	olo
38288	38288	VACASA INC	VCSA	91854V206	1874944	7000	721.0	P	01	LC	22610	59106	2021-12-07	E	vcsa
38288	38288	VACASA INC	VCSA	91854V206	1874944	7000	721.0	P	01	LC	21001	58190	2021-04-09	2021-12-06	vcsa
38329	38329	ALKAMI TECHNOLOGY INC	ALKT	01644J108	1529274	7370	518210.0	P	01	LC	21017	58194	2021-04-14	E	alkt
38339	38339	EBET INC	EBET	278700208	1829966	7990	713290.0	P	01	LC	21036	58199	2021-04-15	E	ebet
38343	38343	OUSTER INC	OUST	68989M202	1816581	3829	334519.0	P	01	LC	19928	57217	2021-03-12	E	oust
38343	38343	OUSTER INC	OUST	68989M202	1816581	3829	334519.0	P	01	LC	19928	57217	2021-03-12	E	oust-wt
38357	38357	AEVA TECHNOLOGIES INC	AEVA	00835Q202	1789029	3829	334519.0	P	01	LC	19224	57014	2021-03-15	E	aeva
38357	38357	AEVA TECHNOLOGIES INC	AEVA	00835Q202	1789029	3829	334519.0	P	01	LC	19224	57014	2021-03-15	E	aeva-wt
38368	38368	TUYA INC	TUYA	90114C107	1829118	7370	519290.0	P	90	LC	20733	58047	2021-03-18	E	tuya
38374	38374	ACV AUCTIONS INC	ACVA	00091G104	1637873	5010	423110.0	P	01	LC	20657	58007	2021-03-24	E	acva
38398	38398	DIVERSEY HOLDINGS LTD	DSEY	G28923103	1831617	2840	3256.0	P	01	LC	20784	58092	2021-03-25	2023-07-31	dsey
38403	38403	SEMRUSH HOLD INC	SEMR	81686C104	1831840	7370	518210.0	P	01	LC	20727	58043	2021-03-25	E	semr
38412	38412	DOUBLEVERIFY HOLD INC	DV	25862V105	1819928	7372	513210.0	P	01	LC	20920	58180	2021-04-21	E	dv
38418	38418	THREDUP INC	TDUP	88556E102	1484778	5961	459510.0	P	01	LC	20663	58013	2021-03-26	E	tdup
38422	38422	CONNECT BIO HLD LTD - ADS	CNTB	207523101	1835268	2836	325414.0	P	90	LC	20776	58085	2021-03-19	E	cntb
38447	38447	KNOWBE4 INC	KNBE	49926T104	1664998	7370	518210.0	P	01	LC	20899	58172	2021-04-22	2023-02-28	knbe
38461	38461	AGILON HEALTH INC	AGL	00857U107	1831097	8090	6219.0	P	01	LC	20893	58168	2021-04-15	E	agl
38462	38462	NUVVE HOLDING CORP	NVVE	67079Y308	1836875	3620	335.0	P	01	LC	19352	57028	2021-03-23	E	nvve
38462	38462	NUVVE HOLDING CORP	NVVE	67079Y308	1836875	3620	335.0	P	01	LC	19352	57028	2021-03-23	E	nvvew
38463	38463	OLINK HOLDING AB (PUBL)	OLK	680710100	1835539	3826	334516.0	P	90	LC	20855	58144	2021-03-25	2024-07-31	olk
38465	38465	SKYWATER TECH INC	SKYT	83089J108	1819974	3674	334413.0	P	01	LC	21096	58219	2021-04-21	E	skyt
38488	38488	COMPASS INC	COMP	20464U100	1563190	6531	531210.0	P	01	LC	20916	58179	2021-04-01	E	comp
38491	38491	KALTURA INC	KLTR	483467106	1432133	7370	518210.0	P	01	LC	21737	58579	2021-07-21	E	kltr
38493	38493	ZYMERGEN INC	ZY	98985X100	1645842	3679	334419.0	P	01	LC	20900	58173	2021-04-22	2022-10-31	zy
38498	38498	ARRIVAL	ARVLF	L0423Q124	1835059	3713	336211.0	P	01	LC	19230	56969	2021-03-25	2024-01-29	arvl
38507	38507	NEUROPACE INC	NPCE	641288105	1528287	3841	339112.0	P	01	LC	21081	58213	2021-04-22	E	npce
38514	38514	ZHIHU INC	ZH	98955N207	1835724	7370	519290.0	P	90	LC	20737	58050	2021-03-26	E	zh
38527	38527	AKOYA BIOSNCS INC	AKYA	00974H104	1711933	3826	334516.0	P	01	LC	21016	58193	2021-04-16	E	akya
38538	38538	SMART SHARE GLOBAL LTD -ADS	EM	83193E102	1834253	7359	532490.0	P	90	LC	21041	58201	2021-04-01	E	em
38545	38545	PAYSAFE LTD	PSFE	G6964L206	1833835	7389	522320.0	P	01	LC	20754	58058	2021-03-31	E	psfe
38545	38545	PAYSAFE LTD	PSFE	G6964L206	1833835	7389	522320.0	P	01	LC	20754	58058	2021-03-31	E	psfe-wt
38558	38558	TREACE MEDIC CNCPTS INC	TMCI	89455T109	1630627	3842	339113.0	P	01	LC	21105	58222	2021-04-23	E	tmci
38576	38576	LATHAM GROUP INC	SWIM	51819L107	1833197	3949	339920.0	P	01	LC	20902	58175	2021-04-23	E	swim
38585	38585	VECTIVBIO HOLDING AG	VECT	H9060V101	1836379	2836	325414.0	P	01	LC	21112	58228	2021-04-09	2023-07-31	vect
38590	38590	INNOVIZ TECHNOLOGIES LTD	INVZ	M5R635108	1835654	3829	334519.0	P	01	LC	21066	58207	2021-04-06	E	invz
38590	38590	INNOVIZ TECHNOLOGIES LTD	INVZ	M5R635108	1835654	3829	334519.0	P	01	LC	21066	58207	2021-04-06	E	invzw
38594	38594	PRIVIA HEALTH GROUP INC	PRVA	74276R102	1759655	8011	621111.0	P	01	LC	21087	58215	2021-04-29	E	prva
38596	38596	TUSIMPLE HOLDINGS INC	TSPH	90089L108	1823593	4210	484110.0	P	01	LC	20895	58170	2021-04-15	E	tsp
38598	38598	AST SPACEMOBILE INC	ASTS	00217D100	1780312	4899	517410.0	P	01	LC	19076	56891	2021-04-07	E	asts
38598	38598	AST SPACEMOBILE INC	ASTS	00217D100	1780312	4899	517410.0	P	01	LC	19076	56891	2021-04-07	E	astsw
38618	38618	FINANCE OF AMERICA COMPANIES	FOA	31738L206	1828937	6162	522292.0	P	01	LC	20927	58182	2021-04-05	E	foa
38618	38618	FINANCE OF AMERICA COMPANIES	FOA	31738L206	1828937	6162	522292.0	P	01	LC	20927	58182	2021-04-05	E	foa-wt
38632	38632	I-80 GOLD CORP	IAUX	44955L106	1853962	1040	212220.0	P	01	LC	23081	59282	2022-05-19	E	iaux
38634	38634	FIVE STAR BANCORP	FSBC	33830T103	1275168	6020	522110.0	P	01	LC	21294	58291	2021-05-05	E	fsbc
38635	38635	HONEST CO INC (THE)	HNST	438333106	1530979	2844	325620.0	P	01	LC	21118	58230	2021-05-05	E	hnst
38645	38645	GLOBAL-E ONLINE LTD	GLBE	M5216V106	1835963	5961	455.0	P	01	LC	21301	58295	2021-05-12	E	glbe
38646	38646	UIPATH INC	PATH	90364P105	1734722	7372	511210.0	P	01	LC	20972	58186	2021-04-21	E	path
38647	38647	TASKUS INC	TASK	87652V109	1829864	7374	518210.0	P	01	LC	21350	58318	2021-06-11	E	task
38662	38662	SIMILARWEB LTD	SMWB	M84137104	1842731	7370	518210.0	P	01	LC	21261	58273	2021-05-12	E	smwb
38673	38673	FTC SOLAR INC	FTCI	30320C301	1828161	3600	335999.0	P	01	LC	21051	58202	2021-04-28	E	ftci
38674	38674	IPI LEGACY LIQUIDATION CO	IMPLQ	45258K109	1445499	2834	325412.0	P	01	LC	21065	58206	2021-04-23	2024-04-08	impl
38676	38676	OATLY GROUP AB	OTLY	67421J207	1843586	2020	3115.0	P	90	LC	21324	58305	2021-05-20	E	otly
38681	38681	GENIUS SPORTS LTD	GENI	G3934V109	1834489	7370	516210.0	P	01	LC	20991	58188	2021-04-21	E	geni
38681	38681	GENIUS SPORTS LTD	GENI	G3934V109	1834489	7370	516210.0	P	01	LC	20991	58188	2021-04-21	E	geni-wt
38687	38687	ATAI LIFE SCIENCES N V	ATAI	N0731H103	1840904	2834	325412.0	P	01	LC	21516	58429	2021-06-18	E	atai
38688	38688	AVEANNA HCARE HOLD INC	AVAH	05356F105	1832332	8082	621610.0	P	01	LC	21026	58195	2021-04-29	E	avah
38697	38697	RAIN ONCOLOGY INC	RAIN.3	75082Q105	1724979	2834	325412.0	P	01	LC	21089	58216	2021-04-23	2024-01-31	rain
38707	38707	PAYCOR HCM INC	PYCR	70435P102	1839439	7370	518210.0	P	01	LC	21600	58505	2021-07-21	E	pycr
38708	38708	ZETA GLOBAL HOLDINGS CORP	ZETA	98956A105	1851003	7370	518210.0	P	01	LC	21349	58317	2021-06-10	E	zeta
38717	38717	23ANDME HOLDING CO	MEHCQ	90138Q306	1804591	8071	621511.0	P	01	LC	20134	57415	2021-06-17	E	me
38722	38722	STEM INC	STEM	85859N102	1758766	7389	561990.0	P	01	LC	19919	57213	2021-04-29	E	stem
38723	38723	ZENVIA INC	ZENV	G9889V101	1836934	7372	513210.0	P	01	LC	21788	58619	2021-07-22	E	zenv
38735	38735	WATERDROP INC	WDH	94132V105	1823986	6411	524210.0	P	90	LC	21249	58270	2021-05-07	E	wdh
38736	38736	SQUARESPACE INC	SQSP	85225A107	1496963	7370	518210.0	P	01	LC	21121	58232	2021-05-19	2024-10-31	sqsp
38739	38739	FLYWIRE CORP	FLYW	302492103	1580560	7374	518210.0	P	01	LC	21122	58233	2021-05-26	E	flyw
38744	38744	ZIPRECRUITER INC	ZIP	98980B103	1617553	7370	519290.0	P	01	LC	21125	58236	2021-05-26	E	zip
38747	38747	PAYMENTUS HOLDINGS INC	PAY	70439P108	1841156	7374	518210.0	P	01	LC	21123	58234	2021-05-26	E	pay
38748	38748	MERIDIANLINK INC	MLNK	58985J105	1834494	7370	518210.0	P	01	LC	21613	58514	2021-07-28	E	mlnk
38753	38753	ENACT HOLDINGS INC	ACT	29249E109	1823529	6351	524126.0	P	01	LC	21906	58704	2021-09-16	E	act
38754	38754	BOWMAN CONSLTG GRP LTD	BWMN	103002101	1847590	8711	541330.0	P	01	LC	21271	58281	2021-05-07	E	bwmn
38757	38757	VIMEO INC	VMEO	92719V100	1837686	7370	519290.0	P	01	LC	21120	58231	2021-05-25	E	vmeo
38764	38764	BLUE FOUNDRY BANCORP	BLFY	09549B104	1846017	6036	522180.0	P	01	LC	21703	58551	2021-07-16	E	blfy
38768	38768	BEAUTY HEALTH CO (THE)	SKIN	88331L108	1818093	3841	339112.0	P	01	LC	20181	57365	2021-05-06	E	skin
38770	38770	FIGS INC	FIGS	30260D103	1846576	2300	315.0	P	01	LC	21210	58258	2021-05-27	E	figs
38771	38771	DLOCAL LTD	DLO	G29018101	1846832	7374	518210.0	P	01	LC	21533	58441	2021-06-03	E	dlo
38773	38773	LION ELECTRIC CO (THE)	LEVGQ	536221104	1834974	3711	336120.0	P	01	LC	21222	58260	2021-05-07	E	lev
38773	38773	LION ELECTRIC CO (THE)	LEVGQ	536221104	1834974	3711	336120.0	P	01	LC	21222	58260	2021-05-07	E	lev-wt
38779	38779	BLADE AIR MOBILITY INC	BLDE	092667104	1779128	4522	481211.0	P	01	LC	19071	56889	2021-05-10	E	blde
38779	38779	BLADE AIR MOBILITY INC	BLDE	092667104	1779128	4522	481211.0	P	01	LC	19071	56889	2021-05-10	E	bldew
38806	38806	SINGULAR GENOM SYS INC	OMIC	82933R308	1850906	3826	334516.0	P	01	LC	21263	58276	2021-05-27	E	omic
38821	38821	ORGANON & CO	OGN	68622V106	1821825	2834	325412.0	P	01	LC	21124	58235	2021-06-03	E	ogn
38822	38822	MONDAY COM LTD	MNDY	M7S64H106	1845338	7370	518210.0	P	01	LC	21571	58479	2021-06-10	E	mndy
38824	38824	1STDIBS.COM INC	DIBS	320551104	1600641	5961	454110.0	P	01	LC	21529	58439	2021-06-10	E	dibs
38827	38827	GLIMPSE GROUP INC(THE)	VRAR	37892C106	1854445	7371	541511.0	P	01	LC	21786	58616	2021-07-01	E	vrar
38832	38832	MARQETA INC	MQ	57142B104	1522540	7374	518210.0	P	01	LC	21345	58315	2021-06-09	E	mq
38834	38834	LIFESTAN HLTH GRP INC	LFST	53228F101	1845257	8093	621420.0	P	01	LC	21348	58316	2021-06-10	E	lfst
38835	38835	WALKME LTD	WKME	M97628107	1847584	7370	518210.0	P	01	LC	21592	58496	2021-06-16	2024-09-30	wkme
38845	38845	BLUE OWL CAPITAL INC	OWL	09581B103	1823945	6799	523940.0	P	01	LC	20269	57399	2021-05-20	E	owl
38856	38856	NEUEHEALTH INC	NEUE	10920V404	1671284	6324	524114.0	P	01	LC	21369	58332	2021-06-24	E	bhg
38862	38862	KANZHUN LIMITED	BZ	48553T106	1842827	7361	561311.0	P	90	LC	21525	58435	2021-06-11	E	bz
38868	38868	CONVEY HEALTH SOL HLDNGS INC	CNVY	21258C108	1787640	7370	518210.0	P	01	LC	21373	58335	2021-06-16	2022-10-31	cnvy
38870	38870	CORE & MAIN INC	CNM	21874C102	1856525	5070	4237.0	P	01	LC	21607	58510	2021-07-23	E	cnm
38909	38909	FULL TRUCK ALLIANCE CO LTD	YMM	35969L108	1838413	7370	519290.0	P	90	LC	21401	58340	2021-06-22	E	ymm
38915	38915	SPRINKLR INC	CXM	85208T107	1569345	7370	518210.0	P	01	LC	21353	58321	2021-06-23	E	cxm
38916	38916	SOFI TECHNOLOGIES INC	SOFI	83406F102	1818874	6141	522291.0	P	01	LC	20067	57411	2021-06-01	E	sofi
38923	38923	TELESIS BIO INC	TBIO	192003200	1850079	3826	334516.0	P	01	LC	21538	58446	2021-06-18	E	dnay
38924	38924	EVERCOMMERCE INC	EVCM	29977X105	1853145	7370	518210.0	P	01	LC	21713	58562	2021-07-01	E	evcm
38927	38927	DOXIMITY INC	DOCS	26622P107	1516513	7370	519290.0	P	01	LC	21357	58323	2021-06-24	E	docs
38928	38928	D MARKET ELEKTRONIK HIZMETLE	HEPS	23292B104	1850235	5961	449210.0	P	90	LC	21722	58569	2021-07-01	E	heps
38929	38929	ATRENEW INC  -ADR	RERE	00138L108	1838957	5961	449210.0	P	90	LC	21360	58326	2021-06-18	E	rere
38931	38931	CONFLUENT INC	CFLT	20717M103	1699838	7372	511210.0	P	01	LC	21358	58324	2021-06-24	E	cflt
38932	38932	NEXTNRG INC	NXXT	652941105	1817004	5900	457210.0	P	01	LC	21930	58720	2021-09-15	E	ezfl
38936	38936	MISTER CAR WASH INC	MCW	60646V105	1853513	7500	811192.0	P	01	LC	21359	58325	2021-06-25	E	mcw
38937	38937	BARK INC	BARK	68622E104	1819574	5961	459120.0	P	01	LC	20238	57542	2021-06-02	E	bark
38937	38937	BARK INC	BARK	68622E104	1819574	5961	459120.0	P	01	LC	20238	57542	2021-06-02	E	bark-wt
38946	38946	POWERSCHOOL HOLDINGS INC	PWSC	73939C106	1835681	7370	518210.0	P	01	LC	21612	58513	2021-07-28	2024-10-31	pwsc
38949	38949	CANO HEALTH INC	CANOQ	13781Y202	1800682	8062	622110.0	P	01	LC	19539	57080	2021-06-04	2024-02-02	cano
38949	38949	CANO HEALTH INC	CANOQ	13781Y202	1800682	8062	622110.0	P	01	LC	19539	57080	2021-06-04	2024-02-02	cano-wt
38952	38952	VINTAGE WINE ESTATES INC	VWESQ	92747V106	1834045	2084	312130.0	P	01	LC	20580	57917	2021-06-08	E	vwe
38952	38952	VINTAGE WINE ESTATES INC	VWESQ	92747V106	1834045	2084	312130.0	P	01	LC	20580	57917	2021-06-08	E	vweww
38953	38953	LATCH INC	LTCH	51818V106	1826000	7370	518210.0	P	01	LC	20330	57581	2021-06-07	E	ltch
38953	38953	LATCH INC	LTCH	51818V106	1826000	7370	518210.0	P	01	LC	20330	57581	2021-06-07	E	ltchw
38954	38954	CLEAR SECURE INC	YOU	18467V109	1856314	7370	518210.0	P	01	LC	21372	58333	2021-06-30	E	you
38960	38960	QUANTUM SI INC	QSI	74765K105	1816431	3826	334516.0	P	01	LC	19952	57337	2021-06-11	E	qsi
38960	38960	QUANTUM SI INC	QSI	74765K105	1816431	3826	334516.0	P	01	LC	19952	57337	2021-06-11	E	qsiaw
38961	38961	JANUS INTERNATIONL GROUP INC	JBI	47103N106	1839839	3442	332321.0	P	01	LC	21409	58342	2021-06-08	E	jbi
38967	38967	CAREMAX INC	CMAXQ	14171W202	1813914	8011	621111.0	P	01	LC	19824	57168	2021-06-09	E	cmax
38967	38967	CAREMAX INC	CMAXQ	14171W202	1813914	8011	621111.0	P	01	LC	19824	57168	2021-06-09	E	cmaxw
38969	38969	DINGDONG (CAYMAN) LIMITED	DDL	25445D101	1854545	5961	455110.0	P	90	LC	21379	58337	2021-06-29	E	ddl
38978	38978	KATAPULT HOLDINGS INC	KPLT	485859201	1785424	6141	522220.0	P	01	LC	19135	56945	2021-06-10	E	kplt
38978	38978	KATAPULT HOLDINGS INC	KPLT	485859201	1785424	6141	522220.0	P	01	LC	19135	56945	2021-06-10	E	kpltw
38979	38979	NAUTILUS BIOTECHNOLOGY INC	NAUT	63909J108	1808805	8731	541715.0	P	01	LC	19620	57224	2021-06-10	E	naut
38981	38981	UPHEALTH INC	UPHL	91532B200	1770141	8090	621999.0	C	01	LC	18802	56781	2023-11-21	2023-12-11	uph
38981	38981	UPHEALTH INC	UPHL	91532B200	1770141	8090	621999.0	C	01	LC	18802	56781	2023-11-21	2023-12-11	uph-wt
38981	38981	UPHEALTH INC	UPHL	91532B200	1770141	8090	621999.0	C	01	LC	18802	56781	2021-06-10	2023-09-18	uph
38981	38981	UPHEALTH INC	UPHL	91532B200	1770141	8090	621999.0	C	01	LC	18802	56781	2021-06-10	2023-09-18	uph-wt
38995	38995	INDIE SEMICONDUCTOR INC	INDI	45569U101	1841925	3674	334413.0	P	01	LC	21556	58465	2021-06-11	E	indi
38995	38995	INDIE SEMICONDUCTOR INC	INDI	45569U101	1841925	3674	334413.0	P	01	LC	21556	58465	2021-06-11	E	indiw
39009	39009	PROTERRA INC	PTRAQ	74374T109	1820630	3711	336120.0	P	01	LC	20136	57329	2021-06-15	2024-03-28	ptra
39025	39025	WM TECHNOLOGY INC	MAPS	92971A109	1779474	7370	518210.0	P	01	LC	19025	56867	2021-06-16	E	maps
39025	39025	WM TECHNOLOGY INC	MAPS	92971A109	1779474	7370	518210.0	P	01	LC	19025	56867	2021-06-16	E	mapsw
39041	39041	DT MIDSTREAM INC	DTM	23345M107	1842022	4922	486210.0	P	01	LC	21356	58322	2021-07-01	E	dtm
39048	39048	FIRST ADVANTAGE CORP	FA	31846B108	1210677	7389	561499.0	P	01	LC	21352	58320	2021-06-23	E	fa
39051	39051	ALPHA TEKNOVA INC	TKNO	02080L102	1850902	2836	325414.0	P	01	LC	21586	58492	2021-06-25	E	tkno
39053	39053	LIVEVOX HOLDING INC	LVOX	53838L100	1723648	7370	518210.0	P	01	LC	18549	56675	2021-06-22	2023-12-29	lvox
39053	39053	LIVEVOX HOLDING INC	LVOX	53838L100	1723648	7370	518210.0	P	01	LC	18549	56675	2021-06-22	2023-12-29	lvoxu
39053	39053	LIVEVOX HOLDING INC	LVOX	53838L100	1723648	7370	518210.0	P	01	LC	18549	56675	2021-06-22	2023-12-29	lvoxw
39054	39054	PLAYSTUDIOS INC	MYPS	72815G108	1823878	7372	513210.0	P	01	LC	20277	57421	2021-06-22	E	myps
39054	39054	PLAYSTUDIOS INC	MYPS	72815G108	1823878	7372	513210.0	P	01	LC	20277	57421	2021-06-22	E	mypsw
39056	39056	BLEND LABS INC	BLND	09352U108	1855747	7370	518210.0	P	01	LC	21624	58519	2021-07-16	E	blnd
39059	39059	COUCHBASE INC	BASE	22207T101	1845022	7370	518210.0	P	01	LC	21701	58550	2021-07-22	E	base
39061	39061	F45 TRAINING HLDNGS INC	FXLV	30322L101	1788717	7990	713940.0	P	01	LC	21641	58520	2021-07-15	E	fxlv
39065	39065	XOMETRY INC	XMTR	98423F109	1657573	5961	444140.0	P	01	LC	21593	58497	2021-06-30	E	xmtr
39067	39067	RYAN SPECIALTY HOLDINGS INC	RYAN	78351F107	1849253	6411	5242.0	P	01	LC	21605	58508	2021-07-22	E	ryan
39068	39068	SOHO HOUSE & CO INC	SHCO	586001109	1846510	7011	721110.0	P	01	LC	21663	58524	2021-08-31	E	mcg
39069	39069	INTEGRAL AD SCIENCE HOL CORP	IAS	45828L108	1842718	7370	518210.0	P	01	LC	21554	58464	2021-06-30	E	ias
39070	39070	INTAPP INC	INTA	45827U109	1565687	7370	518210.0	P	01	LC	21559	58466	2021-06-30	E	inta
39077	39077	STEVANATO GROUP S P A	STVN	T9224W109	1849853	8731	541714.0	P	01	LC	21694	58543	2021-07-16	E	stvn
39078	39078	TALKSPACE INC	TALK	87427V103	1803901	8090	621999.0	P	01	LC	19556	57121	2021-06-23	E	talk
39078	39078	TALKSPACE INC	TALK	87427V103	1803901	8090	621999.0	P	01	LC	19556	57121	2021-06-23	E	talkw
39088	39088	BRIDGE INV GRP HLD INC	BRDG	10806B100	1854401	6200	523.0	P	01	LC	21598	58503	2021-07-16	E	brdg
39097	39097	ORIGIN MATERIALS INC	ORGN	68622D106	1802457	2821	325211.0	P	01	LC	19808	57162	2021-06-25	E	orgn
39097	39097	ORIGIN MATERIALS INC	ORGN	68622D106	1802457	2821	325211.0	P	01	LC	19808	57162	2021-06-25	E	orgnw
39098	39098	PERELLA WEINBERG PARTNERS	PWP	71367G102	1777835	6211	523150.0	P	01	LC	20146	57345	2021-06-25	E	pwp
39098	39098	PERELLA WEINBERG PARTNERS	PWP	71367G102	1777835	6211	523150.0	P	01	LC	20146	57345	2021-06-25	E	pwppw
39102	39102	SOMALOGIC INC	SLGC	83444K105	1837412	3841	339112.0	P	01	LC	21030	57921	2021-09-02	2024-01-31	slgc
39102	39102	SOMALOGIC INC	SLGC	83444K105	1837412	3841	339112.0	P	01	LC	21030	57921	2021-09-02	2024-01-31	slgcw
39103	39103	PAYONEER GLBL INC	PAYO	70451X104	1845815	7389	522320.0	P	01	LC	21576	58482	2021-06-28	E	payo
39103	39103	PAYONEER GLBL INC	PAYO	70451X104	1845815	7389	522320.0	P	01	LC	21576	58482	2021-06-28	E	payow
39111	39111	VTEX	VTEX	G9470A102	1793663	7370	519290.0	P	01	LC	21691	58540	2021-07-21	E	vtex
39112	39112	BEACHBODY CO INC (THE)	BODI	073463309	1826889	7200	812990.0	P	01	LC	20365	57540	2021-06-28	E	body
39112	39112	BEACHBODY CO INC (THE)	BODI	073463309	1826889	7200	812990.0	P	01	LC	20365	57540	2021-06-28	E	body-wt
39114	39114	IRONSOURCE LTD	IS	M5R75Y101	1837430	7370	519130.0	P	01	LC	21431	58354	2021-06-29	2022-11-30	is
39122	39122	DUOLINGO INC	DUOL	26603R106	1562088	8200	611630.0	P	01	LC	21614	58515	2021-07-28	E	duol
39124	39124	TABOOLA.COM LTD	TBLA	M8744T106	1840502	7370	519290.0	P	01	LC	21584	58490	2021-06-30	E	tbla
39124	39124	TABOOLA.COM LTD	TBLA	M8744T106	1840502	7370	519290.0	P	01	LC	21584	58490	2021-06-30	E	tblaw
39127	39127	CVRX INC	CVRX	126638105	1235912	3841	339112.0	P	01	LC	21527	58437	2021-07-01	E	cvrx
39127	39127	CVRX INC	CVRX	126638105	1235912	3841	339112.0	C	01	LC	21527	58437	2021-06-30	2021-06-30	cvrx
39136	39136	ASTRA SPACE INC	ASTR	04634X202	1814329	3760	336415.0	P	01	LC	19835	57239	2021-07-01	2024-07-31	astr
39156	39156	TORRID HOLDINGS INC	CURV	89142B107	1792781	5961	458110.0	P	01	LC	21683	58528	2021-07-01	E	curv
39157	39157	AVEPOINT INC	AVPT	053604104	1777921	7370	518210.0	P	01	LC	19064	56888	2021-07-02	E	avpt
39157	39157	AVEPOINT INC	AVPT	053604104	1777921	7370	518210.0	P	01	LC	19064	56888	2021-07-02	E	avptw
39158	39158	SHARECARE INC	SHCR	81948W104	1816233	7370	518210.0	P	01	LC	20145	57344	2021-07-02	2024-10-31	shcr
39158	39158	SHARECARE INC	SHCR	81948W104	1816233	7370	518210.0	P	01	LC	20145	57344	2021-07-02	2024-10-31	shcrw
39159	39159	EVGO INC	EVGO	30052F100	1821159	5500	457120.0	P	01	LC	20072	57299	2021-07-02	E	evgo
39159	39159	EVGO INC	EVGO	30052F100	1821159	5500	457120.0	P	01	LC	20072	57299	2021-07-02	E	evgow
39171	39171	SIGHT SCIENCES INC	SGHT	82657M105	1531177	3841	339112.0	P	01	LC	21764	58600	2021-07-15	E	sght
39182	39182	N-ABLE INC	NABL	62878D100	1834488	7370	519130.0	P	01	LC	21596	58501	2021-07-20	E	nabl
39184	39184	RXSIGHT INC	RXST	78349D107	1111485	3851	339115.0	P	01	LC	21762	58598	2021-07-30	E	rxst
39190	39190	RANI THERAPET HOLD INC	RANI	753018100	1856725	2836	325414.0	P	01	LC	21756	58591	2021-07-30	E	rani
39195	39195	SUNLIGHT FINANCIAL HOLDINGS	SUNLQ	86738J304	1821850	6141	522291.0	P	01	LC	20390	57547	2021-07-12	2023-09-25	sunl
39197	39197	ZEVIA PBC	ZVIA	98955K104	1854139	2086	312111.0	P	01	LC	21686	58532	2021-07-22	E	zvia
39199	39199	CS DISCO INC	LAW	126327105	1625641	7370	518210.0	P	01	LC	21601	58506	2021-07-21	E	law
39201	39201	WEBER INC	WEBR	94770D102	1857951	3630	335220.0	P	01	LC	21789	58621	2021-08-05	2023-02-28	webr
39202	39202	RAPID MICRO BIOSYSTEMS INC	RPID	75340L104	1380106	3826	334516.0	P	01	LC	21761	58597	2021-07-15	E	rpid
39215	39215	CADRE HOLDINGS INC	CDRE	12763L105	1860543	3480	332994.0	P	01	LC	22361	58998	2021-11-04	E	cdre
39225	39225	LEGALZOOM.COM INC	LZ	52466B103	1286139	8111	541110.0	P	01	LC	21564	58474	2021-07-01	E	lz
39225	39225	LEGALZOOM.COM INC	LZ	52466B103	1286139	8111	541110.0	C	01	LC	21564	58474	2021-06-30	2021-06-30	lz
39231	39231	WHEELS UP EXPERIENCE INC	UP	96328L205	1819516	4522	481211.0	P	01	LC	20115	57317	2021-07-14	E	up
39231	39231	WHEELS UP EXPERIENCE INC	UP	96328L205	1819516	4522	481211.0	P	01	LC	20115	57317	2021-07-14	E	up-wt
39246	39246	CYTEK BIOSCIENCES INC	CTKB	23285D109	1831915	8731	541714.0	P	01	LC	21606	58509	2021-07-23	E	ctkb
39248	39248	OUTBRAIN INC	OB	69002R103	1454938	7370	519290.0	P	01	LC	21749	58586	2021-07-23	E	ob
39250	39250	MARKFORGED HOLDING CORP	MKFG	57064N201	1816613	3555	333248.0	P	01	LC	19935	57220	2021-07-15	E	mkfg
39250	39250	MARKFORGED HOLDING CORP	MKFG	57064N201	1816613	3555	333248.0	P	01	LC	19935	57220	2021-07-15	E	mkfg-wt
39251	39251	ENOVIX CORP	ENVX	293594107	1828318	3690	335910.0	P	01	LC	20452	57654	2021-07-15	E	envx
39255	39255	OWLET INC	OWLT	69120X206	1816708	3827	333310.0	P	01	LC	20101	57310	2021-07-16	E	owlt
39255	39255	OWLET INC	OWLT	69120X206	1816708	3827	333310.0	P	01	LC	20101	57310	2021-07-16	E	owlt-wt
39263	39263	FINWISE BANCORP	FINW	31813A109	1856365	6020	522110.0	P	01	LC	22301	58941	2021-11-19	E	finw
39265	39265	HOLLEY INC	HLLY	43538H103	1822928	3714	336320.0	P	01	LC	20120	57405	2021-07-19	E	hlly
39265	39265	HOLLEY INC	HLLY	43538H103	1822928	3714	336320.0	P	01	LC	20120	57405	2021-07-19	E	empw
39265	39265	HOLLEY INC	HLLY	43538H103	1822928	3714	336320.0	P	01	LC	20120	57405	2021-07-19	E	hlly-wt
39273	39273	HYZON MOTORS INC	HYZN	44951Y201	1716583	3713	336211.0	P	01	LC	20290	57434	2021-07-19	E	hyzn
39273	39273	HYZON MOTORS INC	HYZN	44951Y201	1716583	3713	336211.0	P	01	LC	20290	57434	2021-07-19	E	hyznw
39276	39276	XPONENTIAL FITNESS INC	XPOF	98422X101	1802156	7990	713940.0	P	01	LC	21685	58531	2021-07-23	E	xpof
39278	39278	THORNE HEALTHTECH INC	THRN	885260109	1844280	2834	325412.0	P	01	LC	21967	58748	2021-09-23	2023-10-31	thrn
39280	39280	EVOLV TECHNOLOGIES HOLDINGS	EVLV	30049H102	1805385	3812	334511.0	P	01	LC	19838	57181	2021-07-19	E	evlv
39280	39280	EVOLV TECHNOLOGIES HOLDINGS	EVLV	30049H102	1805385	3812	334511.0	P	01	LC	19838	57181	2021-07-19	E	evlvw
39286	39286	SNAP ONE HOLDINGS CORP	SNPO	83303Y105	1856430	3651	334310.0	P	01	LC	21767	58601	2021-07-28	2024-06-28	snpo
39293	39293	ROBINHOOD MARKETS INC	HOOD	770700102	1783879	6211	523150.0	P	01	LC	21723	58570	2021-07-29	E	hood
39294	39294	SOPHIA GENETICS SA	SOPH	H82027105	1840706	7370	518210.0	P	01	LC	21771	58603	2021-07-23	E	soph
39295	39295	RISKIFIED LTD	RSKD	M8216R109	1851112	7370	518210.0	P	01	LC	21693	58542	2021-07-29	E	rskd
39301	39301	STRYVE FOODS INC	SNAX	863685202	1691936	2013	311612.0	P	01	LC	18461	56625	2021-07-21	E	snax
39301	39301	STRYVE FOODS INC	SNAX	863685202	1691936	2013	311612.0	P	01	LC	18461	56625	2021-07-21	E	snaxw
39306	39306	OPPFI INC	OPFI	68386H103	1818502	6141	522291.0	P	01	LC	20082	57303	2021-07-21	E	opfi
39306	39306	OPPFI INC	OPFI	68386H103	1818502	6141	522291.0	P	01	LC	20082	57303	2021-07-21	E	opfi-wt
39307	39307	ISOPLEXIS CORP	ISO	465005106	1615055	8731	541715.0	P	01	LC	22211	58862	2021-10-08	2023-03-31	iso
39309	39309	STAGWELL INC	STGW	85256A109	876883	7311	541810.0	P	01	LC	81527	30875	2021-08-03	E	stgw
39310	39310	VICTORIAS SECRET AND CO	VSCO	926400102	1856437	5621	458110.0	P	01	LC	21609	58512	2021-08-03	E	vsco
39311	39311	MARKETWISE INC	MKTW	57064P107	1805651	7370	519290.0	P	01	LC	19797	57156	2021-07-22	E	mktw
39311	39311	MARKETWISE INC	MKTW	57064P107	1805651	7370	519290.0	P	01	LC	19797	57156	2021-07-22	E	mktww
39312	39312	INSTRUCTURE HOLDINGS INC	INST	457790103	1841804	7370	519290.0	P	01	LC	21648	58522	2021-07-22	2024-11-29	inst
39316	39316	BERKSHIRE GREY INC	BGRY	084656107	1824734	3569	333998.0	P	01	LC	20621	57651	2021-07-22	2023-07-31	bgry
39316	39316	BERKSHIRE GREY INC	BGRY	084656107	1824734	3569	333998.0	P	01	LC	20621	57651	2021-07-22	2023-07-31	bgryw
39317	39317	TRAEGER INC	COOK	89269P103	1857853	3630	335220.0	P	01	LC	21684	58529	2021-07-29	E	cook
39319	39319	GXO LOGISTIC INC	GXO	36262G101	1852244	4731	541614.0	P	01	LC	21608	58511	2021-08-02	E	gxo
39321	39321	GENEDX HOLDINGS CORP	WGS	81663L200	1818331	8071	621511.0	P	01	LC	19956	57339	2021-07-23	E	smfr
39321	39321	GENEDX HOLDINGS CORP	WGS	81663L200	1818331	8071	621511.0	P	01	LC	19956	57339	2021-07-23	E	smfrw
39323	39323	MATTERPORT INC	MTTR	577096100	1819394	7370	519290.0	P	01	LC	20601	57630	2021-07-23	E	mttr
39325	39325	REE AUTOMOTIVE LTD	REE	M8287R202	1843588	3714	336390.0	P	01	LC	21757	58592	2021-07-23	E	ree
39325	39325	REE AUTOMOTIVE LTD	REE	M8287R202	1843588	3714	336390.0	P	01	LC	21757	58592	2021-07-23	E	reeaw
39337	39337	LUCID GROUP INC	LCID	549498103	1811210	3711	336110.0	P	01	LC	19751	57148	2021-07-26	E	lcid
39338	39338	MICROVAST HOLDINGS INC	MVST	59516C106	1760689	3690	336320.0	P	01	LC	18457	56681	2021-07-26	E	mvst
39338	39338	MICROVAST HOLDINGS INC	MVST	59516C106	1760689	3690	336320.0	P	01	LC	18457	56681	2021-07-26	E	mvstw
39354	39354	STRONGHOLD DIGITAL MININ INC	SDIG	86337R202	1856028	7372	513210.0	P	01	LC	22238	58890	2021-10-20	E	sdig
39357	39357	DOMA HOLDINGS INC	DOMA	25703A203	1722438	6361	524127.0	P	01	LC	20354	57595	2021-07-29	2024-09-30	doma
39357	39357	DOMA HOLDINGS INC	DOMA	25703A203	1722438	6361	524127.0	P	01	LC	20354	57595	2021-07-29	2024-09-30	doma-wt
39363	39363	RESERVOIR MEDIA INC	RSVR	76119X105	1824403	8900	512230.0	P	01	LC	20451	57653	2021-07-29	E	rsvr
39363	39363	RESERVOIR MEDIA INC	RSVR	76119X105	1824403	8900	512230.0	P	01	LC	20451	57653	2021-07-29	E	rsvrw
39365	39365	EUROPEAN WAX CENTER INC	EWCZ	29882P106	1856236	7200	812199.0	P	01	LC	21843	58661	2021-08-05	E	ewcz
39371	39371	CYXTERA TECHNOLOGIES INC	CYXTQ	23284C102	1794905	7370	518210.0	P	01	LC	20172	57359	2021-07-30	2024-01-31	cyxt
39377	39377	ROVER GROUP INC	ROVR	77936F103	1826018	700	812910.0	P	01	LC	20441	57645	2021-08-02	2024-02-29	rovr
39378	39378	CCC INTELLIGENT SOLUTIONS HL	CCCS	12510Q100	1818201	7370	518210.0	P	01	LC	19930	57218	2021-08-02	E	cccs
39386	39386	ARDAGH METAL PACKAGING S A	AMBP	L02235106	1845097	3411	332431.0	P	01	LC	21827	58638	2021-08-05	E	ambp
39386	39386	ARDAGH METAL PACKAGING S A	AMBP	L02235106	1845097	3411	332431.0	P	01	LC	21827	58638	2021-08-05	E	ambp-wt
39391	39391	HASHICORP INC	HCP	418100103	1720671	7370	518210.0	P	01	LC	22424	59023	2021-12-09	E	hcp
39406	39406	LI-CYCLE HOLDINGS CORP	LICYF	50202P204	1828811	4953	562920.0	P	01	LC	21809	58628	2021-08-11	E	licy
39418	39418	ROCKLEY PHOTONICS HLDING LTD	RKLYQ	G7614L109	1852117	3674	334413.0	P	01	LC	21826	58637	2021-08-12	2023-03-31	rkly
39418	39418	ROCKLEY PHOTONICS HLDING LTD	RKLYQ	G7614L109	1852117	3674	334413.0	P	01	LC	21826	58637	2021-08-12	2023-03-31	rkly-wt
39427	39427	MOMENTUS INC	MNTS	60879E309	1781162	3670	33641.0	P	01	LC	19146	56956	2021-08-13	E	mnts
39427	39427	MOMENTUS INC	MNTS	60879E309	1781162	3670	33641.0	P	01	LC	19146	56956	2021-08-13	E	mntsw
39435	39435	MICROMOBILITY.COM INC	MCOM	42309B600	1788841	7510	5321.0	P	01	LC	19136	56946	2021-08-16	2023-12-19	hlbz
39435	39435	MICROMOBILITY.COM INC	MCOM	42309B600	1788841	7510	5321.0	P	01	LC	19136	56946	2021-08-16	2023-12-19	hlbzw
39436	39436	URGENT.LY INC	ULY	916931207	1603652	7370	518210.0	P	01	LC	24493	59706	2023-10-19	E	
39436	39436	URGENT.LY INC	ULY	916931207	1603652	7370	518210.0	P	01	LC	21862	58671	2021-08-16	2023-10-18	
39442	39442	SPIRE GLOBAL INC	SPIR	848560306	1816017	7370	518210.0	P	01	LC	20094	57307	2021-08-17	E	spir
39442	39442	SPIRE GLOBAL INC	SPIR	848560306	1816017	7370	518210.0	P	01	LC	20094	57307	2021-08-17	E	spir-wt
39448	39448	AEYE INC	LIDR	008183204	1818644	3829	334519.0	P	01	LC	20419	57560	2021-08-18	E	lidr
39448	39448	AEYE INC	LIDR	008183204	1818644	3829	334519.0	P	01	LC	20419	57560	2021-08-18	E	lidrw
39453	39453	PROCEPT BIOROBTCS CORP	PRCT	74276L105	1588978	3841	339112.0	P	01	LC	21892	58694	2021-09-15	E	prct
39457	39457	SPORTRADAR GROUP AG	SRAD	H8088L103	1836470	7370	519290.0	P	01	LC	21964	58747	2021-09-14	E	srad
39472	39472	XOS INC	XOS	98423B306	1819493	3713	336211.0	P	01	LC	20310	57455	2021-08-20	E	xos
39472	39472	XOS INC	XOS	98423B306	1819493	3713	336211.0	P	01	LC	20310	57455	2021-08-20	E	xosww
39476	39476	DEFINITIVE HEALTH CORP	DH	24477E103	1861795	7370	519290.0	P	01	LC	21891	58693	2021-09-15	E	dh
39481	39481	ON HOLDING AG	ONON	H5919C104	1858985	3140	316210.0	P	01	LC	22077	58773	2021-09-15	E	onon
39482	39482	THOUGHTWORKS HOLDG INC	TWKS	88546E105	1866550	7371	541511.0	P	01	LC	21893	58695	2021-09-15	2024-11-29	twks
39483	39483	DUTCH BROS INC	BROS	26701L100	1866581	5812	722515.0	P	01	LC	21890	58692	2021-09-15	E	bros
39487	39487	FORGEROCK INC	FORG	34631B101	1543916	7370	54151.0	P	01	LC	21894	58696	2021-09-16	2023-08-31	forg
39500	39500	A.K.A. BRAND HOLD CORP	AKA	00152K200	1865107	5961	458110.0	P	01	LC	21975	58753	2021-09-22	E	aka
39502	39502	WARBY PARKER INC	WRBY	93403J106	1504776	5990	456130.0	P	01	LC	21905	58703	2021-09-29	E	wrby
39503	39503	ROCKET LAB USA INC	RKLB	773122106	1819994	3760	336414.0	P	01	LC	20178	57363	2021-08-25	E	rklb
39505	39505	SMARTRENT INC	SMRT	83193G107	1837014	3829	334519.0	P	01	LC	20599	57936	2021-08-25	E	smrt
39524	39524	TOAST INC	TOST	888787108	1650164	7389	522320.0	P	01	LC	21896	58698	2021-09-22	E	tost
39525	39525	HUMACYTE INC	HUMA	44486Q103	1818382	2836	325414.0	P	01	LC	20137	57330	2021-08-27	E	huma
39525	39525	HUMACYTE INC	HUMA	44486Q103	1818382	2836	325414.0	P	01	LC	20137	57330	2021-08-27	E	humaw
39526	39526	ENGAGESMART LLC	ESMT	29283F103	1863105	7370	518210.0	P	01	LC	22003	58758	2021-09-23	2024-01-31	esmt
39527	39527	WHITEHAWK THERAPEUTICS INC	WHWK	00032Q104	1422142	2836	325414.0	P	01	LC	17869	56397	2021-08-27	E	aadi
39533	39533	VOLTA INC	VLTA	92873V102	1819584	3620	335.0	P	01	LC	20128	57325	2021-08-27	2023-03-31	vlta
39533	39533	VOLTA INC	VLTA	92873V102	1819584	3620	335.0	P	01	LC	20128	57325	2021-08-27	2023-03-31	vlta-wt
39534	39534	CAZOO GROUP LTD	CZOOF	G2007L121	1859639	5961	441.0	P	01	LC	21794	58623	2021-08-27	2024-05-21	czoo
39534	39534	CAZOO GROUP LTD	CZOOF	G2007L121	1859639	5961	441.0	P	01	LC	21794	58623	2021-08-27	2024-05-21	czoo-wt
39535	39535	IRONNET INC	IRNTQ	46323Q105	1777946	7372	513210.0	P	01	LC	19295	56942	2021-08-27	2023-08-04	irnt
39535	39535	IRONNET INC	IRNTQ	46323Q105	1777946	7372	513210.0	P	01	LC	19295	56942	2021-08-27	2023-08-04	irnt-wt
39538	39538	CIPHER MINING INC	CIFR	17253J106	1819989	7372	513210.0	P	01	LC	20295	57441	2021-08-30	E	cifr
39538	39538	CIPHER MINING INC	CIFR	17253J106	1819989	7372	513210.0	P	01	LC	20295	57441	2021-08-30	E	cifrw
39539	39539	FRESHWORKS INC	FRSH	358054104	1544522	7370	519130.0	P	01	LC	21895	58697	2021-09-22	E	frsh
39540	39540	STERLING CHECK CORP	STER	85917T109	1645070	7389	561499.0	P	01	LC	21897	58699	2021-09-23	2024-11-29	ster
39542	39542	SOVOS BRANDS INC	SOVO	84612U107	1856608	2030	311999.0	P	01	LC	21962	58746	2021-09-23	2024-03-28	sovo
39544	39544	OLAPLEX HOLDINGS INC	OLPX	679369108	1868726	2844	325620.0	P	01	LC	21949	58737	2021-09-30	E	olpx
39546	39546	ALLBIRDS INC	BIRD	01675A208	1653909	3021	316210.0	P	01	LC	22260	58907	2021-11-03	E	bird
39547	39547	REMITLY GLOBAL INC	RELY	75960P104	1782170	7389	522320.0	P	01	LC	21957	58742	2021-09-23	E	rely
39550	39550	CELLEBRITE DI LTD	CLBT	M2197Q107	1854587	7370	519130.0	P	01	LC	21834	58652	2021-08-31	E	clbt
39550	39550	CELLEBRITE DI LTD	CLBT	M2197Q107	1854587	7370	519130.0	P	01	LC	21834	58652	2021-08-31	E	clbtw
39554	39554	CLEARWATER ANA HOL INC	CWAN	185123106	1866368	7370	519290.0	P	01	LC	21898	58700	2021-09-24	E	cwan
39555	39555	AMPLITUDE INC	AMPL	03213A104	1866692	7370	518210.0	P	01	LC	21904	58702	2021-09-28	E	ampl
39556	39556	BRILLIANT EARTH GP INC	BRLT	109504100	1866757	5944	458310.0	P	01	LC	21916	58712	2021-09-23	E	brlt
39561	39561	JACKSON FINANCIAL INC	JXN	46817M107	1822993	6311	524113.0	P	01	LC	22027	58765	2021-09-20	E	jxn
39563	39563	CUE HEALTH INC	HLTHQ	229790100	1628945	3841	339112.0	P	01	LC	21933	58726	2021-09-24	E	hlth
39570	39570	OFFERPAD SOLUTIONS INC	OPAD	67623L307	1825024	6531	531210.0	P	01	LC	20253	57395	2021-09-02	E	opad
39570	39570	OFFERPAD SOLUTIONS INC	OPAD	67623L307	1825024	6531	531210.0	P	01	LC	20253	57395	2021-09-02	E	opad-wt
39575	39575	CYNGN INC	CYN	23257B305	1874097	7370	518210.0	P	01	LC	22200	58843	2021-10-20	E	cyn
39595	39595	FIRST WATCH RESTAURA GRO INC	FWRG	33748L101	1789940	5812	722511.0	P	01	LC	22204	58853	2021-10-01	E	fwrg
39596	39596	TDCX INC -ADS	TDCX	87190U100	1803112	8742	541613.0	P	90	LC	22159	58805	2021-10-01	2024-06-28	tdcx
39621	39621	BLACKSKY TECHNOLOGY INC	BKSY	09263B207	1753539	7370	518210.0	P	01	LC	19114	56931	2021-09-10	E	bksy
39621	39621	BLACKSKY TECHNOLOGY INC	BKSY	09263B207	1753539	7370	518210.0	P	01	LC	19114	56931	2021-09-10	E	bksy-wt
39624	39624	TMC THE METALS CO INC	TMC	87261Y106	1798562	1000	2122.0	P	01	LC	19459	57081	2021-09-10	E	tmc
39624	39624	TMC THE METALS CO INC	TMC	87261Y106	1798562	1000	2122.0	P	01	LC	19459	57081	2021-09-10	E	tmcww
39636	39636	EXSCIENTIA PLC	EXAI	30223G102	1865408	2836	325414.0	P	90	LC	22203	58848	2021-10-01	2024-11-29	exai
39648	39648	LIFE TIME GRP HOLD INC	LTH	53190C102	1869198	7990	713940.0	P	01	LC	22079	58775	2021-10-07	E	lth
39651	39651	SYLVAMO CORP	SLVM	871332102	1856485	2621	322120.0	P	01	LC	21903	58701	2021-10-01	E	slvm
39656	39656	LILIUM N V	LILMF	N52586109	1855756	4522	481211.0	P	01	LC	21940	58732	2021-09-15	E	lilm
39656	39656	LILIUM N V	LILMF	N52586109	1855756	4522	481211.0	P	01	LC	21940	58732	2021-09-15	E	lilmw
39676	39676	IHS HOLDING LIMITED	IHS	G4701H109	1876183	4813	517311.0	P	01	LC	22169	58810	2021-10-14	E	ihs
39680	39680	GINKGO BIOWORKS HOLDINGS INC	DNA	37611X209	1830214	2836	325414.0	P	01	LC	21102	57981	2021-09-17	E	dna
39680	39680	GINKGO BIOWORKS HOLDINGS INC	DNA	37611X209	1830214	2836	325414.0	P	01	LC	21102	57981	2021-09-17	E	dna-wt
39684	39684	ENFUSION INC	ENFN	292812104	1868912	7370	518210.0	P	01	LC	22086	58780	2021-10-29	E	enfn
39685	39685	AVIDXCHANGE HOLDINGS INC	AVDX	05368X102	1858257	7389	522320.0	P	01	LC	22081	58777	2021-10-13	E	avdx
39687	39687	GITLAB INC	GTLB	37637K108	1653482	7370	518210.0	P	01	LC	22084	58778	2021-10-14	E	gtlb
39703	39703	NERDY INC	NRDY	64081V109	1819404	8200	611699.0	P	01	LC	20130	57413	2021-09-21	E	nrdy
39703	39703	NERDY INC	NRDY	64081V109	1819404	8200	611699.0	P	01	LC	20130	57413	2021-09-21	E	nrdy-wt
39712	39712	VICARIOUS SURGICAL INC	RBOT	92561V208	1812173	3845	334510.0	P	01	LC	19803	57157	2021-09-20	E	rbot
39712	39712	VICARIOUS SURGICAL INC	RBOT	92561V208	1812173	3845	334510.0	P	01	LC	19803	57157	2021-09-20	E	rbot-wt
39724	39724	ARBE ROBOTICS LTD	ARBE	M1R95N100	1861841	3812	334511.0	P	01	LC	22181	58825	2021-10-08	E	arbe
39724	39724	ARBE ROBOTICS LTD	ARBE	M1R95N100	1861841	3812	334511.0	P	01	LC	22181	58825	2021-10-08	E	arbew
39726	39726	ARIS WATER SOLUTIN INC	ARIS	04041L106	1865187	1389	213112.0	P	01	LC	22096	58786	2021-10-22	E	aris
39728	39728	LUCID DIAGNOSTICS INC	LUCD	54948X109	1799011	3845	334510.0	P	01	LC	22213	58865	2021-10-14	E	lucd
39734	39734	PARAGON 28 INC	FNA	69913P105	1531978	3842	339113.0	P	01	LC	22149	58802	2021-10-15	E	fna
39749	39749	VITA COCO COMPANY INC	COCO	92846Q107	1482981	2086	312111.0	P	01	LC	22199	58842	2021-10-21	E	coco
39750	39750	P10 INC	PX	69376K106	1841968	6282	523940.0	P	01	LC	22145	58801	2021-10-21	E	px
39751	39751	FLUENCE ENERGY INC	FLNC	34379V103	1868941	3690	335910.0	P	01	LC	22088	58782	2021-10-28	E	flnc
39752	39752	MONEYLION INC	ML	60938K304	1807846	6141	522291.0	P	01	LC	19592	57102	2021-09-23	E	ml
39752	39752	MONEYLION INC	ML	60938K304	1807846	6141	522291.0	P	01	LC	19592	57102	2021-09-23	E	ml-wt
39753	39753	MINERVA SURGICAL INC	UTRS	60343F205	1452965	3841	339112.0	C	01	LC	22252	58899	2021-10-22	2023-12-28	utrs
39756	39756	PORTILLO'S INC	PTLO	73642K106	1871509	5812	722513.0	P	01	LC	22085	58779	2021-10-21	E	ptlo
39774	39774	VENTYX BIOSCIENCES INC	VTYX	92332V107	1851194	2834	325412.0	P	01	LC	22256	58902	2021-10-21	E	vtyx
39783	39783	BENSON HILL INC	BHILQ	082490202	1830210	100	111.0	P	01	LC	20552	57693	2021-09-30	E	bhil
39783	39783	BENSON HILL INC	BHILQ	082490202	1830210	100	111.0	P	01	LC	20552	57693	2021-09-30	E	bhil-wt
39786	39786	VALENS SEMICONDUCTOR LTD	VLN	M9607U115	1863006	3674	334413.0	P	01	LC	22078	58774	2021-09-30	E	vln
39786	39786	VALENS SEMICONDUCTOR LTD	VLN	M9607U115	1863006	3674	334413.0	P	01	LC	22078	58774	2021-09-30	E	vln-wt
39787	39787	CONSENSUS CLOUD SOLUTION INC	CCSI	20848V105	1866633	7370	518210.0	P	01	LC	21922	58714	2021-10-08	E	ccsi
39791	39791	ROIVANT SCIENCES LTD	ROIV	G76279101	1635088	2836	325414.0	P	01	LC	22236	58884	2021-10-01	E	roiv
39791	39791	ROIVANT SCIENCES LTD	ROIV	G76279101	1635088	2836	325414.0	P	01	LC	22236	58884	2021-10-01	E	roivw
39804	39804	KORE GROUP HOLDINGS INC	KORE	50066V305	1855457	4812	517312.0	P	01	LC	22132	58797	2021-10-01	E	kore
39804	39804	KORE GROUP HOLDINGS INC	KORE	50066V305	1855457	4812	517312.0	P	01	LC	22132	58797	2021-10-01	E	kore-wt
39805	39805	ARTERIS INC	AIP	04302A104	1667011	7372	513210.0	P	01	LC	22177	58822	2021-10-27	E	aip
39810	39810	INFORMATICA INC	INFA	45674M101	1868778	7370	518210.0	P	01	LC	22087	58781	2021-10-27	E	infa
39811	39811	RIVIAN AUTOMOTIVE INC	RIVN	76954A103	1874178	3711	336110.0	P	01	LC	22265	58911	2021-11-10	E	rivn
39818	39818	UDEMY INC	UDMY	902685106	1607939	7370	519290.0	P	01	LC	22248	58897	2021-10-29	E	udmy
39819	39819	RENT THE RUNWAY INC	RENT	76010Y202	1468327	7200	532281.0	P	01	LC	22232	58882	2021-10-27	E	rent
39820	39820	ARHAUS INC	ARHS	04035M102	1875444	5712	449110.0	P	01	LC	22262	58908	2021-11-04	E	arhs
39822	39822	GLOBALFOUNDRIES INC	GFS	G39387108	1709048	3674	334413.0	P	01	LC	22206	58856	2021-10-28	E	gfs
39823	39823	SOLO BRANDS INC	DTC	83425V104	1870600	3630	3352.0	P	01	LC	22089	58783	2021-10-28	E	dtc
39830	39830	AIRSCULPT TECHNOLO INC	AIRS	009496100	1870940	8000	621399.0	P	01	LC	22178	58823	2021-10-29	E	airs
39831	39831	HIRERIGHT HOLDING CORP	HRT	433537107	1859285	7361	541612.0	P	01	LC	22115	58794	2021-11-01	2024-06-28	hrt
39850	39850	SCIENCE 37 HOLDINGS INC	SNCE	808644207	1819113	8731	541715.0	P	01	LC	20155	57570	2021-10-07	2024-03-28	snce
39867	39867	NERDWALLET INC	NRDS	64082B102	1625278	7370	519290.0	P	01	LC	22263	58909	2021-11-04	E	nrds
39877	39877	THE REAL GOOD FOOD CO INC	RGFC	75601G307	1871149	2030	311412.0	P	01	LC	22334	58975	2021-11-05	E	rgf
39882	39882	LULU'S FASHION LOUN HOLD INC	LVLU	55003A108	1780201	5961	455110.0	P	01	LC	22321	58960	2021-11-11	E	lvlu
39886	39886	USERTESTING INC	USER	91734E101	1557127	7370	519130.0	P	01	LC	22413	59011	2021-11-17	2023-01-31	user
39895	39895	EXPENSIFY INC	EXFY	30219Q106	1476840	7370	518210.0	P	01	LC	22266	58912	2021-11-10	E	exfy
39901	39901	CI&T INC	CINT	G21307106	1868995	7371	541511.0	P	01	LC	22418	59015	2021-11-10	E	cint
39907	39907	2SEVENTY BIO INC	TSVT	901384107	1860782	2836	325414.0	P	01	LC	22245	58896	2021-11-05	E	tsvt
39908	39908	LEGACY EJY INC	ENJYQ	29335V106	1830180	5731	443142.0	P	01	LC	20611	57640	2021-10-18	2022-07-08	enjyq
39908	39908	LEGACY EJY INC	ENJYQ	29335V106	1830180	5731	443142.0	P	01	LC	20611	57640	2021-10-18	2022-07-08	enjwq
39909	39909	BAKKT HOLDINGS INC	BKKT	05759B305	1820302	6200	523210.0	P	01	LC	20179	57364	2021-10-18	E	bkkt
39909	39909	BAKKT HOLDINGS INC	BKKT	05759B305	1820302	6200	523210.0	P	01	LC	20179	57364	2021-10-18	E	bkkt-wt
39910	39910	BACKBLAZE INC	BLZE	05637B105	1462056	7370	518210.0	P	01	LC	22287	58927	2021-11-11	E	blze
39914	39914	WEAVE COMMUNICATI INC	WEAV	94724R108	1609151	7370	518210.0	P	01	LC	22416	59012	2021-11-11	E	weav
39931	39931	NAVITAS SEMICONDUCTOR CORP	NVTS	63942X106	1821769	3674	334413.0	P	01	LC	20381	57600	2021-10-20	E	nvts
39935	39935	MIRION TECHNOLOGIES INC	MIR	60471A101	1809987	3829	334519.0	P	01	LC	19593	57103	2021-10-21	E	mir
39935	39935	MIRION TECHNOLOGIES INC	MIR	60471A101	1809987	3829	334519.0	P	01	LC	19593	57103	2021-10-21	E	mir-wt
39941	39941	JOURNEY MEDICAL CORPO	DERM	48115J109	1867066	2834	325412.0	P	01	LC	22296	58935	2021-11-12	E	derm
39942	39942	BRAZE INC	BRZE	10576N102	1676238	7370	519290.0	P	01	LC	22267	58914	2021-11-17	E	brze
39945	39945	SONO GROUP NV	SEVCF	N81409125	1840416	3714	336390.0	P	01	LC	22338	58976	2021-11-17	2023-07-20	sev
39960	39960	IREN LIMITED	IREN	Q4982L109	1878848	7374	518210.0	P	01	LC	22316	58950	2021-11-17	E	iren
39961	39961	SWEETGREEN INC	SG	87043Q108	1477815	5812	722513.0	P	01	LC	22268	58915	2021-11-18	E	sg
39962	39962	LOYALTY VENTURES INC	LYLTQ	54911Q107	1870997	7389	561499.0	P	01	LC	22214	58867	2021-11-08	2023-06-30	lylt
39963	39963	KYNDRYL HOLDINGS INC	KD	50155Q100	1867072	7370	5415.0	P	01	LC	22092	58784	2021-11-04	E	kd
39964	39964	CHICAGO ATLANTIC REA E F INC	REFI	167239102	1867949	6798	525990.0	P	01	LC	22595	59097	2021-12-08	E	refi
39997	39997	NU HOLDINGS LTD	NU	G6683N103	1691493	6020	522110.0	P	01	LC	22503	59045	2021-12-09	E	nu
40015	40015	LOTTERY COM INC	LTRY	54570M207	1673481	7990	713290.0	P	01	LC	17901	56379	2023-06-15	E	ltry
40015	40015	LOTTERY COM INC	LTRY	54570M207	1673481	7990	713290.0	P	01	LC	17901	56379	2023-06-15	E	ltryw
40015	40015	LOTTERY COM INC	LTRY	54570M207	1673481	7990	713290.0	P	01	LC	17901	56379	2021-11-01	2023-05-25	ltry
40015	40015	LOTTERY COM INC	LTRY	54570M207	1673481	7990	713290.0	P	01	LC	17901	56379	2021-11-01	2023-05-25	ltryw
40092	40092	ARCHER AVIATION INC	ACHR	03945R102	1824502	4522	481211.0	P	01	LC	20207	57377	2021-11-05	E	achr
40092	40092	ARCHER AVIATION INC	ACHR	03945R102	1824502	4522	481211.0	P	01	LC	20207	57377	2021-11-05	E	achr-wt
40108	40108	PERIMETER SOLUTIONS INC	PRM	71385M107	1880319	2810	325998.0	P	01	LC	22422	59021	2021-11-09	E	prm
40108	40108	PERIMETER SOLUTIONS INC	PRM	71385M107	1880319	2810	325998.0	P	01	LC	22422	59021	2021-11-09	E	prmff
40248	40248	ORION OFFICE REIT INC	ONL	68629Y103	1873923	6798	531120.0	P	01	LC	22264	58910	2021-11-15	E	onl
40292	40292	SAMSARA INC	IOT	79589L106	1642896	7370	518210.0	P	01	LC	22425	59024	2021-12-15	E	iot
40306	40306	PROFRAC HOLDING CORP	ACDC	74319N100	1881487	1389	213112.0	P	01	LC	23064	59278	2022-05-13	E	pfhc
40353	40353	RUNWAY GROWTH FINANCE CORP	RWAY	78163D100	1653384	6797	523910.0	P	01	LC	22237	58886	2021-12-01	E	rway
40353	40353	RUNWAY GROWTH FINANCE CORP	RWAY	78163D100	1653384	6797	523910.0	P	01	LC	22237	58886	2021-12-01	E	rwayl
40383	40383	CRESCENT ENERGY CO	CRGY	44952J104	1866175	1311	2111.0	P	01	LC	22423	59022	2021-12-08	E	crgy
40417	40417	DOUGLAS ELLIMAN INC	DOUG	25961D105	1878897	6531	531210.0	P	01	LC	22426	59025	2021-12-30	E	doug
40535	40535	TPG INC	TPG	872657101	1880661	6200	523999.0	P	01	LC	22618	59110	2022-01-13	E	tpg
40560	40560	EXCELERATE ENERGY INC	EE	30069T101	1888447	4922	486210.0	P	01	LC	22977	59248	2022-04-13	E	ee
40605	40605	BAUSCH & LOMB CORP	BLCO	071705107	1860742	3851	339115.0	P	01	LC	23071	59281	2022-05-06	E	blco
40614	40614	CONSTELLATION ENE CORP	CEG	21037T109	1868275	4911	22111.0	P	01	LC	22623	59113	2022-02-02	E	ceg
40758	40758	ZIMVIE INC	ZIMV	98888T107	1876588	3843	339114.0	P	01	LC	22757	59161	2022-03-01	E	zimv
41050	41050	EMBECTA CORP	EMBC	29082K105	1872789	3842	339113.0	P	01	LC	22879	59217	2022-04-01	E	embc
41059	41059	ESAB CORP	ESAB	29605J106	1877322	3540	333515.0	P	01	LC	22880	59218	2022-04-05	E	esab
41366	41366	ENHABIT INC	EHAB	29332G102	1803737	8082	621610.0	P	01	LC	23129	59303	2022-07-01	E	ehab
60800	60800	SINCLAIR INC	SBGI	829242106	1971213	4833	516120.0	P	01	LC	81740	13758	1995-06-07	E	
60801	60801	SOCKET MOBILE INC	SCKT	83368E200	944075	3663	334220.0	P	01	LC	81741	13759	2016-06-22	E	sckt
60801	60801	SOCKET MOBILE INC	SCKT	83368E200	944075	3663	334220.0	P	01	LC	81741	13759	1995-06-07	2012-07-27	sckt
60844	60844	CENTRAL PUERTO SA	CEPU	155038201	1717161	4931	2211.0	P	91	LC	17286	56254	2018-02-02	E	cepu
60900	60900	DISH NETWORK CORP	DISH	25470M109	1001082	4841	516210.0	P	01	LU	81696	13790	1995-06-21	2024-01-31	dish
60902	60902	HAWAIIAN HOLDINGS INC	HA	419879101	1172222	4512	481111.0	P	01	LU	81666	30898	1995-06-21	2024-09-30	ha
60911	60911	NATURAL HEALTH TRENDS CORP	NHTC	63888P406	912061	5122	424210.0	P	01	LC	81728	13796	2015-02-17	E	nhtc
60911	60911	NATURAL HEALTH TRENDS CORP	NHTC	63888P406	912061	5122	424210.0	P	01	LC	81728	13796	2005-02-22	2009-11-10	nhtc
60911	60911	NATURAL HEALTH TRENDS CORP	NHTC	63888P406	912061	5122	424210.0	P	01	LC	81728	13796	1995-06-26	2000-07-23	nhtc
60914	60914	LIFE STORAGE INC	LSI	53223X107	944314	6798	531130.0	P	01	LU	81675	30909	1995-06-21	2023-07-31	lsi
60923	60923	DAVE & BUSTER'S ENTMT INC	PLAY	238337109	1525769	7990	713990.0	P	01	LC	81695	13801	1995-06-30	2006-03-08	play
60923	60923	DAVE & BUSTER'S ENTMT INC	PLAY	238337109	1525769	7990	713990.0	P	03	LC	15014	55082	2014-10-10	E	play
60931	60931	GLOBAL INDUSTRIAL CO	GIC	37892E102	945114	5090	4239.0	P	01	LC	81665	30897	1995-06-27	E	gic
60979	60979	WABTEC CORP	WAB	929740108	943452	3743	336510.0	P	01	LU	81677	30913	1995-06-16	E	wab
60983	60983	AMERICAN RIVER BANKSHARES	AMRB	029326105	1108236	6020	522110.0	P	01	LC	88719	40193	2000-10-26	2021-08-31	
61004	61004	ACACIA RESEARCH CORP	ACTG	003881307	934549	6794	533110.0	P	01	LC	89611	14801	2002-12-16	E	actg
61004	61004	ACACIA RESEARCH CORP	ACTG	003881307	934549	6794	533110.0	P	01	LC	83730	14801	1996-07-08	2002-12-13	actg
61028	61028	CLIMB GLOBAL SOLUTIONS INC	CLMB	946760105	945983	5045	423430.0	P	01	LU	81893	13852	1995-07-18	E	wstg
61034	61034	TEEKAY CORPORATION LTD	TK	G8726T105	911971	4412	483111.0	P	01	LC	81784	30928	1995-07-20	E	tk
61069	61069	ASTEA INTERNATIONAL INC	ATEA	04622E208	945989	7372	511210.0	P	01	LC	81850	13882	1995-07-27	2019-12-31	
61077	61077	GSE SYSTEMS INC	GVP	36227K205	944480	7361	561312.0	P	01	LU	81869	13876	1995-07-27	2024-11-29	gvp
61129	61129	REDWOOD TRUST INC	RWT	758075402	930236	6798	525990.0	P	01	LU	82213	13912	1995-08-04	E	rwt
61153	61153	GRAFTECH INTERNATIONAL LTD	EAF	384313508	931148	3620	335991.0	C	01	LC	81925	30940	2015-08-01	2015-08-31	eaf
61153	61153	GRAFTECH INTERNATIONAL LTD	EAF	384313508	931148	3620	335991.0	P	01	LC	81925	30940	1995-08-10	2015-07-31	eaf
61153	61153	GRAFTECH INTERNATIONAL LTD	EAF	384313508	931148	3620	335991.0	P	03	LC	17672	30940	2018-04-19	E	eaf
61155	61155	ATLAS AIR WORLDWIDE HLDG INC	AAWW	049164205	1135185	4522	481212.0	P	02	LC	91262	13927	2006-05-31	2023-03-31	aaww
61155	61155	ATLAS AIR WORLDWIDE HLDG INC	AAWW	049164205	1135185	4522	481212.0	P	01	LC	82157	13927	1995-08-11	2003-09-05	aaww
61163	61163	SUNSTONE HOTEL INVESTORS INC	SHO	867892101	1295810	6798	531120.0	P	02	LC	90394	45703	2004-10-21	E	sho
61163	61163	SUNSTONE HOTEL INVESTORS INC	SHO	867892101	1295810	6798	531120.0	P	02	LC	90394	45703	2004-10-21	E	sho-ph
61163	61163	SUNSTONE HOTEL INVESTORS INC	SHO	867892101	1295810	6798	531120.0	P	02	LC	90394	45703	2004-10-21	E	sho-pi
61163	61163	SUNSTONE HOTEL INVESTORS INC	SHO	867892101	1295810	6798	531120.0	P	01	LC	82217	13926	1995-08-11	1999-11-22	sho
61163	61163	SUNSTONE HOTEL INVESTORS INC	SHO	867892101	1295810	6798	531120.0	P	01	LC	82217	13926	1995-08-11	1999-11-22	sho-ph
61163	61163	SUNSTONE HOTEL INVESTORS INC	SHO	867892101	1295810	6798	531120.0	P	01	LC	82217	13926	1995-08-11	1999-11-22	sho-pi
61179	61179	KFORCE INC	KFRC	493732101	930420	7363	561320.0	P	01	LU	82212	13938	1995-08-15	E	kfrc
61181	61181	INTEGRA LIFESCIENCES HOLDNGS	IART	457985208	917520	3842	339113.0	P	01	LU	82179	13943	1995-08-16	E	iart
61188	61188	SERVICE PROPERTIES TRUST	SVC	81761L102	945394	6798	531120.0	P	01	LU	81917	30932	1995-08-17	E	svc
61192	61192	CRAFT BREW ALLIANCE INC	BREW	224122101	892222	2082	312120.0	P	01	LC	82176	13945	1995-08-17	2020-09-30	
61214	61214	ASML HOLDING NV	ASML	N07059210	937966	3559	333242.0	P	90	LC	81472	13621	1995-03-15	E	asml
61214	61214	ASML HOLDING NV	ASML	N07059210	937966	3559	333242.0	P	90	LC	81472	13621	1995-03-15	E	asmlf
61285	61285	FUNDAMENTAL GLOBAL INC	FGF	30329Y304	1591890	6331	524130.0	P	01	LC	82234	30943	2004-09-24	2024-02-29	fgf
61285	61285	FUNDAMENTAL GLOBAL INC	FGF	30329Y304	1591890	6331	524130.0	P	01	LC	82234	30943	2004-09-24	2024-02-29	fgfpp
61285	61285	FUNDAMENTAL GLOBAL INC	FGF	30329Y304	1591890	6331	524130.0	P	01	LC	82234	30943	1995-09-07	2000-12-14	fgf
61285	61285	FUNDAMENTAL GLOBAL INC	FGF	30329Y304	1591890	6331	524130.0	P	01	LC	82234	30943	1995-09-07	2000-12-14	fgfpp
61285	61285	FUNDAMENTAL GLOBAL INC	FGF	30329Y304	1591890	6331	524130.0	P	01	LC	14607	54828	2024-03-01	E	fgf
61285	61285	FUNDAMENTAL GLOBAL INC	FGF	30329Y304	1591890	6331	524130.0	P	01	LC	14607	54828	2024-03-01	E	fgfpp
61302	61302	ARCH CAPITAL GROUP LTD	ACGL	G0450A105	947484	6331	524126.0	P	01	LU	82276	13971	1995-09-14	E	acgl
61302	61302	ARCH CAPITAL GROUP LTD	ACGL	G0450A105	947484	6331	524126.0	P	01	LU	82276	13971	1995-09-14	E	acglo
61302	61302	ARCH CAPITAL GROUP LTD	ACGL	G0450A105	947484	6331	524126.0	P	01	LU	82276	13971	1995-09-14	E	acgln
61321	61321	SMITH MICRO SOFTWARE INC	SMSI	832154405	948708	7372	513210.0	P	01	LC	82281	13978	1995-09-19	E	smsi
61325	61325	PEDIATRIX MEDICAL GROUP INC	MD	58502B106	893949	8011	621111.0	P	01	LC	82272	13979	1995-09-20	E	md
61350	61350	CRAY INC	CRAY	225223304	949158	3571	334111.0	P	01	LC	82287	13994	1995-09-26	2019-09-30	
61356	61356	NOVANTA INC	NOVT	67000B104	1076930	3679	334419.0	P	01	LC	82261	13988	2011-02-14	E	novt
61356	61356	NOVANTA INC	NOVT	67000B104	1076930	3679	334419.0	P	01	LC	82261	13988	1999-03-24	2009-11-04	novt
61380	61380	ERIE INDEMNITY CO	ERIE	29530P102	922621	6411	524298.0	P	01	LU	82486	14013	1995-10-02	E	erie
61388	61388	EVEREST GROUP LTD	EG	G3223R108	1095073	6331	524130.0	P	01	LU	82303	30970	1995-10-03	E	re
61399	61399	MYRIAD GENETICS INC	MYGN	62855J104	899923	2835	325413.0	P	01	LC	82508	14031	1995-10-06	E	mygn
61406	61406	RENAISSANCERE HOLDINGS LTD	RNR	G7496G103	913144	6331	524130.0	P	01	LU	83728	31700	1995-07-27	E	rnr
61406	61406	RENAISSANCERE HOLDINGS LTD	RNR	G7496G103	913144	6331	524130.0	P	01	LU	83728	31700	1995-07-27	E	rnr-pf
61406	61406	RENAISSANCERE HOLDINGS LTD	RNR	G7496G103	913144	6331	524130.0	P	01	LU	83728	31700	1995-07-27	E	rnr-pg
61408	61408	HANOVER INSURANCE GROUP INC	THG	410867105	944695	6331	524126.0	P	01	LU	82292	30958	1995-10-11	E	thg
61409	61409	DIAMOND OFFSHRE DRILLING INC	DO	25271C201	949039	1381	213111.0	P	01	LC	82298	30963	1995-10-11	2020-04-24	do
61409	61409	DIAMOND OFFSHRE DRILLING INC	DO	25271C201	949039	1381	213111.0	P	01	LC	82298	30963	1995-10-11	2020-04-24	dodrw
61409	61409	DIAMOND OFFSHRE DRILLING INC	DO	25271C201	949039	1381	213111.0	C	02	LC	22928	30963	2022-03-30	2024-09-30	do
61409	61409	DIAMOND OFFSHRE DRILLING INC	DO	25271C201	949039	1381	213111.0	C	02	LC	22928	30963	2022-03-30	2024-09-30	dodrw
61418	61418	RCI HOSPITALITY HLDGS INC	RICK	74934Q108	935419	5810	722410.0	P	01	LC	82518	14049	1995-10-13	E	rick
61420	61420	POOL CORP	POOL	73278L105	945841	5090	423910.0	P	01	LU	82515	14046	1995-10-13	E	pool
61439	61439	RADISYS CORP	RSYS	750459109	873044	3577	334118.0	P	01	LU	82521	14070	1995-10-20	2018-12-31	
61440	61440	KONINKLIJKE KPN NV	KKPNY	780641205	1001474	4813	517111.0	P	90	LC	82304	30971	1995-10-23	2008-04-03	
61452	61452	CREDICORP LTD	BAP	G2519Y108	1001290	6020	522110.0	P	01	LC	82311	30977	1995-10-25	E	bap
61483	61483	DAVITA INC	DVA	23918K108	927066	8090	621492.0	P	01	LU	82307	30975	1995-10-31	E	dva
61487	61487	BANNER CORP	BANR	06652V208	946673	6020	522110.0	P	01	LC	82575	14091	1995-11-01	E	banr
61490	61490	OPKO HEALTH INC	OPK	68375N103	944809	8071	621511.0	P	01	LC	82567	14092	1995-11-02	E	opk
61494	61494	HENRY SCHEIN INC	HSIC	806407102	1000228	5047	423450.0	P	01	LU	82581	14098	1995-11-03	E	hsic
61496	61496	MILESTONE SCIENTIFIC INC	MLSS	59935P209	855683	3843	339114.0	P	01	LC	82621	14097	2015-06-01	E	mlss
61496	61496	MILESTONE SCIENTIFIC INC	MLSS	59935P209	855683	3843	339114.0	P	01	LC	82621	14097	1995-11-07	2006-08-31	mlss
61519	61519	MATIV HOLDINGS INC	MATV	808541106	1000623	2800	325.0	P	01	LU	82649	31205	1995-12-01	E	matv
61536	61536	POINTER TELOCATION LTD	PNTR	M7946T104	920532	7389	561990.0	P	01	LU	80655	13138	1994-06-17	2019-10-31	
61548	61548	PERUSAHAAN PERSEROAN	TLK	715684106	1001807	4812	517112.0	P	90	LU	82646	31202	1995-11-16	E	tlk
61562	61562	ADVANCED ENERGY INDS INC	AEIS	007973100	927003	3679	334418.0	P	01	LU	82547	14143	1995-11-17	E	aeis
61567	61567	ESTEE LAUDER COMPANIES INC	EL	518439104	1001250	2844	325620.0	P	01	LC	82642	31196	1995-11-17	E	el
61574	61574	WATERS CORP	WAT	941848103	1000697	3826	334516.0	P	01	LU	82651	31208	1995-11-17	E	wat
61581	61581	BOSTON BEER INC  -CL A	SAM	100557107	949870	2082	312120.0	P	01	LU	82634	31190	1995-11-21	E	sam
61585	61585	FLUSHING FINANCIAL CORP	FFIC	343873105	923139	6020	522110.0	P	01	LU	82573	14157	1995-11-21	E	ffic
61586	61586	IMPAC MORTGAGE HOLDINGS INC	IMPM	45254P508	1000298	6162	522292.0	P	01	LC	82639	31194	2009-12-30	E	imh
61586	61586	IMPAC MORTGAGE HOLDINGS INC	IMPM	45254P508	1000298	6162	522292.0	P	01	LC	82639	31194	2009-12-30	E	impho
61586	61586	IMPAC MORTGAGE HOLDINGS INC	IMPM	45254P508	1000298	6162	522292.0	P	01	LC	82639	31194	1995-11-21	2008-11-20	imh
61586	61586	IMPAC MORTGAGE HOLDINGS INC	IMPM	45254P508	1000298	6162	522292.0	P	01	LC	82639	31194	1995-11-21	2008-11-20	impho
61587	61587	INTEVAC INC	IVAC	461148108	1001902	3559	333248.0	P	01	LU	82587	14161	1995-11-21	E	ivac
61591	61591	NETAPP INC	NTAP	64110D104	1002047	3572	334112.0	P	01	LU	82598	14152	1995-11-21	E	ntap
61616	61616	ENI SPA	E	26874R108	1002242	2911	324110.0	P	90	LU	82637	31192	1995-11-30	E	e
61616	61616	ENI SPA	E	26874R108	1002242	2911	324110.0	P	90	LU	82637	31192	1995-11-30	E	eipaf
61635	61635	NORTHWEST PIPE CO	NWPX	667746101	1001385	3317	331210.0	P	01	LU	82599	14175	1995-11-30	E	nwpx
61646	61646	WESTELL TECH INC  -CL A	WSTL	957541303	1002135	3661	334210.0	P	01	LC	82762	14179	1995-12-01	E	wstl
61655	61655	NOVAVAX INC	NVAX	670002401	1000694	2836	325414.0	P	01	LU	82779	31389	1995-12-13	E	nvax
61662	61662	LEARNING TREE INTL INC	LTRE	522015106	1002037	8200	611420.0	C	01	LU	82720	14191	1995-12-06	E	
61676	61676	CITRIX SYSTEMS INC	CTXS	177376100	877890	7372	511210.0	P	01	LU	82686	14201	1995-12-08	2022-10-31	ctxs
61685	61685	NUANCE COMMUNICATIONS INC	NUAN	67020Y100	1002517	7372	511210.0	P	01	LU	82759	14205	1995-12-11	2022-03-31	nuan
61693	61693	HEARTLAND FINANCIAL USA INC	HTLF	42234Q102	920112	6020	522110.0	P	01	LC	89736	44055	2003-05-15	E	htlf
61693	61693	HEARTLAND FINANCIAL USA INC	HTLF	42234Q102	920112	6020	522110.0	P	01	LC	89736	44055	2003-05-15	E	htlfp
61711	61711	TG THERAPEUTICS INC	TGTX	88322Q108	1001316	2834	325412.0	P	01	LC	82670	14232	2013-05-30	E	tgtx
61711	61711	TG THERAPEUTICS INC	TGTX	88322Q108	1001316	2834	325412.0	P	01	LC	82670	14232	1995-12-14	2008-03-25	tgtx
61712	61712	BLONDER TONGUE LABS INC	BDRL	093698108	1000683	3663	334220.0	P	01	LU	82768	31377	1995-12-14	E	bdrl
61732	61732	MSC INDUSTRIAL DIRECT  -CL A	MSM	553530106	1003078	5084	423830.0	P	01	LU	82777	31388	1995-12-15	E	msm
61735	61735	STAR GROUP LP	SGU	85512C105	1002590	5900	457210.0	J	02	LU	86760	14237	1999-03-29	2006-04-28	sgu
61735	61735	STAR GROUP LP	SGU	85512C105	1002590	5900	457210.0	P	01	LC	82743	14237	1995-12-15	E	sgu
61739	61739	HARTFORD INSURANCE GROUP INC	HIG	416515104	874766	6331	524126.0	P	01	LC	82775	31386	1995-12-20	E	hig
61739	61739	HARTFORD INSURANCE GROUP INC	HIG	416515104	874766	6331	524126.0	P	01	LC	82775	31386	1995-12-20	E	hig-pg
61745	61745	IMPAX LABORATORIES INC	IPXL	45256B101	1003642	2834	325412.0	C	01	LC	82702	14243	2009-03-16	2018-05-06	
61745	61745	IMPAX LABORATORIES INC	IPXL	45256B101	1003642	2834	325412.0	C	01	LC	82702	14243	1995-12-19	2005-08-07	
61759	61759	CORE LABORATORIES INC	CLB	21867A105	1958086	1389	213112.0	P	01	LC	82656	13987	1995-09-21	E	
61811	61811	SOUTHERN COPPER CORP	SCCO	84265V105	1001838	1000	212230.0	P	01	LU	82800	31574	1996-01-12	E	scco
61814	61814	BE SEMICONDUCTOR INDUSTRIES	BESIY	073320103	1003196	3559	333242.0	P	90	LC	82672	14189	1995-12-05	2007-01-05	
61836	61836	TITAN PHARMACEUTICALS INC	TTNP	888314705	910267	2834	325412.0	P	01	LC	82848	14293	2015-10-12	E	ttnp
61836	61836	TITAN PHARMACEUTICALS INC	TTNP	888314705	910267	2834	325412.0	P	01	LC	82848	14293	1996-01-18	2008-12-25	ttnp
61839	61839	AMERIGAS PARTNERS  -LP	APU	030975106	932628	5900	454310.0	P	01	LU	81521	30868	1995-04-12	2019-08-30	
61870	61870	OPEN TEXT CORP	OTEX	683715106	1002638	7370	518210.0	P	01	LU	82833	14305	1996-01-24	E	otex
61899	61899	ACERAGEN INC	ACGN	00445F109	861838	2836	325414.0	P	01	LU	82824	14310	1996-01-25	2023-08-31	idra
61902	61902	NICE LTD	NICE	653656108	1003935	7372	513210.0	P	90	LU	82830	14312	1996-01-25	E	nice
61902	61902	NICE LTD	NICE	653656108	1003935	7372	513210.0	P	90	LU	82830	14312	1996-01-25	E	ncsyf
61971	61971	ENGLOBAL CORP	ENGCQ	293306205	933738	1311	2111.0	P	01	LC	86122	34783	1998-06-16	E	eng
62057	62057	WIDEPOINT CORP	WYY	967590209	1034760	7370	541519.0	P	01	LC	86098	16113	2006-09-26	E	wyy
62057	62057	WIDEPOINT CORP	WYY	967590209	1034760	7370	541519.0	P	01	LC	86098	16113	1998-05-19	2001-02-28	wyy
62110	62110	APRICUS BIOSCIENCES INC	APRI.1	03832V307	0	2834	325412.0	P	01	LC	88177	37171	2000-04-26	2019-01-23	
62168	62168	IRIDEX CORP	IRIX	462684101	1006045	3845	334510.0	P	01	LU	83145	14377	1996-02-16	E	irix
62169	62169	LIFECORE BIOMEDL INC	LFCR	514766104	1005286	2834	325412.0	P	01	LU	83148	14374	1996-02-15	E	lndc
62213	62213	CANTALOUPE INC	CTLP	138103106	896429	7374	518210.0	P	01	LC	91910	52001	2020-11-19	E	ctlp
62213	62213	CANTALOUPE INC	CTLP	138103106	896429	7374	518210.0	P	01	LC	91910	52001	2020-11-19	E	ctlpp
62213	62213	CANTALOUPE INC	CTLP	138103106	896429	7374	518210.0	P	01	LC	91910	52001	2007-03-19	2019-09-25	ctlp
62213	62213	CANTALOUPE INC	CTLP	138103106	896429	7374	518210.0	P	01	LC	91910	52001	2007-03-19	2019-09-25	ctlpp
62217	62217	LIGHTPATH TECHNOLOGIES INC	LPTH	532257805	889971	3827	333310.0	P	01	LU	83149	14385	1996-02-22	E	lpth
62221	62221	COLUMBUS MCKINNON CORP	CMCO	199333105	1005229	3530	333923.0	P	01	LU	83120	14387	1996-02-23	E	cmco
62263	62263	ALEXION PHARMACEUTICALS INC	ALXN	015351109	899866	2836	325414.0	P	01	LU	83111	14394	1996-02-28	2021-07-30	
62266	62266	CSG SYSTEMS INTL INC	CSGS	126349109	1005757	7374	518210.0	P	01	LU	83124	14393	1996-02-28	E	csgs
62290	62290	REVLON INC  -CL A	REVRQ	761525609	887921	2844	325620.0	P	01	LC	82859	23373	1996-02-29	2023-05-02	rev
62302	62302	SPAR GROUP INC	SGRP	784933103	1004989	7389	561499.0	P	01	LU	83303	14398	1996-03-01	E	sgrp
62337	62337	IAMGOLD CORP	IAG	450913108	1203464	1040	212220.0	P	01	LC	89630	43796	2002-12-02	E	iag
62374	62374	IRON MOUNTAIN INC	IRM	46284V101	1020569	6798	531120.0	P	01	LU	83143	14330	1996-02-01	E	irm
62378	62378	HUB GROUP INC  -CL A	HUBG	443320106	940942	4731	488510.0	P	01	LU	83272	14427	1996-03-13	E	hubg
62395	62395	ENCORE MEDICAL CORP	ENMC	29256E109	944763	3842	339113.0	P	01	LU	84639	15406	1997-03-26	2006-11-30	
62396	62396	IDT CORP	IDT	448947507	1005731	4813	517111.0	P	03	LC	88988	14442	2004-06-01	E	idt
62396	62396	IDT CORP	IDT	448947507	1005731	4813	517111.0	J	03	LC	88988	14442	2001-06-01	2004-05-31	idt
62396	62396	IDT CORP	IDT	448947507	1005731	4813	517111.0	J	01	LC	83275	14442	2004-06-01	2011-04-04	idt
62396	62396	IDT CORP	IDT	448947507	1005731	4813	517111.0	P	01	LC	83275	14442	1996-03-15	2004-05-31	idt
62403	62403	FLETCHER BUILDING LTD	FRCEF	Q3915B105	1137182	3270	3273.0	P	90	LC	88923	41366	2001-04-03	2002-06-13	
62403	62403	FLETCHER BUILDING LTD	FRCEF	Q3915B105	1137182	3270	3273.0	P	90	LC	83205	31597	1996-03-25	2001-03-22	
62475	62475	ARBUTUS BIOPHARMA CORP	ABUS	03879J100	1447028	2836	325414.0	P	01	LC	12411	53584	2010-11-15	E	abus
62494	62494	PRGX GLOBAL INC	PRGX	69357C503	1007330	8721	541219.0	P	01	LU	83304	14470	1996-03-27	2021-03-31	
62501	62501	SUBURBAN PROPANE PRTNRS  -LP	SPH	864482104	1005210	5900	457210.0	P	01	LU	82860	31583	1996-02-29	E	sph
62516	62516	CENTURY ALUMINUM CO	CENX	156431108	949157	3350	331315.0	P	01	LU	83244	14479	1996-03-29	E	cenx
62549	62549	KVH INDUSTRIES INC	KVHI	482738101	1007587	4899	517410.0	P	01	LU	83390	14494	1996-04-02	E	kvhi
62553	62553	OPTICAL CABLE CORP	OCC	683827208	1000230	3357	335921.0	P	01	LU	83399	14498	1996-04-02	E	occ
62582	62582	ALJ REGIONAL HOLDINGS INC	ALJJ	001627108	1438731	7374	518210.0	P	01	LC	83398	14500	1996-04-03	2003-01-08	aljj
62582	62582	ALJ REGIONAL HOLDINGS INC	ALJJ	001627108	1438731	7374	518210.0	P	01	LC	16052	55563	2016-05-02	2023-05-31	aljj
62592	62592	PROTALIX BIOTHERAPEUTICS INC	PLX	74365A309	1006281	2836	325414.0	C	01	LC	86080	16110	2007-03-12	E	plx
62592	62592	PROTALIX BIOTHERAPEUTICS INC	PLX	74365A309	1006281	2836	325414.0	C	01	LC	86080	16110	1998-05-15	1999-11-16	plx
62618	62618	CONSOLIDATED WATER CO INC	CWCO	G23773107	928340	4941	221310.0	P	01	LU	81610	13733	1995-06-30	E	cwco
62626	62626	EVOLUTION PETROLEUM CORP	EPM	30049A107	1006655	1311	211120.0	P	01	LU	83411	14518	1996-04-11	E	epm
62654	62654	SANDY SPRING BANCORP INC	SASR	800363103	824410	6020	522110.0	P	01	LU	83414	14531	1996-04-17	E	sasr
62655	62655	DEAN FOODS CO	DFODQ	242370203	931336	2020	311511.0	P	01	LC	83421	14527	1996-04-17	2021-06-03	
62666	62666	STREAMLINE HEALTH SOLUTIONS	STRM	86323X205	1008586	7373	541512.0	P	01	LC	83391	14535	1996-04-18	E	strm
62686	62686	CARBO CERAMICS INC	CRRTQ	140781105	1009672	3290	327999.0	P	01	LC	83366	14548	1996-04-23	2019-11-29	
62689	62689	TRAVELERS COS INC	TRV	89417E109	86312	6331	524126.0	P	05	LC	89495	42932	2002-08-21	2004-04-01	trv
62689	62689	TRAVELERS COS INC	TRV	89417E109	86312	6331	524126.0	N	04	LC	89346	42932	2002-08-21	2004-04-01	trv
62689	62689	TRAVELERS COS INC	TRV	89417E109	86312	6331	524126.0	C	04	LC	89346	42932	2002-08-01	2002-08-20	trv
62689	62689	TRAVELERS COS INC	TRV	89417E109	86312	6331	524126.0	P	04	LC	89346	42932	2002-03-22	2002-07-31	trv
62689	62689	TRAVELERS COS INC	TRV	89417E109	86312	6331	524126.0	P	01	LC	83341	31622	1996-04-23	2000-04-20	trv
62689	62689	TRAVELERS COS INC	TRV	89417E109	86312	6331	524126.0	P	05	LC	59459	4293	2004-04-02	E	trv
62723	62723	TUCOWS INC	TCX	898697206	909494	7370	519130.0	P	01	LU	83382	14568	1996-04-30	E	tcx
62732	62732	SYKES ENTERPRISES INC	SYKE	871237103	1010612	7374	518210.0	P	01	LU	83422	14572	1996-04-30	2021-08-31	
62745	62745	JAKKS PACIFIC INC	JAKK	47012E403	1009829	3944	336991.0	P	01	LC	83520	14582	1996-05-02	E	jakk
62823	62823	FTI CONSULTING INC	FCN	302941109	887936	8721	541219.0	P	01	LU	83509	14602	1996-05-09	E	fcn
62824	62824	MACRONIX INTL CO LTD	MXICY	556103760	1009680	3674	334413.0	P	90	LC	83533	14605	1996-05-09	2007-10-26	
62897	62897	TUPPERWARE BRANDS CORP	TUPBQ	899896104	1008654	3089	326199.0	P	01	LU	83462	31647	1996-05-31	E	tup
62919	62919	MEDALLION FINANCIAL CORP	MFIN	583928106	1000209	6159	522220.0	P	01	LU	83565	14648	1996-05-23	E	mfin
62919	62919	MEDALLION FINANCIAL CORP	MFIN	583928106	1000209	6159	522220.0	P	01	LU	83565	14648	1996-05-23	E	mbnkp
62921	62921	NEUROCRINE BIOSCIENCES INC	NBIX	64125C109	914475	2836	325414.0	P	01	LU	83534	14659	1996-05-23	E	nbix
62956	62956	BOS BETTER ONLINE SOLUTIONS	BOSC	M20115180	1005516	5065	423690.0	P	01	LC	83486	14497	1996-05-15	E	bosc
62965	62965	SS&C TECHNOLOGIES HLDGS INC	SSNC	78467J100	1402436	7370	518210.0	P	02	LC	93312	53374	2010-03-31	E	ssnc
62965	62965	SS&C TECHNOLOGIES HLDGS INC	SSNC	78467J100	1402436	7370	518210.0	P	01	LC	83559	14681	1996-05-31	2005-11-23	ssnc
62979	62979	SOUTHSIDE BANCSHARES INC	SBSI	84470P109	705432	6020	522110.0	C	01	LU	86091	16107	1998-05-26	E	sbsi
63000	63000	RUSH ENTERPRISES INC	RUSHA	781846209	1012019	5500	441110.0	P	02	LC	89455	14705	2004-11-01	E	rusha
63000	63000	RUSH ENTERPRISES INC	RUSHA	781846209	1012019	5500	441110.0	P	02	LC	89455	14705	2004-11-01	E	rushb
63000	63000	RUSH ENTERPRISES INC	RUSHA	781846209	1012019	5500	441110.0	N	02	LC	89455	14705	2003-02-28	2004-10-31	rusha
63000	63000	RUSH ENTERPRISES INC	RUSHA	781846209	1012019	5500	441110.0	N	02	LC	89455	14705	2003-02-28	2004-10-31	rushb
63000	63000	RUSH ENTERPRISES INC	RUSHA	781846209	1012019	5500	441110.0	J	01	LC	83690	14705	2004-11-01	E	rusha
63000	63000	RUSH ENTERPRISES INC	RUSHA	781846209	1012019	5500	441110.0	J	01	LC	83690	14705	2004-11-01	E	rushb
63000	63000	RUSH ENTERPRISES INC	RUSHA	781846209	1012019	5500	441110.0	P	01	LC	83690	14705	1996-06-07	2004-10-31	rusha
63000	63000	RUSH ENTERPRISES INC	RUSHA	781846209	1012019	5500	441110.0	P	01	LC	83690	14705	1996-06-07	2004-10-31	rushb
63005	63005	AVADEL PHARMACEUTICALS PLC	AVDL	G29687103	1012477	2834	325412.0	C	90	LC	83656	14701	2024-04-01	2024-04-12	avdl
63005	63005	AVADEL PHARMACEUTICALS PLC	AVDL	G29687103	1012477	2834	325412.0	P	90	LC	83656	14701	1996-06-07	2024-03-31	avdl
63005	63005	AVADEL PHARMACEUTICALS PLC	AVDL	G29687103	1012477	2834	325412.0	P	01	LC	25042	14701	2024-04-15	E	avdl
63030	63030	CASI PHARMACEUTICALS INC	CASI	G1933S101	1962738	2834	325412.0	P	01	LC	83651	14715	1996-06-12	E	
63058	63058	SB FINANCIAL GROUP INC	SBFG	78408D105	767405	6020	522110.0	P	01	LC	89202	33945	2001-11-06	E	sbfg
63080	63080	ANSYS INC	ANSS	03662Q105	1013462	7372	511210.0	P	01	LU	83621	14744	1996-06-20	E	anss
63083	63083	ENDOLOGIX INC	ELGXQ	29266S304	1013606	3841	339112.0	P	01	LC	83633	14737	1996-06-20	2020-10-02	
63120	63120	AXA SA	AXAHY	054536107	898427	6311	524113.0	P	90	LC	83589	31653	1996-06-26	2010-03-25	
63123	63123	GENESEE & WYOMING INC  -CL A	GWR	371559105	1012620	4011	482111.0	C	01	LU	83661	14754	1996-06-25	2020-01-01	
63135	63135	DIME COMMUNITY BANCSHARES	DCOM	25432X102	846617	6020	522110.0	P	01	LC	92716	53043	2021-02-01	E	dcom
63135	63135	DIME COMMUNITY BANCSHARES	DCOM	25432X102	846617	6020	522110.0	P	01	LC	92716	53043	2021-02-01	E	dcomp
63135	63135	DIME COMMUNITY BANCSHARES	DCOM	25432X102	846617	6020	522110.0	P	01	LC	83815	14762	1996-06-26	2021-01-29	dcom
63135	63135	DIME COMMUNITY BANCSHARES	DCOM	25432X102	846617	6020	522110.0	P	01	LC	83815	14762	1996-06-26	2021-01-29	dcomp
63138	63138	GLASSBRIDGE ENTERPRISES INC	GLAE	377185202	1014111	6282	523940.0	C	01	LC	83602	31665	1996-07-16	2017-07-31	glae
63139	63139	TURQUOISE HILL RESOURCES LTD	TRQ	900435207	1158041	1000	212230.0	P	01	LC	89911	44621	2005-01-01	2022-12-30	trq
63139	63139	TURQUOISE HILL RESOURCES LTD	TRQ	900435207	1158041	1000	212230.0	J	01	LC	89911	44621	2003-11-18	2004-12-31	trq
63169	63169	DASSAULT SYSTEMES SE	DASTY	237545108	1016118	7372	513210.0	P	90	LC	83647	14777	1996-06-28	2008-10-15	
63172	63172	FACTSET RESEARCH SYSTEMS INC	FDS	303075105	1013237	7370	519290.0	P	01	LU	83597	31661	1996-06-28	E	fds
63178	63178	PROVIDENT FINANCIAL HOLDINGS	PROV	743868101	1010470	6035	522180.0	P	01	LC	83683	14778	1996-06-28	E	prov
63185	63185	CHECK POINT SOFTWARE TECHN	CHKP	M22465104	1015922	7372	513210.0	P	01	LU	83639	14776	1996-06-28	E	chkp
63186	63186	QIAGEN NV	QGEN	N72482206	1015820	3826	334516.0	P	01	LC	83686	14775	1996-06-28	E	qgen
63232	63232	OCEANFIRST FINANCIAL CORP	OCFC	675234108	1004702	6020	522110.0	P	01	LU	83774	14795	1996-07-03	E	ocfc
63232	63232	OCEANFIRST FINANCIAL CORP	OCFC	675234108	1004702	6020	522110.0	P	01	LU	83774	14795	1996-07-03	E	ocfcp
63288	63288	FBL FINANCIAL GROUP INC-CL A	FFG	30239F106	1012771	6311	524113.0	P	01	LU	83720	31689	1996-07-19	2021-05-28	
63290	63290	PEGASYSTEMS INC	PEGA	705573103	1013857	7372	513210.0	P	01	LU	83779	14828	1996-07-19	E	pega
63338	63338	STRATEGIC EDUCATION INC	STRA	86272C103	1013934	8200	611310.0	P	01	LU	83799	14838	1996-07-25	E	stra
63405	63405	GERON CORP	GERN	374163103	886744	2836	325414.0	P	01	LU	83756	14859	1996-07-31	E	gern
63417	63417	TTEC HOLDINGS INC	TTEC	89854H102	1013880	7389	561499.0	P	01	LC	83916	14863	1996-08-01	E	ttec
63422	63422	LAMAR ADVERTISING CO  -CL A	LAMR	512816109	1090425	6798	531190.0	P	01	LU	83879	14873	1996-08-02	E	lamr
63447	63447	GUESS INC	GES	401617105	912463	2330	3152.0	P	01	LU	83822	31710	1996-08-08	E	ges
63448	63448	PURE BIOSCIENCE INC	PURE	74621T209	1006028	2890	325998.0	P	01	LC	83896	14882	1996-08-08	2013-05-16	pure
63454	63454	AWARE INC	AWRE	05453N100	1015739	7372	513210.0	P	01	LU	83844	14889	1996-08-09	E	awre
63456	63456	CARRIAGE SERVICES INC	CSV	143905107	1016281	7200	812210.0	P	01	LU	83856	14888	1996-08-09	E	csv
63490	63490	BIOSCRIP INC	BIOS.1	09069N108	0	8082	621610.0	P	01	LC	83883	14905	1996-08-15	2019-08-06	
63501	63501	E TRADE FINANCIAL CORP	ETFC	269246401	1015780	6211	523120.0	P	01	LC	83862	14915	1996-08-16	2020-10-30	
63520	63520	TRANSACT TECHNOLOGIES INC	TACT	892918103	1017303	3577	334118.0	P	01	LU	83910	14923	1996-08-22	E	tact
63527	63527	STERICYCLE INC	SRCL	858912108	861878	4955	562211.0	P	01	LU	83906	14927	1996-08-23	2024-11-29	srcl
63531	63531	MICROVISION INC	MVIS	594960304	65770	3679	334419.0	P	01	LC	83885	14931	1996-08-27	E	mvis
63541	63541	MMA CAPITAL HOLDINGS	MMAC	55315D105	1003201	6799	523999.0	P	01	LC	83827	31714	2014-10-09	2021-08-31	
63541	63541	MMA CAPITAL HOLDINGS	MMAC	55315D105	1003201	6799	523999.0	P	01	LC	83827	31714	1996-08-30	2008-02-05	
63543	63543	SOUTHWEST GEORGIA FINL CORP	SGB	84502A104	315849	6020	522110.0	P	01	LU	83831	31718	1996-08-30	2020-04-30	
63562	63562	COSCIENS BIOPHARMA INC	CSCI	22112H101	1113423	2836	325414.0	P	01	LC	88240	37505	2000-05-10	E	aezs
63590	63590	BANK OF IRELAND GROUP PLC	BKRIY	06279J109	1715773	6020	522110.0	P	90	LC	83992	31738	1996-09-17	2015-02-13	
63593	63593	QEP CO INC	QEPC	74727K102	1017815	3420	332216.0	P	01	LC	83957	14957	1996-09-18	2009-07-02	
63639	63639	ONITY GROUP INC	ONIT	675746606	873860	6162	522390.0	P	01	LC	84007	14969	1996-09-25	E	ocn
63643	63643	ABERCROMBIE & FITCH  -CL A	ANF	002896207	1018840	5651	458110.0	P	01	LU	83976	22200	1996-09-26	E	anf
63645	63645	ENDO INTERNATIONAL PLC	ENDPQ	G30401106	1593034	2834	325412.0	P	01	LC	88436	37931	2000-07-18	2024-05-02	endpq
63650	63650	SPECTRUM PHARMACEUTICALS INC	SPPI	84763A108	831547	2836	325414.0	P	01	LU	83950	14977	1996-09-26	2023-07-31	sppi
63669	63669	UNIVISION COMMUNICATIONS INC	5952B	91499R966	1017008	4833	516120.0	C	99X	LC	84001	31749	2007-03-31	2007-04-30	
63669	63669	UNIVISION COMMUNICATIONS INC	5952B	91499R966	1017008	4833	516120.0	P	01	LC	84001	31749	1996-09-27	2007-03-30	
63700	63700	ANTARES PHARMA INC	ATRS	036642106	1016169	2834	325412.0	P	01	LC	88905	41265	2001-02-07	2022-05-31	
63700	63700	ANTARES PHARMA INC	ATRS	036642106	1016169	2834	325412.0	P	01	LC	84099	15014	1996-10-03	2001-02-06	
63708	63708	DOVER MOTORSPORTS INC	DVD	260174107	1017673	7948	711212.0	P	01	LU	84026	31764	1996-10-04	2021-12-31	
63724	63724	NAVIGANT CONSULTING INC	NCI.3	63935N107	1019737	8742	541611.0	P	01	LU	84103	15019	1996-10-04	2019-10-31	
63725	63725	WEST BANCORPORATION INC	WTBA	95123P106	1166928	6020	522110.0	C	01	LC	89425	43261	2002-06-05	E	wtba
63739	63739	BJ'S RESTAURANTS INC	BJRI	09180C106	1013488	5812	722511.0	P	01	LU	84062	15025	1996-10-09	E	bjri
63759	63759	SCOR SE	SCRYY	80917Q106	1023027	6311	524130.0	P	90	LC	84037	31773	1996-10-10	2007-06-13	
63763	63763	HIBBETT INC	HIBB	428567101	1017480	5940	459110.0	P	01	LU	84084	15037	1996-10-11	2024-07-31	hibb
63781	63781	WINTRUST FINANCIAL CORP	WTFC	97650W108	1015328	6020	522110.0	P	01	LC	84636	15385	1997-03-13	E	wtfc
63781	63781	WINTRUST FINANCIAL CORP	WTFC	97650W108	1015328	6020	522110.0	P	01	LC	84636	15385	1997-03-13	E	wtfcm
63781	63781	WINTRUST FINANCIAL CORP	WTFC	97650W108	1015328	6020	522110.0	P	01	LC	84636	15385	1997-03-13	E	wtfcp
63789	63789	ARQULE INC	ARQL	04269E107	1019695	2836	325414.0	P	01	LU	84052	15040	1996-10-16	2020-01-31	
63847	63847	PENSKE AUTOMOTIVE GROUP INC	PAG	70959W103	1019849	5500	441110.0	P	01	LU	84042	31780	1996-10-23	E	pag
63863	63863	USANA HEALTH SCIENCES INC	USNA	90328M107	896264	2834	325412.0	P	01	LU	84010	14845	1996-07-25	E	usna
63874	63874	STAGE STORES INC	SSINQ	85254C305	6885	5651	448140.0	P	03	LC	89289	15073	2002-01-08	2020-10-31	
63874	63874	STAGE STORES INC	SSINQ	85254C305	6885	5651	448140.0	P	01	LC	84132	15073	1996-10-25	2000-06-01	
63876	63876	TRIUMPH GROUP INC	TGI	896818101	1021162	3728	336413.0	P	01	LU	84041	31779	1996-10-25	E	tgi
63892	63892	NOV INC	NOV	62955J103	1021860	3533	333132.0	P	01	LC	84032	31769	1996-10-29	E	nov
63901	63901	PRESSURE BIOSCIENCES INC	PBIO	74112E208	830656	8731	541714.0	P	01	LC	84056	15097	1996-10-31	2012-04-04	pbio
63904	63904	COMPANHIA BRASILEIRA DE DIST	CBDBY	20440T300	1038572	5411	445110.0	P	90	LC	19287	31972	2020-03-05	E	cbd
63927	63927	UNITED NATURAL FOODS INC	UNFI	911163103	1020859	5140	424490.0	P	01	LU	84275	15108	1996-11-01	E	unfi
63938	63938	SEACHANGE INTERNATIONAL INC	SEAC	811699404	1019671	7372	513210.0	P	01	LU	84255	15114	1996-11-05	E	seac
63952	63952	INNOVATE CORP	VATE	45784J303	1006837	3440	332312.0	P	01	LC	84247	15120	1996-11-07	2006-07-27	vate
63952	63952	INNOVATE CORP	VATE	45784J303	1006837	3440	332312.0	P	05	LC	12877	15120	2014-12-29	E	vate
63952	63952	INNOVATE CORP	VATE	45784J303	1006837	3440	332312.0	P	05	LC	12877	15120	2011-06-23	2014-04-13	vate
63986	63986	EPLUS INC	PLUS	294268107	1022408	5045	423430.0	P	01	LC	84234	15147	2008-09-03	E	plus
63986	63986	EPLUS INC	PLUS	294268107	1022408	5045	423430.0	P	01	LC	84234	15147	1996-11-15	2007-07-19	plus
63987	63987	VEON LTD	VEON	91822M502	1468091	4812	517112.0	P	93	LC	93337	53384	2010-04-22	E	veon
63987	63987	VEON LTD	VEON	91822M502	1468091	4812	517112.0	N	90	LC	84173	31803	2010-04-22	2010-05-28	veon
63987	63987	VEON LTD	VEON	91822M502	1468091	4812	517112.0	C	90	LC	84173	31803	2010-04-01	2010-04-21	veon
63987	63987	VEON LTD	VEON	91822M502	1468091	4812	517112.0	P	90	LC	84173	31803	1996-11-15	2010-03-31	veon
64028	64028	NU SKIN ENTERPRISES  -CL A	NUS	67018T105	1021561	2844	325620.0	P	01	LU	84172	31802	1996-11-22	E	nus
64030	64030	STEEL DYNAMICS INC	STLD	858119100	1022671	3312	331110.0	P	01	LU	84262	15171	1996-11-22	E	stld
64036	64036	TOP IMAGE SYSTEMS LTD	TISA	M87896102	1021991	7372	511210.0	P	01	LU	84268	15173	1996-11-22	2019-05-31	
64061	64061	FORRESTER RESEARCH INC	FORR	346563109	1023313	8700	541910.0	P	01	LU	84210	15190	1996-11-27	E	forr
64063	64063	GENESIS ENERGY  -LP	GEL	371927104	1022321	5172	424720.0	P	01	LU	84167	31796	1996-11-27	E	gel
64072	64072	PREMIUM BRANDS HLDGS CORP	PRBZF	74061A108	1503812	2011	311611.0	C	01	LC	84209	15196	1996-11-29	2000-05-05	
64088	64088	VIASAT INC	VSAT	92552V100	797721	3663	334220.0	P	01	LU	84348	15199	1996-12-03	E	vsat
64163	64163	HYPERSCALE DATA INC	GPUS	09175M804	896493	9997	999977.0	P	01	LC	84302	15236	1996-12-17	E	nile
64163	64163	HYPERSCALE DATA INC	GPUS	09175M804	896493	9997	999977.0	P	01	LC	84302	15236	1996-12-17	E	nile-pd
64166	64166	QUEST DIAGNOSTICS INC	DGX	74834L100	1022079	8071	621511.0	P	01	LU	84373	31838	1997-01-14	E	dgx
64175	64175	LITHIA MOTORS INC  -CL A	LAD	536797103	1023128	5500	441110.0	P	01	LU	84319	15243	1996-12-18	E	lad
64181	64181	TATNEFT PJSC	TNT.2	03737P306	1058255	2911	324110.0	P	90	LC	85898	34673	1998-03-30	2006-09-14	oaofy
64223	64223	DXP ENTERPRISES INC	DXPE	233377407	1020710	5080	423840.0	P	01	LU	85176	15568	1997-07-02	E	dxpe
64254	64254	HELIOS TECHNOLOGIES INC	HLIO	42328H109	1024795	3490	332912.0	P	01	LU	84438	15267	1997-01-09	E	hlio
64278	64278	ELTEK LTD	ELTK	M40184208	1024672	3672	334412.0	P	01	LU	84419	15285	1997-01-22	E	eltk
64302	64302	INSPERITY INC	NSP	45778Q107	1000753	7363	561320.0	P	01	LU	84385	31890	1997-01-29	E	nsp
64306	64306	KILROY REALTY CORP	KRC	49427F108	1025996	6798	531120.0	P	01	LU	84392	31899	1997-01-29	E	krc
64327	64327	CERUS CORP	CERS	157085101	1020214	2836	325414.0	P	01	LU	84413	15306	1997-01-31	E	cers
64334	64334	VERICEL CORP	VCEL	92346J108	887359	2836	325414.0	P	01	LU	84511	15314	1997-02-04	E	vcel
64344	64344	VAIL RESORTS INC	MTN	91879Q109	812011	7990	713920.0	P	01	LU	84588	31933	1997-02-04	E	mtn
64355	64355	GOLDEN OCEAN GROUP	GOGL	G39637205	1029145	4400	532411.0	P	01	LC	84566	15323	1997-02-07	E	gogl
64356	64356	CIENA CORP	CIEN	171779309	936395	3661	334210.0	P	01	LC	84519	15321	1997-02-07	E	cien
64389	64389	SILGAN HOLDINGS INC	SLGN	827048109	849869	3411	332431.0	P	01	LU	84563	15339	1997-02-14	E	slgn
64410	64410	CARMAX INC	KMX	143130102	1170010	5500	441120.0	P	01	LC	89508	43519	2002-10-01	E	kmx
64410	64410	CARMAX INC	KMX	143130102	1170010	5500	441120.0	P	01	LC	84577	20453	1997-02-04	2002-09-30	kmx
64480	64480	TIVO CORP	TIVO	88870P106	1675820	7370	519130.0	P	01	LC	84624	15384	1997-03-13	2020-06-30	
64515	64515	CTI BIOPHARMA CORP	CTIC	12648L601	891293	2836	325414.0	P	01	LC	84604	15401	1997-03-21	2023-06-30	ctic
64536	64536	EURONET WORLDWIDE INC	EEFT	298736109	1029199	6099	522320.0	P	01	LU	84606	15376	1997-03-07	E	eeft
64547	64547	SOUTH STATE CORP	SSB	840441109	764038	6020	522110.0	P	01	LC	84389	31896	1997-01-28	E	ssb
64552	64552	TD AMERITRADE HOLDING CORP	AMTD.	87236Y108	1173431	6211	523120.0	P	01	LC	84597	15370	1997-03-04	2020-10-30	
64568	64568	GULF ISLAND FABRICATION INC	GIFI	402307102	1031623	3730	336611.0	P	01	LU	84737	15423	1997-04-04	E	gifi
64577	64577	COPEL-CIA PARANAENSE ENERGIA	ELP	20441B605	1041792	4911	2211.0	P	90	LC	85237	32029	1997-07-30	2021-04-27	elp
64577	64577	COPEL-CIA PARANAENSE ENERGIA	ELP	20441B605	1041792	4911	2211.0	J	93	LC	24605	32029	2023-12-29	E	elp
64582	64582	SOURCE CAPITAL	SOR	836144303	91847	6726	525990.0	P	01	LC	62068	21636	1983-12-30	E	sor
64630	64630	TAKE-TWO INTERACTIVE SFTWR	TTWO	874054109	946581	7372	513210.0	P	01	LU	84761	15436	1997-04-15	E	ttwo
64637	64637	EMCORE CORP	EMKR	290846401	808326	3674	334413.0	P	01	LC	84607	15374	1997-03-06	E	emkr
64645	64645	BIO-KEY INTERNATIONAL INC	BKYI	09060C507	1019034	3829	334519.0	P	01	LC	84757	15441	2017-07-25	E	bkyi
64645	64645	BIO-KEY INTERNATIONAL INC	BKYI	09060C507	1019034	3829	334519.0	P	01	LC	84757	15441	1997-04-17	1999-05-24	bkyi
64668	64668	XPLORE TECHNOLOGIES CORP	XPLR	983950700	1177845	3571	334111.0	P	01	LC	13658	54235	2012-10-26	2018-08-31	
64690	64690	AUTOLIV INC	ALV	052800109	1034670	3714	336390.0	P	01	LC	84656	31946	1997-04-28	E	alv
64699	64699	FLAGSTAR BANCORP INC	FBC	337930705	1033012	6035	522120.0	P	01	LC	84734	15454	1997-04-30	2022-12-30	fbc
64717	64717	INMED PHARMACEUTICALS INC	INM	457637700	1728328	2834	325412.0	P	01	LC	20149	57566	2020-11-12	E	inm
64745	64745	KNOLL INC	KNL	498904200	1011570	2522	337214.0	P	02	LC	84780	31979	2004-12-31	2021-07-30	
64766	64766	RAMBUS INC	RMBS	750917106	917273	6794	533110.0	P	01	LU	84827	15471	1997-05-14	E	rmbs
64768	64768	AMAZON.COM INC	AMZN	023135106	1018724	5961	455219.0	P	01	LC	84788	15473	1997-05-15	E	amzn
64794	64794	UNITED COMMUNITY BANKS INC	UCB	90984P303	857855	6020	522110.0	P	01	LC	89323	42912	2002-03-18	E	ucbi
64794	64794	UNITED COMMUNITY BANKS INC	UCB	90984P303	857855	6020	522110.0	P	01	LC	89323	42912	2002-03-18	E	ucbio
64821	64821	ALEXANDRIA R E EQUITIES INC	ARE	015271109	1035443	6798	531120.0	P	01	LC	84767	31965	1997-05-23	E	are
64835	64835	RYANAIR HOLDINGS PLC	RYAAY	783513203	1038683	4512	481111.0	P	90	LC	84828	15500	1997-06-02	E	ryaay
64835	64835	RYANAIR HOLDINGS PLC	RYAAY	783513203	1038683	4512	481111.0	P	90	LC	84828	15500	1997-06-02	E	ryaof
64848	64848	KMG CHEMICALS INC	KMG	482564101	1028215	2860	325180.0	P	01	LU	85019	15505	1997-06-02	2018-11-30	
64850	64850	REIS INC	REIS	75936P105	1038222	7370	519130.0	P	01	LU	85079	32016	1997-06-06	2018-10-31	
64853	64853	QORVO INC	QRVO	74736K101	1604778	3674	334413.0	P	01	LC	85035	15506	1997-06-03	E	qrvo
64857	64857	SAREPTA THERAPEUTICS INC	SRPT	803607100	873303	2836	325414.0	P	01	LC	85002	15507	1997-06-04	E	srpt
64891	64891	RALPH LAUREN CORP	RL	751212101	1037038	2300	315.0	P	01	LU	85072	32009	1997-06-12	E	rl
64901	64901	MAXIMUS INC	MMS	577933104	1032220	8741	561110.0	P	01	LU	85067	32004	1997-06-13	E	mms
64910	64910	EDP S A	EDPFY	268353109	1039610	4911	2211.0	P	90	LC	85064	31999	1997-06-17	2007-06-07	
64915	64915	INTEST CORP	INTT	461147100	1036262	3825	334416.0	P	01	LU	85013	15529	1997-06-17	E	intt
64925	64925	BXP INC	BXP	101121101	1037540	6798	531120.0	P	01	LU	85058	31991	1997-06-18	E	bxp
64929	64929	SIMULATIONS PLUS INC	SLP	829214105	1023459	7372	513210.0	P	01	LU	85040	15534	1997-06-18	E	slp
64934	64934	INDUS REALTY TRUST INC	INDT	45580R103	1037390	6798	531120.0	P	01	LC	85982	16075	1998-04-29	2023-06-30	indt
64942	64942	STARTEK INC -OLD	SRT.2	85593H999	0	7389	561499.0	P	01	LC	85077	32014	1997-06-19	2018-07-23	
64979	64979	PACIFIC PREMIER BANCORP INC	PPBI	69478X105	1028918	6020	522110.0	P	01	LU	85020	15547	1997-06-25	E	ppbi
64997	64997	COMFORT SYSTEMS USA INC	FIX	199908104	1035983	1700	238220.0	P	01	LU	85059	31994	1997-06-27	E	fix
65006	65006	HELIX ENERGY SOLUTIONS GROUP	HLX	42330P107	866829	1389	213112.0	P	01	LC	85168	15563	1997-07-01	E	hlx
65009	65009	ARCHROCK INC	AROC	03957W106	1389050	3533	333132.0	P	01	LC	92245	52690	2007-08-21	E	aroc
65009	65009	ARCHROCK INC	AROC	03957W106	1389050	3533	333132.0	P	01	LC	85240	32035	1997-07-01	2007-08-20	aroc
65011	65011	HESKA CORP	HSKA	42805E306	1038133	2835	325413.0	P	01	LC	85187	15560	1997-07-01	2023-06-30	hska
65021	65021	8X8 INC	EGHT	282914100	1023731	7370	518210.0	P	01	LC	85177	15567	1997-07-02	E	eght
65036	65036	QUICKLOGIC CORP	QUIK	74837P405	882508	3674	334413.0	P	01	LU	87364	17202	1999-10-15	E	quik
65084	65084	CORECIVIC INC	CXW	21871N101	1070985	6512	531120.0	P	01	LC	85234	32025	1997-07-15	E	cxw
65106	65106	BANK OZK	OZK	06417N103	1569650	6020	522110.0	P	01	LC	85198	15596	2018-07-16	E	ozk
65106	65106	BANK OZK	OZK	06417N103	1569650	6020	522110.0	P	01	LC	85198	15596	2018-07-16	E	ozkap
65106	65106	BANK OZK	OZK	06417N103	1569650	6020	522110.0	P	01	LU	85198	15596	1997-07-17	2018-07-15	ozk
65106	65106	BANK OZK	OZK	06417N103	1569650	6020	522110.0	P	01	LU	85198	15596	1997-07-17	2018-07-15	ozkap
65108	65108	JONES LANG LASALLE INC	JLL	48020Q107	1037976	6531	531390.0	P	01	LU	85246	32039	1997-07-17	E	jll
65176	65176	EVANS BANCORP INC	EVBN	29911Q208	842518	6020	522110.0	C	01	LC	89038	41815	2001-07-09	E	evbn
65189	65189	EDAP TMS SA  -ADR	EDAP	268311107	1041934	3845	334510.0	P	90	LU	85285	15626	1997-08-01	E	edap
65220	65220	CARRIZO OIL & GAS INC	CRZO	144577103	1040593	1311	2111.0	P	01	LU	85280	15633	1997-08-06	2019-12-31	
65226	65226	QAD INC	QADA	74727D306	1036188	7370	518210.0	J	01	LC	85314	15632	2012-03-01	2021-11-30	
65226	65226	QAD INC	QADA	74727D306	1036188	7370	518210.0	P	01	LC	85314	15632	1997-08-06	2012-02-29	
65226	65226	QAD INC	QADA	74727D306	1036188	7370	518210.0	P	02	LC	12493	15632	2012-03-01	2021-11-30	
65226	65226	QAD INC	QADA	74727D306	1036188	7370	518210.0	J	02	LC	12493	15632	2010-12-16	2012-02-29	
65228	65228	COLUMBIA BANKING SYSTEM INC	COLB	197236102	887343	6020	522110.0	C	01	LC	86004	16035	1998-04-02	2023-02-28	colb
65228	65228	COLUMBIA BANKING SYSTEM INC	COLB	197236102	887343	6020	522110.0	C	01	LC	77679	11576	2023-03-01	E	colb
65248	65248	ARCELORMITTAL	MT	03938L203	1243429	3312	331110.0	P	90	LC	85261	32058	1997-08-08	E	mt
65248	65248	ARCELORMITTAL	MT	03938L203	1243429	3312	331110.0	P	90	LC	85261	32058	1997-08-08	E	amsyf
65248	65248	ARCELORMITTAL	MT	03938L203	1243429	3312	331110.0	P	90	LC	85261	32058	1997-08-08	E	arcxf
65248	65248	ARCELORMITTAL	MT	03938L203	1243429	3312	331110.0	P	90	LC	85261	32058	1997-08-08	E	amsiy
65248	65248	ARCELORMITTAL	MT	03938L203	1243429	3312	331110.0	P	90	LC	85261	32058	1997-08-08	E	mtcn
65270	65270	SYNTEL INC	SYNT	87162H103	1040426	7370	541519.0	P	01	LU	85319	15648	1997-08-12	2018-10-31	
65275	65275	BRIGHT HORIZONS FAMILY SOLTN	BFAM	109194100	1437578	8351	624410.0	P	01	LC	85531	15812	1998-07-27	2008-05-28	bfam
65275	65275	BRIGHT HORIZONS FAMILY SOLTN	BFAM	109194100	1437578	8351	624410.0	P	01	LC	85276	15651	1997-08-13	1998-07-24	bfam
65275	65275	BRIGHT HORIZONS FAMILY SOLTN	BFAM	109194100	1437578	8351	624410.0	P	02	LC	13739	54297	2013-01-25	E	bfam
65286	65286	AEHR TEST SYSTEMS	AEHR	00760J108	1040470	3825	334515.0	P	01	LU	85272	15658	1997-08-15	E	aehr
65290	65290	SL GREEN REALTY CORP	SLG	78440X887	1040971	6798	531120.0	P	01	LU	85265	32062	1997-08-15	E	slg
65290	65290	SL GREEN REALTY CORP	SLG	78440X887	1040971	6798	531120.0	P	01	LU	85265	32062	1997-08-15	E	slg-pi
65343	65343	PRICESMART INC	PSMT	741511109	1041803	5331	455219.0	P	01	LU	85394	15678	1997-09-02	E	psmt
65344	65344	VIRTRA INC	VTSI	92827K301	1085243	3690	335999.0	C	01	LC	17373	56306	2018-03-29	E	vtsi
65376	65376	SIGA TECHNOLOGIES INC	SIGA	826917106	1010086	2836	325414.0	P	01	LC	85401	15686	2018-03-22	E	siga
65376	65376	SIGA TECHNOLOGIES INC	SIGA	826917106	1010086	2836	325414.0	P	01	LC	85401	15686	1997-09-09	2015-03-19	siga
65380	65380	ELBIT SYSTEMS LTD	ESLT	M3760D101	1027664	3812	334511.0	P	01	LU	84207	15192	1996-11-29	E	eslt
65399	65399	MERITOR INC	MTOR	59001K100	1113256	3714	336330.0	P	01	LC	85349	32092	1997-10-01	2022-08-31	
65406	65406	PETMED EXPRESS INC	PETS	716382106	1040130	5912	456110.0	P	01	LC	90012	44816	2004-01-23	E	pets
65417	65417	YUM BRANDS INC	YUM	988498101	1041061	5812	722513.0	P	01	LC	85348	32093	1997-10-07	E	yum
65421	65421	FARO TECHNOLOGIES INC	FARO	311642102	917491	3829	334519.0	P	01	LU	85372	15692	1997-09-18	E	faro
65423	65423	MODERN TIMES GROUP MTG AB	MTGNY	607698107	1404424	4833	515120.0	P	90	LC	85384	15694	1997-09-18	2003-12-31	
65430	65430	CHILDRENS PLACE INC	PLCE	168905107	1041859	5600	458110.0	P	01	LU	85390	15697	1997-09-19	E	plce
65459	65459	SPECTRUM BRANDS HOLDINGS INC	SPB.1	84763R101	1487730	3690	335912.0	P	03	LC	93295	32162	2010-03-18	2018-07-31	
65459	65459	SPECTRUM BRANDS HOLDINGS INC	SPB.1	84763R101	1487730	3690	335912.0	P	01	LC	85625	32162	1997-11-21	2008-12-19	
65460	65460	RADCOM	RDCM	M81865111	1016838	7370	518210.0	P	01	LU	85397	15708	1997-09-24	E	rdcm
65500	65500	NORDIC AMERICAN TANKERS LTD	NAT	G65773106	1000177	4400	483111.0	P	01	LU	85346	32090	1997-09-30	E	nat
65540	65540	LESAKA TECHNOLOGIES INC	LSAK	64107N206	1041514	7374	518210.0	C	01	LC	90875	47220	2005-08-03	E	lsak
65548	65548	CAMDEN NATIONAL CORP	CAC	133034108	750686	6020	522110.0	P	01	LU	85418	32101	1997-10-07	E	cac
65552	65552	IDENTIV INC	INVE	45170X205	1036044	3577	334118.0	P	01	LC	85502	15745	1997-10-07	E	inve
65556	65556	ANNALY CAPITAL MANAGEMENT	NLY	035710839	1043219	6798	525990.0	P	01	LU	85414	32098	1997-10-08	E	nly
65556	65556	ANNALY CAPITAL MANAGEMENT	NLY	035710839	1043219	6798	525990.0	P	01	LU	85414	32098	1997-10-08	E	nly-pf
65556	65556	ANNALY CAPITAL MANAGEMENT	NLY	035710839	1043219	6798	525990.0	P	01	LU	85414	32098	1997-10-08	E	nly-pg
65556	65556	ANNALY CAPITAL MANAGEMENT	NLY	035710839	1043219	6798	525990.0	P	01	LU	85414	32098	1997-10-08	E	nly-pi
65587	65587	NATIONAL RESEARCH CORP	NRC	637372202	70487	7389	541990.0	J	01	LC	85482	15751	2013-11-01	2018-04-30	nrc
65587	65587	NATIONAL RESEARCH CORP	NRC	637372202	70487	7389	541990.0	P	01	LC	85482	15751	1997-10-10	2013-10-31	nrc
65587	65587	NATIONAL RESEARCH CORP	NRC	637372202	70487	7389	541990.0	P	02	LC	13935	15751	2013-11-01	E	nrc
65587	65587	NATIONAL RESEARCH CORP	NRC	637372202	70487	7389	541990.0	J	02	LC	13935	15751	2013-05-23	2013-10-31	nrc
65590	65590	STONERIDGE INC	SRI	86183P102	1043337	3679	334419.0	P	01	LU	85440	32122	1997-10-10	E	sri
65605	65605	RB GLOBAL INC	RBA	74935Q107	1046102	7389	561499.0	P	01	LC	85925	34701	1998-03-10	E	rba
65607	65607	OSI SYSTEMS INC	OSIS	671044105	1039065	3844	334519.0	P	01	LU	85488	15739	1997-10-02	E	osis
65609	65609	C H ROBINSON WORLDWIDE INC	CHRW	12541W209	1043277	4213	484121.0	P	01	LU	85459	15758	1997-10-15	E	chrw
65615	65615	CHOICE HOTELS INTL INC	CHH	169905106	1046311	6794	533110.0	P	01	LU	85517	32132	1997-10-16	E	chh
65640	65640	CENTRESPACE	CSR	15202L107	798359	6798	531190.0	P	01	LU	85472	15761	1997-10-17	E	csr
65640	65640	CENTRESPACE	CSR	15202L107	798359	6798	531190.0	P	01	LU	85472	15761	1997-10-17	E	csr-pc
65662	65662	CHINA MOBILE LTD	CHL	16941M109	1117795	4812	517312.0	P	90	LU	85421	32104	1997-10-22	2021-01-29	
65671	65671	INNOVEX INTERNATIONAL INC	INVX	457651107	1042893	3533	333132.0	P	01	LU	85424	32108	1997-10-23	E	drq
65675	65675	ORBITAL INFRAS GROUP INC	OIGBQ	68559A208	1108967	1623	237130.0	C	01	LC	13265	53997	2012-02-17	2023-12-08	oig
65689	65689	MERCANTILE BANK CORP	MBWM	587376104	1042729	6020	522110.0	C	01	LU	87114	35205	1999-07-19	E	mbwm
65702	65702	CASELLA WASTE SYS INC  -CL A	CWST	147448104	911177	4953	562111.0	P	01	LU	85464	15783	1997-10-29	E	cwst
65710	65710	EPR PROPERTIES	EPR	26884U109	1045450	6798	531120.0	P	01	LU	85604	32145	1997-11-18	E	epr
65710	65710	EPR PROPERTIES	EPR	26884U109	1045450	6798	531120.0	P	01	LU	85604	32145	1997-11-18	E	epr-pg
65710	65710	EPR PROPERTIES	EPR	26884U109	1045450	6798	531120.0	P	01	LU	85604	32145	1997-11-18	E	epr-pc
65710	65710	EPR PROPERTIES	EPR	26884U109	1045450	6798	531120.0	P	01	LU	85604	32145	1997-11-18	E	epr-pe
65718	65718	GROUP 1 AUTOMOTIVE INC	GPI	398905109	1031203	5500	441110.0	P	01	LU	85427	32111	1997-10-30	E	gpi
65732	65732	SONIDA SENIOR LIVING INC	SNDA	140475203	1043000	8300	623312.0	P	01	LC	85419	32102	1997-10-31	E	snda
65765	65765	YUNHONG GREEN CTI LTD	YHGJ	98873Q100	1042187	3060	326299.0	P	01	LC	85540	15800	1997-11-05	E	ctib
65772	65772	METTLER-TOLEDO INTL INC	MTD	592688105	1037646	3826	334516.0	P	01	LU	85621	32158	1997-11-14	E	mtd
65796	65796	MIDWESTONE FINANCIAL GROUP	MOFG	598511103	1412665	6020	522110.0	C	01	LC	92593	52970	2008-03-17	E	mofg
65831	65831	SONIC AUTOMOTIVE INC  -CL A	SAH	83545G102	1043509	5500	441110.0	P	01	LU	85627	32164	1997-11-12	E	sah
65850	65850	CHARLES & COLVARD LTD	CTHR	159765205	1015155	3290	327999.0	P	01	LU	85539	15826	1997-11-14	E	cthr
65872	65872	PROGENICS PHARMACEUTICAL INC	PGNX	743187106	835887	2836	325414.0	P	01	LU	85571	15832	1997-11-19	2020-06-30	
65886	65886	AFFILIATED MANAGERS GRP INC	AMG	008252108	1004434	6282	523940.0	P	01	LU	85593	32136	1997-11-21	E	amg
65886	65886	AFFILIATED MANAGERS GRP INC	AMG	008252108	1004434	6282	523940.0	P	01	LU	85593	32136	1997-11-21	E	aatrl
65886	65886	AFFILIATED MANAGERS GRP INC	AMG	008252108	1004434	6282	523940.0	P	01	LU	85593	32136	1997-11-21	E	mgr
65886	65886	AFFILIATED MANAGERS GRP INC	AMG	008252108	1004434	6282	523940.0	P	01	LU	85593	32136	1997-11-21	E	mgrb
65886	65886	AFFILIATED MANAGERS GRP INC	AMG	008252108	1004434	6282	523940.0	P	01	LU	85593	32136	1997-11-21	E	mgrd
65896	65896	GEOSPACE TECHNOLOGIES CORP	GEOS	37364X109	1001115	3829	334519.0	P	01	LC	85567	15841	1997-11-21	E	geos
65899	65899	REALNETWORKS INC	RNWK	75605L708	1046327	7370	519130.0	P	01	LU	85576	15843	1997-11-21	2022-12-30	rnwk
65905	65905	INOTIV INC	NOTV	45783Q100	720154	8731	541714.0	P	01	LU	85526	15849	1997-11-25	E	notv
65921	65921	GOLDEN MINERALS CO	AUMN	381119403	1011509	1040	212220.0	P	02	LC	93285	53358	2010-03-19	E	aumn
65921	65921	GOLDEN MINERALS CO	AUMN	381119403	1011509	1040	212220.0	P	01	LC	85633	32169	1997-11-25	2009-01-12	aumn
65937	65937	NANOPHASE TECHNOLOGIES CORP	NANX	630079101	883107	2810	325130.0	P	01	LU	85565	15858	1997-11-26	E	nanx
65944	65944	ASSERTIO HOLDINGS INC	ASRT	04546C205	1808665	2834	325412.0	P	01	LU	85686	15802	1997-12-03	E	asrt
65967	65967	ENVISION HEALTHCARE CORP	EVHC	29414D100	1678531	8011	621493.0	J	02	LU	85676	15867	1997-12-04	2001-07-31	
65967	65967	ENVISION HEALTHCARE CORP	EVHC	29414D100	1678531	8011	621493.0	P	01	LC	85675	15867	1997-12-04	2018-10-10	
65986	65986	BLACKBERRY LTD	BB	09228F103	1070235	7372	513210.0	P	01	LC	86745	16396	1999-02-04	E	bb
66001	66001	SKY NETWORK TELEVISION LTD	NZSKY	83080U102	1050006	4841	513210.0	P	90	LU	86214	15877	1997-12-09	2000-06-23	
66016	66016	INGREDION INC	INGR	457187102	1046257	2040	311221.0	P	01	LC	85645	32174	1997-12-11	E	ingr
66032	66032	POWER INTEGRATIONS INC	POWI	739276103	833640	3674	334413.0	P	01	LU	85710	15890	1997-12-12	E	powi
66065	66065	UNITED RENTALS INC	URI	911363109	1067701	7350	532412.0	P	01	LU	85663	32191	1997-12-18	E	uri
66085	66085	ARLINGTON ASSET INVESTMENT	AAIC	041356205	1209028	6799	523999.0	P	01	LC	85653	32183	1997-12-23	2023-12-29	aaic
66085	66085	ARLINGTON ASSET INVESTMENT	AAIC	041356205	1209028	6799	523999.0	P	01	LC	85653	32183	1997-12-23	2023-12-29	aic
66085	66085	ARLINGTON ASSET INVESTMENT	AAIC	041356205	1209028	6799	523999.0	P	01	LC	85653	32183	1997-12-23	2023-12-29	aaic-pb
66085	66085	ARLINGTON ASSET INVESTMENT	AAIC	041356205	1209028	6799	523999.0	P	01	LC	85653	32183	1997-12-23	2023-12-29	aaic-pc
66085	66085	ARLINGTON ASSET INVESTMENT	AAIC	041356205	1209028	6799	523999.0	P	01	LC	85653	32183	1997-12-23	2023-12-29	aain
66235	66235	HOPE BANCORP INC	HOPE	43940T109	1128361	6020	522110.0	P	01	LC	85741	15933	1998-01-29	E	hope
66261	66261	LIVE VENTURES INC	LIVE	538142308	1045742	5700	449210.0	P	01	LC	92557	52950	2008-02-01	E	live
66285	66285	HERITAGE FINANCIAL CORP	HFWA	42722X106	1046025	6020	522110.0	P	01	LC	85731	15918	1998-01-09	E	hfwa
66290	66290	STEELCASE INC	SCS	858155203	1050825	2522	337214.0	P	01	LU	85796	34665	1998-02-18	E	scs
66326	66326	DESCARTES SYSTEMS GROUP INC	DSGX	249906108	1050140	7372	513210.0	P	01	LU	86572	16384	1999-01-27	E	dsgx
66354	66354	W P CAREY INC	WPC	92936U109	1025378	6798	531120.0	P	01	LC	85763	34627	1998-01-21	E	wpc
66366	66366	ROCKWELL MEDICAL INC	RMTI	774374300	1041024	3842	339113.0	P	01	LC	85744	15928	1998-01-27	E	rmti
66368	66368	VERISIGN INC	VRSN	92343E102	1014473	7370	519290.0	P	01	LU	85753	15940	1998-01-30	E	vrsn
66374	66374	CORREVIO PHARMA CORP	CORV	22026V105	1036141	2834	325412.0	C	01	LC	90279	45419	2004-07-06	2020-05-31	
66379	66379	PERDOCEO EDUCATION CORP	PRDO	71363P106	1046568	8200	611310.0	P	01	LC	85724	15934	1998-01-29	E	prdo
66393	66393	MERCURY SYSTEMS INC	MRCY	589378108	1049521	3674	334413.0	P	01	LU	85738	15939	1998-01-30	E	mrcy
66405	66405	GREAT PANTHER MINING LTD	GPLDF	39115V309	1300050	1044	212222.0	C	01	LC	12556	53664	2011-02-08	2022-09-13	gpldf
66405	66405	GREAT PANTHER MINING LTD	GPLDF	39115V309	1300050	1044	212222.0	C	01	LC	12556	53664	2011-02-08	2022-09-13	gpl
66446	66446	QUANTA SERVICES INC	PWR	74762E102	1050915	1731	238210.0	P	01	LU	85792	34660	1998-02-12	E	pwr
66504	66504	COLONY BANKCORP INC	CBAN	19623P101	711669	6020	522110.0	P	01	LU	85966	16037	1998-04-02	E	cban
66586	66586	PC CONNECTION INC	CNXN	69318J100	1050377	5045	423430.0	P	01	LU	85886	15994	1998-03-03	E	cnxn
66588	66588	SURMODICS INC	SRDX	868873100	924717	6794	533110.0	P	01	LU	85889	15995	1998-03-04	E	srdx
66599	66599	WADDELL&REED FINL INC  -CL A	WDR	930059100	1052100	6282	523930.0	J	03	LU	86380	34707	1998-11-09	2001-05-31	
66599	66599	WADDELL&REED FINL INC  -CL A	WDR	930059100	1052100	6282	523930.0	P	01	LC	85931	34707	1998-03-05	2021-05-28	
66610	66610	BIRNER DENTAL MGMT SVCS INC	BDMS	091283200	948072	8000	621210.0	P	01	LU	85804	15962	1998-02-11	2019-01-31	
66654	66654	ANWORTH MTG ASSET CORP	ANH	037347101	1047884	6798	531190.0	P	01	LU	85897	34672	1998-03-12	2021-03-31	
66686	66686	ONESPAN INC	OSPN	68287N100	1044777	3669	334290.0	P	01	LC	88203	37195	2000-04-07	E	ospn
66697	66697	INOVIO PHARMACEUTICALS INC	INO	45773H409	1055726	2836	325414.0	P	01	LC	86444	34949	1998-12-08	E	ino
66731	66731	FEDERATED HERMES INC	FHI	314211103	1056288	6282	523940.0	P	01	LU	86102	34765	1998-05-14	E	fhi
66871	66871	HILLMAN SOLUTIONS CORP	HLMN	431636109	1822492	3452	332722.0	P	01	LC	20153	57447	2021-07-15	E	hlmn
66929	66929	TURNING POINT BRANDS INC	TPB	90041L105	1290677	2100	312230.0	P	01	LC	16083	55581	2016-05-31	E	tpb
100075	100075	RELX NV	RENX	75955B102	929872	2721	511120.0	P	91	LC	81030	30486	1994-10-06	2018-09-28	
100080	100080	BAYER AG	BAYRY	072730302	1144145	2800	325.0	P	90	LC	17209	453	2002-01-24	2007-09-26	
100091	100091	RENTOKIL INITIAL PLC	RTO	760125104	930157	7340	561710.0	C	90	LC	23486	59427	2022-10-12	E	rto
100091	100091	RENTOKIL INITIAL PLC	RTO	760125104	930157	7340	561710.0	C	90	LC	23486	59427	2022-10-12	E	rklif
100091	100091	RENTOKIL INITIAL PLC	RTO	760125104	930157	7340	561710.0	C	90	LC	23486	59427	2022-10-12	E	rtoky
100095	100095	BUNZL PLC	BZLFY	120738406	1072397	5110	424130.0	P	90	LC	86366	34879	1998-10-29	2007-06-01	
100165	100165	SANTOS LTD	SSLZY	803021807	1470579	1311	211130.0	P	90	LC	68815	4290	1982-01-29	2009-07-30	
100243	100243	AMCOR PLC	AMCR	G0250X107	1748790	2670	326112.0	P	90	LC	78844	29217	1993-01-11	2007-06-13	amcr
100243	100243	AMCOR PLC	AMCR	G0250X107	1748790	2670	326112.0	P	90	LC	78844	29217	1993-01-11	2007-06-13	amccf
100243	100243	AMCOR PLC	AMCR	G0250X107	1748790	2670	326112.0	P	03	LC	18724	56767	2019-06-11	E	amcr
100243	100243	AMCOR PLC	AMCR	G0250X107	1748790	2670	326112.0	P	03	LC	18724	56767	2019-06-11	E	amccf
100245	100245	ADVANTEST CORP	ATEYY	00762U200	1158838	3825	334515.0	P	90	LC	89150	42120	2001-09-17	2016-04-21	ateyy
100245	100245	ADVANTEST CORP	ATEYY	00762U200	1158838	3825	334515.0	P	90	LC	89150	42120	2001-09-17	2016-04-21	adttf
100338	100338	RELX PLC	RELX	759530108	929869	2721	511120.0	P	92	LC	81046	30501	1994-10-06	E	relx
100338	100338	RELX PLC	RELX	759530108	929869	2721	511120.0	P	92	LC	81046	30501	1994-10-06	E	rlxxf
100401	100401	SPIRENT COMMUNICATIONS	SPMYY	84856M209	1130498	3825	334416.0	P	90	LC	89066	41865	2001-07-10	2007-06-13	
100465	100465	SASOL LTD	SSL	803866300	314590	2890	325998.0	P	90	LU	68866	5363	1982-04-26	E	ssl
100465	100465	SASOL LTD	SSL	803866300	314590	2890	325998.0	P	90	LU	68866	5363	1982-04-26	E	sasof
100477	100477	JAMES HARDIE INDUSTRIES PLC	JHX	47030M106	1159152	3270	327420.0	P	90	LC	89191	42282	2001-10-22	E	jhx
100477	100477	JAMES HARDIE INDUSTRIES PLC	JHX	47030M106	1159152	3270	327420.0	P	90	LC	89191	42282	2001-10-22	E	jhiuf
100572	100572	PEARSON PLC	PSO	705015105	938323	8200	611.0	P	90	LC	88595	39138	2000-09-01	E	pso
100572	100572	PEARSON PLC	PSO	705015105	938323	8200	611.0	P	90	LC	88595	39138	2000-09-01	E	psorf
100590	100590	E.ON SE	EONGY	268780103	1136808	9997	2211.0	P	90	LC	85446	32128	1997-10-08	2007-09-07	
100644	100644	FERGUSON ENTERPRISES INC	FERG	31488V107	2011641	5070	423720.0	P	90	LC	89000	41595	2001-05-31	2007-12-28	
100644	100644	FERGUSON ENTERPRISES INC	FERG	31488V107	2011641	5070	423720.0	P	01	LC	20745	58054	2021-04-30	E	
100712	100712	WOODSIDE ENERGY GROUP LTD	WDS	980228308	844551	1311	2111.0	C	90	LC	23169	59307	2022-06-02	E	wds
100712	100712	WOODSIDE ENERGY GROUP LTD	WDS	980228308	844551	1311	2111.0	C	90	LC	23169	59307	2022-06-02	E	wopef
100718	100718	TAKEDA PHARMACEUTICAL CO LTD	TAK	874060205	1395064	2834	325412.0	P	91	LC	18298	56602	2018-12-24	E	tak
100718	100718	TAKEDA PHARMACEUTICAL CO LTD	TAK	874060205	1395064	2834	325412.0	P	91	LC	18298	56602	2018-12-24	E	tkphf
100862	100862	ADECCO GROUP AG	AHEXY	006754204	1446251	7363	561320.0	C	90	LC	81195	13507	2007-06-01	2007-06-01	
100862	100862	ADECCO GROUP AG	AHEXY	006754204	1446251	7363	561320.0	P	90	LC	81195	13507	1995-01-10	2007-05-31	
100873	100873	NIELSEN HOLDINGS PLC	NLSN	G6518L108	1492633	8700	541910.0	P	03	LC	12542	53656	2011-01-26	2022-10-31	nlsn
100956	100956	SWEDISH MATCH AB	SWMAY	870309606	1011218	2100	312229.0	J	90	LU	83563	14624	2004-10-01	2004-10-29	swmay
100956	100956	SWEDISH MATCH AB	SWMAY	870309606	1011218	2100	312229.0	J	90	LU	83563	14624	2004-10-01	2004-10-29	swmaf
100956	100956	SWEDISH MATCH AB	SWMAY	870309606	1011218	2100	312229.0	P	90	LU	83563	14624	1996-05-15	2004-09-30	swmay
100956	100956	SWEDISH MATCH AB	SWMAY	870309606	1011218	2100	312229.0	P	90	LU	83563	14624	1996-05-15	2004-09-30	swmaf
101020	101020	STORA ENSO OYJ	SEOAY	86210M106	1107458	2621	322120.0	P	90	LC	88603	39146	2000-09-13	2007-12-28	
101204	101204	SANOFI	SNY	80105N105	1121404	2834	325412.0	P	90	LC	89475	43351	2002-07-01	E	sny
101204	101204	SANOFI	SNY	80105N105	1121404	2834	325412.0	P	90	LC	89475	43351	2002-07-01	E	snynf
101256	101256	FISHER & PAYKEL HEALTHCARE	FPHC	33774M106	1144690	3842	339113.0	P	90	LC	89206	42388	2001-11-13	2003-02-27	
101264	101264	VIVENDI SE	VIVHY	92852T201	1127055	4833	516120.0	P	90	LC	88614	39149	2000-09-12	2006-08-03	vivhy
101264	101264	VIVENDI SE	VIVHY	92852T201	1127055	4833	516120.0	P	90	LC	88614	39149	2000-09-12	2006-08-03	vivef
101276	101276	STELLANTIS NV	STLA	N82405106	1605484	3711	336111.0	P	01	LC	14987	55064	2021-01-19	E	stla
101292	101292	PUBLICIS GROUPE SA	PUBGY	74463M106	1050952	7311	541810.0	P	90	LC	88598	39141	2000-09-12	2007-09-26	
101310	101310	NOVARTIS AG	NVS	66987V109	1114448	2834	325412.0	P	90	LC	88233	37497	2000-05-11	E	nvs
101310	101310	NOVARTIS AG	NVS	66987V109	1114448	2834	325412.0	P	90	LC	88233	37497	2000-05-11	E	nvsef
101317	101317	SMITH & NEPHEW PLC	SNN	83175M205	845982	3842	339113.0	P	90	LC	87444	36379	1999-11-16	E	snn
101317	101317	SMITH & NEPHEW PLC	SNN	83175M205	845982	3842	339113.0	P	90	LC	87444	36379	1999-11-16	E	snnuf
101475	101475	AIR FRANCE KLM SA	AFLYY	009119108	1110452	4512	481111.0	P	90	LC	90157	45166	2004-05-05	2008-02-06	
101718	101718	UPM KYMMENE OYJ	UPMMY	915436208	1089642	2621	322121.0	P	90	LC	89696	35169	1999-06-29	2007-12-05	
101973	101973	TORM PLC	TRMD	G89479102	1655891	4412	483111.0	P	90	LC	89356	42999	2002-04-17	2013-07-19	trmd
101973	101973	TORM PLC	TRMD	G89479102	1655891	4412	483111.0	P	01	LC	17157	56182	2018-03-09	E	trmd
102089	102089	SODEXO S A	SDXAY	833792104	1169715	5812	722310.0	P	90	LC	89378	43022	2002-04-03	2007-07-13	
102341	102341	HARMONY GOLD MINING CO LTD	HMY	413216300	1023514	1040	212220.0	C	90	LU	84083	15005	1996-10-02	E	hmy
102341	102341	HARMONY GOLD MINING CO LTD	HMY	413216300	1023514	1040	212220.0	C	90	LU	84083	15005	1996-10-02	E	hgmcf
102345	102345	NELES OYJ	MXCY	592671101	1013626	3561	333914.0	P	91	LC	83463	31648	1996-06-04	2007-09-14	
102422	102422	SAPPI LTD	SPPJY	803069202	1072483	2670	322220.0	P	90	LU	86413	34921	1998-11-05	E	
102696	102696	LOGITECH INTERNATIONAL SA	LOGI	H50430232	1032975	3577	334118.0	P	02	LC	84621	15412	2006-10-23	E	logi
102696	102696	LOGITECH INTERNATIONAL SA	LOGI	H50430232	1032975	3577	334118.0	P	02	LC	19673	15412	1997-03-27	2006-10-22	logi
102704	102704	UNITED UTILITIES GROUP PLC	UUGRY	91311E102	1440130	4941	221310.0	P	90	LC	85777	34642	1998-01-29	2007-06-22	
102983	102983	VIRIDIEN SOCIETE ANONYME	VIRDY	12531Q303	1037962	1382	541360.0	P	90	LC	84772	31971	1997-05-09	2018-10-01	
103487	103487	SAP SE	SAP	803054204	1000184	7372	513210.0	P	90	LC	89382	34858	1998-08-03	E	sap
103487	103487	SAP SE	SAP	803054204	1000184	7372	513210.0	P	90	LC	89382	34858	1998-08-03	E	sapgf
104432	104432	NORWEGIAN CRUISE LINE HLDGS	NCLH	G66721104	1513761	4400	483112.0	P	01	LC	13760	54313	2013-01-18	E	nclh
104831	104831	SPARK NEW ZEALAND LTD	SPKKY	84652A102	875809	4812	517112.0	P	90	LC	76760	29055	1991-07-17	2012-07-09	
105089	105089	CEMEX S A B DE C V	CX	151290889	1076378	3241	327310.0	P	96	LC	87204	31879	1999-09-15	E	cx
105089	105089	CEMEX S A B DE C V	CX	151290889	1076378	3241	327310.0	P	96	LC	87204	31879	1999-09-15	E	cxmsf
105365	105365	AMERICAN TOWER CORP	AMT	03027X100	1053507	6798	531120.0	P	01	LC	86111	34770	1998-06-05	E	amt
105394	105394	PAYSIGN INC	PAYS	70451A104	1496443	7389	522320.0	C	01	LC	18058	56495	2018-08-31	E	pays
105661	105661	KIRKLAND LAKE GOLD LTD	KL	49741E100	1713443	1040	212221.0	P	01	LC	16865	56034	2017-08-16	2022-02-28	
105670	105670	BROOKLINE BANCORP INC	BRKL	11373M107	1049782	6020	522110.0	P	01	LU	85860	16026	1998-03-25	E	brkl
105811	105811	HIVE DIGITAL TECHNOLOGIE LTD	HIVE	433921103	1720424	7370	518210.0	P	01	LC	21724	58571	2021-07-01	E	hive
105861	105861	WHEATON PRECIOUS METALS CORP	WPM	962879102	1323404	1040	212221.0	P	01	LC	90796	47004	2005-07-06	E	wpm
105936	105936	COLUMBIA SPORTSWEAR CO	COLM	198516106	1050797	2300	315.0	P	01	LU	85863	16029	1998-03-27	E	colm
106003	106003	LARGO INC	LGO	517097101	1400438	1090	212290.0	P	01	LC	21074	58210	2021-04-19	E	lgo
106112	106112	NEW GOLD INC	NGD	644535106	800166	1040	212220.0	P	01	LC	90433	45863	2004-11-18	E	ngd
106126	106126	APPLIED DNA SCIENCES INC	APDN	03815U508	744452	8731	541714.0	C	01	LC	15057	55103	2014-11-17	E	apdn
106261	106261	ELITE PHARMACEUTICALS INC	ELTP	28659T200	1053369	2834	325412.0	P	01	LC	87580	36760	2000-02-24	2009-05-20	eltp
106815	106815	OTE - HELLENIC TELECOM ORG	HLTOY	423325307	1071672	4813	517111.0	P	90	LC	86403	34909	1998-11-04	2010-09-17	
106965	106965	SANGOMA TECHNOLOGIES CORP	SANG	80100R408	1753368	3663	334220.0	C	01	LC	22598	59101	2021-12-16	E	sang
107098	107098	FORTUNA MINING CORP	FSM	349942102	1341335	1040	21222.0	P	01	LC	12982	53877	2011-09-20	E	fsm
107154	107154	KLONDEX MINES LTD	KLDX	498696103	1311605	1040	212221.0	P	01	LC	15723	55427	2015-10-07	2018-07-31	
107245	107245	ENDEAVOUR SILVER CORP	EXK	29258Y103	1277866	1044	212220.0	P	01	LC	91689	51636	2007-01-29	E	exk
107258	107258	SIERRA METALS INC	SMTSF	82639W106	1705259	1000	212230.0	P	01	LC	16844	56021	2017-07-11	E	smts
107446	107446	NETSOL TECHNOLOGIES INC	NTWK	64115A402	1039280	7372	513210.0	P	01	LU	87508	17664	1999-12-23	E	ntwk
107710	107710	OSISKO GOLD ROYALTIES	OR	68827L101	1627272	1040	212221.0	P	01	LC	16156	55610	2016-07-06	E	or
107712	107712	ENERGY FUELS INC	UUUU	292671708	1385849	1090	212290.0	P	01	LC	14336	54670	2013-12-04	E	uuuu
107781	107781	HUDBAY MINERALS INC	HBM	443628102	1322422	1000	212230.0	P	01	LC	12332	53523	2010-10-25	E	hbm
107843	107843	MARKER THERAPEUTICS INC	MRKR	57055L206	1094038	2836	325414.0	P	01	LC	16472	55795	2016-11-08	E	mrkr
108297	108297	LUNDIN MINING CORP	LUNMF	550372106	1377085	1000	212230.0	P	01	LC	91580	51427	2006-11-01	2008-08-21	
108326	108326	SILVERCORP METALS INC	SVM	82835P103	1340677	1044	212220.0	P	01	LC	92893	53123	2009-02-18	E	svm
108348	108348	PARETEUM CORP	TEUM	69946T207	1084384	7370	518210.0	P	01	LC	13121	53939	2011-12-05	2022-10-31	teum
108391	108391	BELLATRIX EXPLORATION LTD	BXEFF	078314705	1483405	1311	211130.0	N	01	LC	13569	54175	2012-09-24	2019-02-11	
108564	108564	TRANSGENE SA	TRGNY	89365U105	1056910	2836	325414.0	P	90	LC	85890	16027	1998-03-26	2005-09-23	
108645	108645	ULTRA PETROLEUM CORP	UPLCQ	903914208	1022646	1311	211130.0	P	01	LC	88882	41178	2001-01-18	2016-05-02	
108645	108645	ULTRA PETROLEUM CORP	UPLCQ	903914208	1022646	1311	211130.0	P	02	LC	16682	41178	2017-04-13	2019-08-07	
108693	108693	JONES SODA CO	JSDA	48023P106	1083522	2086	312111.0	P	01	LC	90972	48774	2005-11-28	E	jsda
108768	108768	FIRST MAJESTIC SILVER CORP	AG	32076V103	1308648	1040	212220.0	P	01	LC	12447	53608	2010-12-15	E	ag
108831	108831	WESTPORT FUEL SYSTEMS INC	WPRT	960908507	1370416	3714	336310.0	P	01	LC	92776	53078	2008-08-15	E	wprt
108893	108893	YANKUANG ENERGY GROUP CO	YZCAY	984846105	1048098	1220	212115.0	P	90	LU	85932	34708	1998-03-31	E	
109079	109079	RED LION HOTELS CORP	RLH	756764106	1052595	7011	721110.0	P	01	LU	85939	34715	1998-04-03	2021-03-31	
109183	109183	PREFERRED BANK LOS ANGELES	PFBC	740367404	1492165	6020	522110.0	P	01	LC	90603	46284	2005-02-15	E	pfbc
109186	109186	SONIC FOUNDRY INC	SOFO	83545R207	1029744	7372	513210.0	P	01	LC	85953	34728	2022-01-25	E	sofo
109186	109186	SONIC FOUNDRY INC	SOFO	83545R207	1029744	7372	513210.0	P	01	LC	85953	34728	1998-04-22	2018-12-30	sofo
109621	109621	LAKELAND BANCORP INC	LBAI	511637100	846901	6020	522110.0	P	01	LC	87614	18304	2000-02-22	2024-05-31	lbai
109826	109826	MANHATTAN ASSOCIATES INC	MANH	562750109	1056696	7373	541512.0	P	01	LU	85992	16065	1998-04-23	E	manh
109919	109919	CRA INTERNATIONAL INC	CRAI	12618T105	1053706	8111	541110.0	P	01	LU	85972	16066	1998-04-24	E	crai
109926	109926	LASALLE HOTEL PROPERTIES	LHO	517942108	1053532	6798	531110.0	P	01	LC	85947	34722	1998-04-24	2018-11-30	
110039	110039	AMKOR TECHNOLOGY INC	AMKR	031652100	1047127	3674	334413.0	P	01	LU	86047	16080	1998-05-01	E	amkr
110179	110179	VENTAS INC	VTR	92276F100	740260	6798	531110.0	P	01	LC	75819	10302	1998-05-29	E	vtr
110529	110529	SYMBOLIC LOGIC INC	EVOL	30049R209	1052054	7371	541511.0	P	01	LC	86062	16101	1998-05-12	E	evol
110566	110566	INNOSPEC INC	IOSP	45768S105	1054905	2810	325180.0	P	01	LU	86026	34751	1998-05-26	E	iosp
110620	110620	ICON PUBLIC LIMITED COMPANY	ICLR	G4705A100	1060955	8731	541714.0	P	01	LC	86072	16109	2013-02-04	E	iclr
110620	110620	ICON PUBLIC LIMITED COMPANY	ICLR	G4705A100	1060955	8731	541714.0	P	01	LC	19674	16109	1998-05-15	2013-02-03	iclr
110685	110685	L3 TECHNOLOGIES INC	LLL.1	502413107	1039101	3812	334511.0	P	01	LC	86021	34746	1998-05-19	2019-06-30	
110728	110728	INTERPACE BIOSCIENCES INC	IDXG	46062X303	1054102	8071	621511.0	P	01	LC	86083	16119	1998-05-20	E	idxg
110732	110732	WASTE CONNECTIONS INC	WCN	94106B101	1318220	4953	562111.0	P	01	LC	92949	53167	2016-06-01	E	wcn
110732	110732	WASTE CONNECTIONS INC	WCN	94106B101	1318220	4953	562111.0	P	01	LC	86097	16123	1998-05-26	2016-05-31	wcn
110760	110760	AXT INC	AXTI	00246W103	1051627	3674	334413.0	P	01	LU	86051	16121	1998-05-21	E	axti
110979	110979	CAMBRIDGE BANCORP	CATC	132152109	711772	6020	522110.0	P	01	LC	16976	56091	2017-10-18	2024-07-31	catc
111000	111000	HACKETT GROUP INC	HCKT	404609109	1057379	8742	541611.0	P	01	LC	86048	16130	1998-05-28	E	hckt
111064	111064	ULTIMATE SOFTWARE GROUP INC	ULTI	90385D107	1016125	7372	511210.0	P	01	LU	86196	16133	1998-06-02	2019-05-31	
111103	111103	MARINEMAX INC	HZO	567908108	1057060	5500	441222.0	P	01	LU	86128	34788	1998-06-03	E	hzo
111486	111486	GILDAN ACTIVEWEAR INC	GIL	375916103	1061894	2300	315280.0	P	01	LU	86121	34782	1998-06-19	E	gil
111491	111491	SCHOOL SPECIALTY INC	SCOO	807864103	1055454	5961	45411.0	P	01	LC	86189	16144	1998-06-10	2013-02-05	
111534	111534	MICROSTRATEGY INC	MSTR	594972408	1050446	7372	511210.0	P	01	LU	86211	16149	1998-06-11	E	mstr
111629	111629	CREXENDO INC	CXDO	226552107	1075736	7370	519290.0	P	01	LC	87404	17399	2020-07-08	E	cxdo
111629	111629	CREXENDO INC	CXDO	226552107	1075736	7370	519290.0	P	01	LC	87404	17399	2004-08-16	2015-01-12	cxdo
111629	111629	CREXENDO INC	CXDO	226552107	1075736	7370	519290.0	P	01	LC	87404	17399	1999-11-18	2000-12-29	cxdo
111631	111631	DEX MEDIA INC	DXMMQ	25213A107	0	7310	541890.0	P	03	LC	93240	53338	2010-02-01	2013-04-30	
111631	111631	DEX MEDIA INC	DXMMQ	25213A107	0	7310	541890.0	P	01	LC	86109	34769	1998-06-19	2008-12-31	
111631	111631	DEX MEDIA INC	DXMMQ	25213A107	0	7310	541890.0	P	03	LC	13923	54409	2013-05-01	2016-01-06	
111721	111721	EAGLE BANCORP INC/MD	EGBN	268948106	1050441	6020	522110.0	C	01	LU	87318	17183	1999-10-06	E	egbn
111779	111779	COBIZ FINANCIAL INC	COBZ	190897108	1028734	6020	522110.0	P	01	LC	86157	16163	1998-06-18	2018-09-30	
111864	111864	COGNIZANT TECH SOLUTIONS	CTSH	192446102	1058290	7370	541512.0	P	01	LU	86158	16167	1998-06-19	E	ctsh
111873	111873	RH	RH	74967X103	1528849	5712	449110.0	P	01	LC	86187	16169	1998-06-19	2008-06-17	rh
111873	111873	RH	RH	74967X103	1528849	5712	449110.0	P	02	LC	13687	54265	2012-11-02	E	rh
111880	111880	AMDOCS	DOX	G02602103	1062579	7370	5415.0	P	01	LU	86144	34808	1998-06-19	E	dox
111974	111974	TOWNSQUARE MEDIA INC	TSQ	892231101	1499832	4832	516110.0	P	01	LC	87564	17862	2000-01-25	2010-01-07	tsq
111974	111974	TOWNSQUARE MEDIA INC	TSQ	892231101	1499832	4832	516110.0	P	03	LC	14778	54938	2014-07-24	E	tsq
112030	112030	CUMULUS MEDIA INC	CMLS	231082801	1058623	4832	516110.0	C	01	LC	86155	16182	2018-06-01	2018-06-05	cmls
112030	112030	CUMULUS MEDIA INC	CMLS	231082801	1058623	4832	516110.0	P	01	LC	86155	16182	1998-06-26	2018-05-31	cmls
112030	112030	CUMULUS MEDIA INC	CMLS	231082801	1058623	4832	516110.0	P	07	LC	18046	16182	2018-08-01	E	cmls
112111	112111	COSTAR GROUP INC	CSGP	22160N109	1057352	7370	519290.0	P	01	LU	86288	16188	1998-07-01	E	csgp
112116	112116	POSTNL NV	PSTNY	73753A202	1725969	4210	492110.0	P	90	LC	86138	34802	1998-07-02	2007-06-15	
112158	112158	CELESTICA INC	CLS	15101Q207	1030894	3674	334413.0	P	01	LU	86115	34775	1998-07-01	E	cls
112168	112168	REPUBLIC SERVICES INC	RSG	760759100	1060391	4953	562111.0	P	01	LC	86228	34838	1998-07-01	E	rsg
112410	112410	UNITED COMMUNITY FINL CORP	UCFC	909839102	707886	6036	522120.0	P	01	LU	86299	16204	1998-07-09	2020-01-31	
112759	112759	CENTRUS ENERGY CORP	LEU	15643U104	1065059	2810	325180.0	P	02	LC	86233	34843	2014-10-01	E	leu
112759	112759	CENTRUS ENERGY CORP	LEU	15643U104	1065059	2810	325180.0	J	02	LC	86233	34843	2014-09-30	2014-09-30	leu
112759	112759	CENTRUS ENERGY CORP	LEU	15643U104	1065059	2810	325180.0	C	01	LC	86233	34843	2014-09-01	2014-09-29	leu
112759	112759	CENTRUS ENERGY CORP	LEU	15643U104	1065059	2810	325180.0	P	01	LC	86233	34843	1998-07-23	2014-08-31	leu
112819	112819	SHARPS COMPLIANCE CORP	SMED	820017101	898770	4955	562211.0	P	01	LC	92935	53155	2009-05-06	2022-08-31	
112876	112876	ENTERPRISE PRODCT PARTNRS LP	EPD	293792107	1061219	1311	211120.0	P	01	LC	86223	34829	1998-07-28	E	epd
112881	112881	LIMINAL BIOSCIENCES INC	LMNL	53272L202	1351172	2836	325414.0	J	01	LC	19074	56949	2019-11-18	2023-09-29	lmnl
112968	112968	MANNATECH INC	MTEX	563771203	1056358	2834	325412.0	P	01	LU	86728	16415	1999-02-16	E	mtex
113419	113419	CONVERGYS CORP	CVG	212485106	1062047	7389	561499.0	P	01	LC	86305	34849	1998-08-13	2018-10-04	
113490	113490	CROWN CASTLE INC	CCI	22822V101	1051470	6798	531190.0	P	01	LC	86339	16268	1998-08-18	E	cci
114203	114203	CEMTREX INC	CETX	15130G881	1435064	3829	334519.0	P	01	LC	15417	55303	2015-06-25	E	cetx
114203	114203	CEMTREX INC	CETX	15130G881	1435064	3829	334519.0	P	01	LC	15417	55303	2015-06-25	E	cetxp
114415	114415	RICEBRAN TECHNOLOGIES	RIBT	762831303	1063537	2040	311212.0	P	01	LC	14355	54682	2013-12-13	E	ribt
114524	114524	EBAY INC	EBAY	278642103	1065088	5961	455219.0	P	01	LU	86356	16285	1998-09-24	E	ebay
114628	114628	GOLDMAN SACHS GROUP INC	GS	38141G104	886982	6211	523150.0	P	01	LU	86868	35048	1999-05-04	E	gs
114628	114628	GOLDMAN SACHS GROUP INC	GS	38141G104	886982	6211	523150.0	P	01	LU	86868	35048	1999-05-04	E	gs-pa
114628	114628	GOLDMAN SACHS GROUP INC	GS	38141G104	886982	6211	523150.0	P	01	LU	86868	35048	1999-05-04	E	gs-pd
114628	114628	GOLDMAN SACHS GROUP INC	GS	38141G104	886982	6211	523150.0	P	01	LU	86868	35048	1999-05-04	E	gs-pj
114628	114628	GOLDMAN SACHS GROUP INC	GS	38141G104	886982	6211	523150.0	P	01	LU	86868	35048	1999-05-04	E	gs-pk
114628	114628	GOLDMAN SACHS GROUP INC	GS	38141G104	886982	6211	523150.0	P	01	LU	86868	35048	1999-05-04	E	gs-pc
114628	114628	GOLDMAN SACHS GROUP INC	GS	38141G104	886982	6211	523150.0	P	01	LU	86868	35048	1999-05-04	E	gsce
114698	114698	EMAGIN CORP	EMAN	29076N206	1046995	3679	334419.0	P	01	LC	87658	36953	2010-05-18	2023-10-31	eman
114698	114698	EMAGIN CORP	EMAN	29076N206	1046995	3679	334419.0	P	01	LC	87658	36953	2000-03-17	2007-03-11	eman
114927	114927	SWISSCOM AG	SCMWY	871013108	1069336	4813	517111.0	P	90	LC	86376	34895	1998-10-05	2007-08-30	
115044	115044	ALGONQUIN POWER & UTIL CORP	AQN	015857105	1174169	4991	2211.0	P	01	LC	16479	55798	2016-11-29	E	aqn
115044	115044	ALGONQUIN POWER & UTIL CORP	AQN	015857105	1174169	4991	2211.0	P	01	LC	16479	55798	2016-11-29	E	aqna
115044	115044	ALGONQUIN POWER & UTIL CORP	AQN	015857105	1174169	4991	2211.0	P	01	LC	16479	55798	2016-11-29	E	aqnb
115044	115044	ALGONQUIN POWER & UTIL CORP	AQN	015857105	1174169	4991	2211.0	P	01	LC	16479	55798	2016-11-29	E	aqnu
115757	115757	SMITH & WESSON BRANDS INC	SWBI	831754106	1092796	3480	332994.0	P	01	LC	89606	43722	2002-11-29	E	swbi
115766	115766	FEDNAT HOLDING COMPANY	FNHCQ	31431B109	1069996	6331	524126.0	P	01	LC	86435	16310	1998-11-05	2022-11-04	fnhc
115876	115876	PROSPERITY BANCSHARES INC	PB	743606105	1068851	6020	522110.0	P	01	LU	86432	16313	1998-11-12	E	pb
116104	116104	J CREW GROUP INC	0190A	46699D001	1051251	5621	448120.0	C	03	LC	91302	50841	2011-03-01	2011-03-04	
116104	116104	J CREW GROUP INC	0190A	46699D001	1051251	5621	448120.0	P	03	LC	91302	50841	2006-06-28	2011-02-28	
116166	116166	REPOSITRAK INC	TRAK	700215304	50471	7370	518210.0	C	01	LC	12380	53561	2010-11-02	E	pcyg
116209	116209	USIO INC	USIO	917313108	1088034	6099	522320.0	P	01	LC	87753	17489	2015-08-11	E	usio
116209	116209	USIO INC	USIO	917313108	1088034	6099	522320.0	P	01	LC	87753	17489	2000-03-13	2003-02-03	usio
116504	116504	SLEEP NUMBER CORP	SNBR	83125X103	827187	2510	337910.0	P	01	LC	86489	16332	1998-12-04	E	snbr
116772	116772	AVANTAX INC	AVTA	095229100	1068875	6211	523120.0	P	01	LC	86544	16347	1998-12-15	2023-11-30	bcor
116829	116829	CYNERGISTEK INC	CTEK	23258P105	1011432	7374	518210.0	C	01	LC	16915	56053	2017-09-08	2022-09-30	ctek
116829	116829	CYNERGISTEK INC	CTEK	23258P105	1011432	7374	518210.0	C	01	LC	16575	55854	2017-02-14	2017-09-07	ctek
117036	117036	GOLDEN ENTERTAINMENT INC	GDEN	381013101	1071255	7990	721120.0	P	01	LC	86578	16368	2006-03-23	E	gden
117036	117036	GOLDEN ENTERTAINMENT INC	GDEN	381013101	1071255	7990	721120.0	P	01	LC	86578	16368	1999-01-04	2005-08-09	gden
117141	117141	ENTERPRISE FINL SERVICES CP	EFSC	293712105	1025835	6020	522110.0	P	01	LC	90591	46273	2005-02-08	E	efsc
117141	117141	ENTERPRISE FINL SERVICES CP	EFSC	293712105	1025835	6020	522110.0	P	01	LC	90591	46273	2005-02-08	E	efscp
117145	117145	SPANISH BROADCASTING SYS INC	SBSAA	846425833	927720	4832	516110.0	P	01	LC	87342	17295	1999-10-28	2017-01-18	sbsaa
117161	117161	STERLING BANCORP	STL	85917A100	1070154	6020	522110.0	P	01	LC	86582	16374	1999-01-08	2022-02-28	
117260	117260	HERSHA HOSPITALITY TRUST	HT	427825500	1063344	6798	531110.0	P	01	LU	86563	34979	1999-01-21	2023-11-30	ht
117260	117260	HERSHA HOSPITALITY TRUST	HT	427825500	1063344	6798	531110.0	P	01	LU	86563	34979	1999-01-21	2023-11-30	ht-pe
117260	117260	HERSHA HOSPITALITY TRUST	HT	427825500	1063344	6798	531110.0	P	01	LU	86563	34979	1999-01-21	2023-11-30	ht-pc
117260	117260	HERSHA HOSPITALITY TRUST	HT	427825500	1063344	6798	531110.0	P	01	LU	86563	34979	1999-01-21	2023-11-30	ht-pd
117768	117768	NVIDIA CORP	NVDA	67066G104	1045810	3674	334413.0	P	01	LU	86580	16382	1999-01-22	E	nvda
117829	117829	AURINIA PHARMACEUTICALS INC	AUPH	05156V102	1600620	2836	325414.0	C	01	LC	14924	55021	2014-09-02	E	auph
117861	117861	AMERICAN AXLE & MFG HOLDINGS	AXL	024061103	1062231	3714	336350.0	P	01	LU	86547	34964	1999-01-29	E	axl
117902	117902	AUDACY INC	AUDAQ	05070N202	1067837	4832	516110.0	P	01	LC	86560	34977	1999-01-29	2023-05-16	aud
118042	118042	EAST WEST BANCORP INC	EWBC	27579R104	1069157	6020	522110.0	P	01	LU	86719	16402	1999-02-08	E	ewbc
118122	118122	APTIV PLC	APTV	G3265R107	1521332	3714	336320.0	P	01	LC	86591	34988	1999-02-05	2005-10-10	aptv
118122	118122	APTIV PLC	APTV	G3265R107	1521332	3714	336320.0	P	01	LC	86591	34988	1999-02-05	2005-10-10	aptv-pa
118122	118122	APTIV PLC	APTV	G3265R107	1521332	3714	336320.0	P	04	LC	13103	53927	2011-11-17	E	aptv
118122	118122	APTIV PLC	APTV	G3265R107	1521332	3714	336320.0	P	04	LC	13103	53927	2011-11-17	E	aptv-pa
118183	118183	BURCON NUTRASCIENCE CORP	BRCNF	120831102	1158399	2836	325414.0	P	01	LC	13038	53899	2021-05-25	E	brcnf
118183	118183	BURCON NUTRASCIENCE CORP	BRCNF	120831102	1158399	2836	325414.0	P	01	LC	13038	53899	2021-05-25	E	brcn
118183	118183	BURCON NUTRASCIENCE CORP	BRCNF	120831102	1158399	2836	325414.0	P	01	LC	13038	53899	2011-10-27	2018-04-26	brcnf
118183	118183	BURCON NUTRASCIENCE CORP	BRCNF	120831102	1158399	2836	325414.0	P	01	LC	13038	53899	2011-10-27	2018-04-26	brcn
118223	118223	BOTTOMLINE TECHNOLOGIES INC	EPAY	101388106	1073349	7370	519130.0	P	01	LU	86717	16410	1999-02-12	2022-05-31	
118267	118267	KORN FERRY	KFY	500643200	56679	7361	561312.0	P	01	LU	86594	2572	1999-02-11	E	kfy
119173	119173	AUTOWEB INC	AUTO	05335B100	1023364	7370	519130.0	P	01	LC	86763	16449	1999-03-26	2022-09-30	auto
119275	119275	MKS INSTRUMENTS INC	MKSI	55306N104	1049502	3823	334513.0	P	01	LU	86778	16455	1999-03-30	E	mksi
119297	119297	MEDICURE INC	MCUJF	58469E408	1133519	2836	325414.0	P	01	LC	90046	44901	2004-02-17	2008-07-03	mcujf
119314	119314	BOOKING HOLDINGS INC	BKNG	09857L108	1075531	4700	561510.0	P	01	LC	86783	16454	1999-03-30	E	bkng
119316	119316	TREX CO INC	TREX	89531P105	1069878	2400	321219.0	P	01	LU	86810	35037	1999-04-08	E	trex
119574	119574	EXTREME NETWORKS INC	EXTR	30226D106	1078271	3576	334210.0	P	01	LU	86822	16466	1999-04-09	E	extr
120048	120048	HEIDRICK & STRUGGLES INTL	HSII	422819102	1066605	7361	561311.0	P	01	LU	86827	16492	1999-04-27	E	hsii
120093	120093	CNX RESOURCES CORPORATION	CNX	12653C108	1070412	1311	2111.0	P	01	LC	86799	35026	1999-04-30	E	cnx
120297	120297	LIFEPOINT HEALTH INC	LPNT	53219L109	1301611	8062	622110.0	P	01	LC	86899	16517	1999-05-12	2018-11-30	
120301	120301	URBAN ONE INC	UONEK	91705J204	1041657	4832	516110.0	P	04	LC	88372	16512	2000-07-01	E	uone
120301	120301	URBAN ONE INC	UONEK	91705J204	1041657	4832	516110.0	P	04	LC	88372	16512	2000-07-01	E	uonek
120301	120301	URBAN ONE INC	UONEK	91705J204	1041657	4832	516110.0	J	04	LC	88372	16512	2000-06-07	2000-06-30	uone
120301	120301	URBAN ONE INC	UONEK	91705J204	1041657	4832	516110.0	J	04	LC	88372	16512	2000-06-07	2000-06-30	uonek
120301	120301	URBAN ONE INC	UONEK	91705J204	1041657	4832	516110.0	J	01	LC	86916	16512	2000-07-01	E	uone
120301	120301	URBAN ONE INC	UONEK	91705J204	1041657	4832	516110.0	J	01	LC	86916	16512	2000-07-01	E	uonek
120301	120301	URBAN ONE INC	UONEK	91705J204	1041657	4832	516110.0	P	01	LC	86916	16512	1999-05-06	2000-06-30	uone
120301	120301	URBAN ONE INC	UONEK	91705J204	1041657	4832	516110.0	P	01	LC	86916	16512	1999-05-06	2000-06-30	uonek
120334	120334	SIERRA WIRELESS INC	SWIR	826516106	1111863	3663	334220.0	P	01	LC	88266	37530	2000-05-05	2023-01-31	swir
120358	120358	THESTREET INC	TST	88368Q202	1080056	7370	519130.0	P	01	LU	86924	16521	1999-05-11	2019-08-30	
120444	120444	WESCO INTL INC	WCC	95082P105	929008	5063	423610.0	P	01	LU	86876	35057	1999-05-12	E	wcc
120444	120444	WESCO INTL INC	WCC	95082P105	929008	5063	423610.0	P	01	LU	86876	35057	1999-05-12	E	wcc-pa
120794	120794	TC PIPELINES LP	TCP	87233Q108	1075607	6799	486210.0	P	01	LU	86921	16544	1999-05-25	2021-03-31	
120824	120824	U S CONCRETE INC	USCR	90333L201	1073429	3270	327320.0	P	01	LC	86915	16549	1999-05-26	2010-05-07	
120824	120824	U S CONCRETE INC	USCR	90333L201	1073429	3270	327320.0	P	02	LC	12588	16549	2011-02-01	2021-08-31	
120860	120860	AUDIOCODES LTD	AUDC	M15342104	1086434	3661	334210.0	P	01	LU	86929	16560	1999-05-28	E	audc
121077	121077	F5 INC	FFIV	315616102	1048695	7373	541512.0	P	01	LU	86964	16561	1999-06-04	E	ffiv
121142	121142	SKECHERS U S A INC	SKX	830566105	1065837	3140	31621.0	P	01	LU	86949	35167	1999-06-09	E	skx
121257	121257	GREAT ELM GROUP INC	GEG	39037G109	1831096	6799	523910.0	P	01	LC	86990	16581	1999-06-11	E	geg
121257	121257	GREAT ELM GROUP INC	GEG	39037G109	1831096	6799	523910.0	P	01	LC	86990	16581	1999-06-11	E	geggl
121382	121382	SBA COMMUNICATIONS CORP	SBAC	78410G104	1034054	6798	531190.0	P	01	LU	86996	16584	1999-06-16	E	sbac
121440	121440	UNITED THERAPEUTICS CORP	UTHR	91307C102	1082554	2834	325412.0	P	01	LU	87006	16587	1999-06-17	E	uthr
121662	121662	MEET GROUP INC (THE)	MEET	58513U101	1078099	7370	517919.0	P	01	LC	86989	16606	2011-01-21	2020-09-30	
121662	121662	MEET GROUP INC (THE)	MEET	58513U101	1078099	7370	517919.0	P	01	LC	86989	16606	2006-10-24	2009-06-14	
121662	121662	MEET GROUP INC (THE)	MEET	58513U101	1078099	7370	517919.0	P	01	LC	86989	16606	1999-06-24	2000-12-25	
121673	121673	STAMPS.COM INC	STMP	852857200	1082923	7370	519130.0	P	01	LU	87000	16612	1999-06-25	2021-10-29	
121713	121713	FINANCIAL INSTITUTIONS INC	FISI	317585404	862831	6020	522110.0	P	01	LC	86965	16609	1999-06-25	E	fisi
121713	121713	FINANCIAL INSTITUTIONS INC	FISI	317585404	862831	6020	522110.0	P	01	LC	86965	16609	1999-06-25	E	fiiso
121718	121718	JUNIPER NETWORKS INC	JNPR	48203R104	1043604	3576	334118.0	P	01	LU	86979	16614	1999-06-25	E	jnpr
121759	121759	POWERFLEET INC	AIOT	73931J109	1774170	3812	334511.0	P	01	LC	87016	16622	1999-06-30	E	pwfl
121793	121793	CYREN LTD	CYRNQ	M26895132	1084577	7370	519130.0	P	01	LC	87061	16644	1999-07-13	E	cyrn
121815	121815	ENCORE CAPITAL GROUP INC	ECPG	292554102	1084961	6153	522299.0	P	01	LU	87077	16641	1999-07-09	E	ecpg
121817	121817	SALEM MEDIA GROUP INC	SALM	794093104	1050606	4832	516110.0	P	01	LC	87121	16631	1999-07-01	E	salm
122078	122078	NIC INC	EGOV	62914B100	1065332	7370	519130.0	P	01	LU	87066	16650	1999-07-15	2021-04-30	
122172	122172	ZIFF DAVIS INC	ZD	48123V102	1084048	7370	519290.0	P	01	LC	87075	16665	1999-07-23	E	zd
122211	122211	HOOKER FURNISHINGS CORP	HOFT	439038100	1077688	2510	33712.0	P	01	LC	89416	43253	2002-06-27	E	hoft
122257	122257	BIOMARIN PHARMACEUTICAL INC	BMRN	09061G101	1048477	2836	325414.0	P	01	LU	87056	16668	1999-07-23	E	bmrn
122380	122380	LENNOX INTERNATIONAL INC	LII	526107107	1069202	3585	333415.0	P	01	LU	87034	35177	1999-07-29	E	lii
122394	122394	PERFICIENT INC	PRFT	71375U101	1085869	7370	541519.0	P	01	LU	87086	16678	1999-07-29	E	prft
122519	122519	1-800-FLOWERS.COM	FLWS	68243Q106	1084869	5961	455110.0	P	01	LU	87162	16695	1999-08-03	E	flws
122777	122777	POINTS.COM INC	PCOM	73085G109	1204413	7370	519130.0	P	01	LC	12582	53681	2011-02-10	2022-07-05	
122841	122841	RED HAT INC	RHT	756577102	1087423	7372	511210.0	P	01	LC	87184	16753	1999-08-11	2019-07-31	
122902	122902	NETSCOUT SYSTEMS INC	NTCT	64115T104	1078075	7373	541512.0	P	01	LU	87179	16758	1999-08-12	E	ntct
122915	122915	ALLIANCE RESOURCE PTNRS  -LP	ARLP	01877R108	1086600	1220	212115.0	P	01	LU	87198	16779	1999-08-17	E	arlp
122916	122916	REGENETP INC	RGTPQ	731094207	1076682	2836	325414.0	P	01	LC	90539	46107	2005-01-26	2023-06-15	pte
123415	123415	CORUS ENTERTAINMENT INC	CJREF	220874101	1100868	4841	515210.0	P	01	LC	88211	37491	2000-05-10	2010-08-04	
123455	123455	ALAMOS GOLD INC	AGI	011532108	1178819	1040	212220.0	P	01	LC	89845	44390	2003-09-04	2015-07-05	agi
123455	123455	ALAMOS GOLD INC	AGI	011532108	1178819	1040	212220.0	P	01	LC	13763	54315	2015-07-06	E	agi
123998	123998	SWK HOLDINGS CORP	SWKH	78501P203	1089907	6159	5222.0	P	01	LC	87241	17128	1999-09-22	2005-10-14	swkh
123998	123998	SWK HOLDINGS CORP	SWKH	78501P203	1089907	6159	5222.0	P	01	LC	19198	57005	2020-01-23	E	swkh
124036	124036	EGAIN CORP	EGAN	28225C806	1066194	7372	513210.0	P	01	LC	87227	17135	2011-10-12	E	egan
124036	124036	EGAIN CORP	EGAN	28225C806	1066194	7372	513210.0	P	01	LC	87227	17135	1999-09-23	2004-03-07	egan
124042	124042	MANULIFE FINANCIAL CORP	MFC	56501R106	1086888	6311	524113.0	P	01	LC	87212	35276	1999-09-27	E	mfc
124042	124042	MANULIFE FINANCIAL CORP	MFC	56501R106	1086888	6311	524113.0	P	01	LC	87212	35276	1999-09-27	E	mnqff
124046	124046	DIVERSIFIED HEALTHCARE TRUST	DHC	25525P107	1075415	6798	531110.0	P	01	LC	87289	36355	1999-10-13	E	dhc
124046	124046	DIVERSIFIED HEALTHCARE TRUST	DHC	25525P107	1075415	6798	531110.0	P	01	LC	87289	36355	1999-10-13	E	dhcni
124046	124046	DIVERSIFIED HEALTHCARE TRUST	DHC	25525P107	1075415	6798	531110.0	P	01	LC	87289	36355	1999-10-13	E	dhcnl
124254	124254	OMNOVA SOLUTIONS INC	OMN	682129101	1090061	2821	325211.0	P	01	LU	87214	35278	1999-10-04	2020-03-31	
124355	124355	ALTIGEN COMMUNICATIONS INC	ATGN	021489109	1003607	4899	517111.0	P	01	LC	87301	17176	1999-10-05	2010-03-15	
124358	124358	INTERNAP CORP	INAPQ	45885A409	1056386	7374	518210.0	P	01	LC	87236	17158	1999-09-29	2020-05-29	
124434	124434	BLACKROCK INC	BLK	09290D101	2012383	6282	523940.0	P	01	LC	87267	36336	1999-10-01	E	
124617	124617	ULTRAPAR PARTICIPACOES SA	UGP	90400P101	1094972	5172	424720.0	P	90	LC	87293	36358	2011-08-17	E	ugp
124775	124775	CIRCOR INTL INC	CIR	17273K109	1091883	3490	332911.0	P	01	LU	87268	36337	1999-10-19	2023-10-31	cir
125014	125014	PCTEL INC	PCTI	69325Q105	1057083	3663	334220.0	P	01	LU	87361	17208	1999-10-19	2023-12-29	pcti
125074	125074	RADWARE LTD	RDWR	M81873107	1094366	7372	513210.0	P	01	LU	87251	17163	1999-09-30	E	rdwr
125239	125239	SIFY TECHNOLOGIES LTD -ADR	SIFY	82655M206	1094324	4813	517111.0	P	90	LC	87344	17206	1999-10-19	E	sify
125240	125240	TKO GROUP HOLDINGS INC	TKO	87256C101	1973266	7900	711211.0	P	01	LC	87356	17205	1999-10-19	E	
125274	125274	BSQUARE CORP	BSQR	11776U300	1054721	5045	423430.0	P	01	LC	87302	17210	1999-10-20	2023-12-29	bsqr
125378	125378	PARTNER COMMUNICATIONS CO	PTNRY	70211M109	1096691	4812	517312.0	P	90	LC	87339	17293	1999-10-27	2023-09-29	ptnr
125595	125595	AKAMAI TECHNOLOGIES INC	AKAM	00971T101	1086222	7370	519290.0	P	01	LC	87299	17300	1999-10-29	E	akam
125600	125600	TELKONET INC	TKOI	879604106	1094084	3823	334513.0	P	01	LC	90054	44914	2004-02-04	2009-11-12	tkoi
125601	125601	GAIA INC	GAIA	36269P104	1089872	7370	519290.0	P	01	LC	87321	17298	1999-10-29	E	gaia
125604	125604	PLUG POWER INC	PLUG	72919P202	1093691	3674	334413.0	P	01	LC	87337	17303	1999-10-29	E	plug
125794	125794	NEOGENOMICS INC	NEO	64049M209	1077183	8071	621511.0	P	01	LC	13704	54278	2012-12-10	E	neo
125863	125863	VANTIVA SA	TCLRY	878520204	1080259	3663	334220.0	J	91	LC	88680	36381	2000-10-11	2000-10-17	
125863	125863	VANTIVA SA	TCLRY	878520204	1080259	3663	334220.0	C	90	LC	87446	36381	1999-11-03	2023-07-31	
125975	125975	COLLECTORS UNIVERSE INC	CLCT	19421R200	1089143	7389	561499.0	P	01	LC	87379	17317	1999-11-05	2021-02-26	
126010	126010	FLEXIBLE SOLUTIONS INTL INC	FSI	33938T104	1069394	2810	325180.0	P	01	LC	89597	43709	2002-11-18	E	fsi
126020	126020	INTELLICHECK INC	IDN	45817G201	1040896	7370	518210.0	P	01	LC	87439	36373	1999-11-19	E	idn
126056	126056	KRATOS DEFENSE & SECURITY	KTOS	50077B207	1069258	7370	541512.0	P	01	LC	87430	17314	1999-11-05	E	ktos
126122	126122	ONCOLYTICS BIOTECH INC	ONCY	682310875	1129928	2834	325412.0	P	01	LC	89175	42270	2018-06-01	E	oncy
126122	126122	ONCOLYTICS BIOTECH INC	ONCY	682310875	1129928	2834	325412.0	P	01	LC	89175	42270	2001-10-05	2015-11-04	oncy
126136	126136	CHARTER COMMUNICATIONS INC	CHTR	16119P108	1091667	4841	516210.0	P	01	LC	87378	17322	1999-11-09	2009-04-06	chtr
126136	126136	CHARTER COMMUNICATIONS INC	CHTR	16119P108	1091667	4841	516210.0	P	03	LC	12308	17322	2010-09-14	E	chtr
126296	126296	EXPEDIA GROUP INC	EXPE	30212P303	1324424	4700	561510.0	P	02	LC	90808	47013	2005-07-29	E	expe
126296	126296	EXPEDIA GROUP INC	EXPE	30212P303	1324424	4700	561510.0	P	01	LC	87388	17323	1999-11-10	2003-08-08	expe
126318	126318	IMMERSION CORP	IMMR	452521107	1058811	7372	511210.0	P	01	LC	87394	17346	1999-11-12	E	immr
126417	126417	FINISAR CORP	FNSR	31787A507	1094739	3577	333316.0	P	01	LC	87390	17342	1999-11-12	2019-09-30	
126423	126423	ONTO INNOVATION INC	ONTO	683344105	704532	3823	334513.0	P	01	LC	90377	7317	2019-10-28	E	onto
126423	126423	ONTO INNOVATION INC	ONTO	683344105	704532	3823	334513.0	P	01	LU	87415	17343	1999-11-12	2019-10-27	onto
126554	126554	AGILENT TECHNOLOGIES INC	A	00846U101	1090872	3826	334516.0	P	01	LC	87432	36364	1999-11-18	E	a
126555	126555	ALASKA COMMUNICATIONS SYS GP	ALSK	01167P101	1089511	4813	517311.0	P	01	LC	87373	17395	1999-11-18	2021-07-30	
126718	126718	PFSWEB INC	PFSW	717098206	1095315	7389	561990.0	P	01	LU	87510	17473	1999-12-31	2023-10-31	pfsw
126718	126718	PFSWEB INC	PFSW	717098206	1095315	7389	561990.0	C	00X	LU	87510	17473	1999-12-02	1999-12-30	pfsw
126721	126721	TELEDYNE TECHNOLOGIES INC	TDY	879360105	1094285	3812	334511.0	P	01	LU	87445	36380	1999-11-30	E	tdy
127094	127094	XO GROUP INC	XOXO	983772104	1062292	7370	517110.0	P	01	LU	87496	17472	1999-12-02	2018-12-31	
127377	127377	BGC GROUP INC	BGC	088929104	1094831	6211	523150.0	P	01	LC	87487	17502	1999-12-10	E	bgcp
128121	128121	QUARTERHILL INC	QTRHF	747713105	1518419	6794	533110.0	P	01	LC	12891	53826	2011-06-01	E	qtrhf
128978	128978	PACKAGING CORP OF AMERICA	PKG	695156109	75677	2650	322211.0	P	01	LC	87541	23511	2000-01-28	E	pkg
129441	129441	ZYNEX INC	ZYXI	98986M103	846475	3845	334510.0	P	01	LC	18418	56660	2019-02-12	E	zyxi
129466	129466	AGENUS INC	AGEN	00847G804	1098972	2834	325412.0	P	01	LC	87583	17936	2000-02-04	E	agen
129823	129823	BEASLEY BROADCAST GROUP INC	BBGI	074014200	1099160	4832	516110.0	P	01	LC	87589	17970	2000-02-11	E	bbgi
129840	129840	MATTERSIGHT CORP	MATR	577097108	1094348	8742	541611.0	P	01	LC	87602	17962	2000-02-16	2018-08-31	
130525	130525	AMERICAS GOLD & SILVER CORP	USAS	03062D100	1286973	1000	212230.0	P	01	LC	16545	55838	2017-01-19	E	usas
130618	130618	PEMBINA PIPELINE CORP	PBA	706327103	1546066	4610	486110.0	P	01	LC	13353	54047	2012-04-02	E	pba
130618	130618	PEMBINA PIPELINE CORP	PBA	706327103	1546066	4610	486110.0	P	01	LC	13353	54047	2012-04-02	E	pplaf
130618	130618	PEMBINA PIPELINE CORP	PBA	706327103	1546066	4610	486110.0	P	01	LC	13353	54047	2012-04-02	E	pbnaf
132525	132525	UTSTARCOM HOLDINGS CORP	UTSI	G9310A122	1030471	3663	334220.0	P	01	LC	87825	18348	2000-03-03	E	utsi
132644	132644	DETERMINE INC	DTRM	250660107	1090908	7370	519130.0	P	01	LC	87814	18398	2000-03-10	2018-12-19	
132740	132740	INFINEON TECHNOLOGIES AG	IFNNY	45662N103	1107457	3674	334413.0	P	90	LC	87664	36959	2000-03-13	2009-04-23	ifnny
132740	132740	INFINEON TECHNOLOGIES AG	IFNNY	45662N103	1107457	3674	334413.0	P	90	LC	87664	36959	2000-03-13	2009-04-23	ifnnf
133104	133104	KT CORPORATION	KT	48268K101	892450	4813	517111.0	P	90	LC	86869	31085	1999-05-26	E	kt
133288	133288	SILICON LABORATORIES INC	SLAB	826919102	1038074	3674	334413.0	P	01	LC	87812	18455	2000-03-24	E	slab
133289	133289	SUN LIFE FINANCIAL INC	SLF	866796105	1097362	6311	524113.0	P	01	LC	87666	36962	2000-03-24	E	slf
133364	133364	ABSOLUTE SOFTWARE CORP	ABST	00386B109	1071058	7372	513210.0	P	01	LC	19943	57420	2020-10-28	2023-07-31	abst
133366	133366	EDWARDS LIFESCIENCES CORP	EW	28176E108	1099800	3842	339113.0	P	01	LC	87657	36952	2000-04-03	E	ew
133367	133367	EDGEWELL PERSONAL CARE CO	EPC	28035Q102	1096752	3420	332215.0	P	01	LC	87659	36954	2000-04-04	E	epc
133468	133468	RIGEL PHARMACEUTICALS INC	RIGL	766559702	1034842	2834	325412.0	P	01	LC	88810	40998	2000-11-29	E	rigl
133504	133504	LUMINEX CORP	LMNX	55027E102	1033905	2835	325413.0	P	01	LC	87789	18709	2000-03-30	2021-07-30	
133564	133564	CAMTEK LTD	CAMT	M20791105	1109138	3827	333310.0	P	01	LC	88427	37923	2000-07-28	E	camt
133726	133726	CMC MATERIALS INC	CCMP	12571T100	1102934	2890	325998.0	P	01	LC	88152	37148	2000-04-04	2022-07-29	
133766	133766	HEALTHSTREAM INC	HSTM	42222N103	1095565	7372	513210.0	P	01	LC	88167	37161	2000-04-11	E	hstm
133767	133767	KRISPY KREME INC	DNUT	50101L106	1857154	5400	722515.0	P	01	LC	88172	37166	2000-04-05	2016-07-27	dnut
133767	133767	KRISPY KREME INC	DNUT	50101L106	1857154	5400	722515.0	P	03	LC	21594	58499	2021-07-01	E	dnut
133768	133768	METLIFE INC	MET	59156R108	1099219	6311	524113.0	P	01	LC	87842	37138	2000-04-05	E	met
133768	133768	METLIFE INC	MET	59156R108	1099219	6311	524113.0	P	01	LC	87842	37138	2000-04-05	E	met-pe
133768	133768	METLIFE INC	MET	59156R108	1099219	6311	524113.0	P	01	LC	87842	37138	2000-04-05	E	met-pa
133768	133768	METLIFE INC	MET	59156R108	1099219	6311	524113.0	P	01	LC	87842	37138	2000-04-05	E	met-pf
133844	133844	IMAGEWARE SYSTEMS INC	IWSY	45245S108	941685	7373	541512.0	P	01	LC	88213	36957	2000-05-01	2008-05-06	iwsy
133868	133868	LEXICON PHARMACEUTICALS INC	LXRX	528872302	1062822	2835	325413.0	P	01	LC	88173	37167	2000-04-07	E	lxrx
133869	133869	LIVEPERSON INC	LPSN	538146101	1102993	7370	518210.0	P	01	LC	88174	37168	2000-04-07	E	lpsn
133870	133870	PETROCHINA COMPANY LIMITED	PTCCY	71646E209	1108329	2911	324110.0	J	90	LC	87844	37141	2022-10-01	2022-11-30	ptr
133870	133870	PETROCHINA COMPANY LIMITED	PTCCY	71646E209	1108329	2911	324110.0	J	90	LC	87844	37141	2022-10-01	2022-11-30	pccyf
133870	133870	PETROCHINA COMPANY LIMITED	PTCCY	71646E209	1108329	2911	324110.0	J	90	LC	87844	37141	2022-10-01	2022-11-30	ptrcy
133870	133870	PETROCHINA COMPANY LIMITED	PTCCY	71646E209	1108329	2911	324110.0	P	90	LC	87844	37141	2000-04-06	2022-09-30	ptr
133870	133870	PETROCHINA COMPANY LIMITED	PTCCY	71646E209	1108329	2911	324110.0	P	90	LC	87844	37141	2000-04-06	2022-09-30	pccyf
133870	133870	PETROCHINA COMPANY LIMITED	PTCCY	71646E209	1108329	2911	324110.0	P	90	LC	87844	37141	2000-04-06	2022-09-30	ptrcy
133871	133871	SANGAMO THERAPEUTICS INC	SGMO	800677106	1001233	2836	325414.0	P	01	LC	88195	37188	2000-04-06	E	sgmo
133885	133885	EXELIXIS INC	EXEL	30161Q104	939767	2836	325414.0	P	01	LC	88159	37154	2000-04-11	E	exel
133905	133905	NOVA LTD	NVMI	M7516K103	1109345	3823	334513.0	P	01	LC	88181	37175	2000-04-11	E	nvmi
133944	133944	OCLARO INC	OCLR	67555N206	1110647	3674	334413.0	P	01	LC	90354	37145	2004-09-20	2018-12-31	
133944	133944	OCLARO INC	OCLR	67555N206	1110647	3674	334413.0	P	01	LC	88149	37145	2000-04-13	2004-09-09	
134044	134044	SINA CORP	SINA	G81477104	1094005	7370	519130.0	P	01	LC	88196	37189	2000-04-13	2021-03-31	
134267	134267	Q BEYOND AG	QSCG	74727G101	1110999	7370	518210.0	P	90	LC	88191	37184	2000-04-19	2002-04-02	
134932	134932	ON SEMICONDUCTOR CORP	ON	682189105	1097864	3674	334413.0	P	01	LC	88182	37176	2000-04-28	E	on
135044	135044	PIXELWORKS INC	PXLW	72581M305	1040161	3674	334413.0	P	01	LC	88260	37524	2000-05-19	E	pxlw
135484	135484	FRONTIER COMMUNIC PARENT INC	FYBR	35909D109	20520	4813	517111.0	P	01	LC	23887	925	2000-08-31	2020-04-23	fybr
135484	135484	FRONTIER COMMUNIC PARENT INC	FYBR	35909D109	20520	4813	517111.0	P	04	LC	21297	58293	2021-05-04	E	fybr
135788	135788	CEVA INC	CEVA	157210105	1173489	6794	533110.0	P	02	LC	89572	43688	2002-11-01	E	ceva
135788	135788	CEVA INC	CEVA	157210105	1173489	6794	533110.0	P	02	LC	88259	37523	2000-05-19	2002-10-31	ceva
135844	135844	INNOVATIVE SOLTNS & SUPP INC	ISSC	45769N105	836690	3575	334118.0	P	01	LC	88534	38432	2000-08-04	E	issc
135965	135965	RIBBON COMMUNICATIONS INC	RBBN	762544104	1708055	7373	541512.0	P	01	LC	88264	37528	2000-05-25	E	rbbn
135990	135990	NRG ENERGY INC	NRG	629377508	1013871	4911	22111.0	P	03	LC	90071	37496	2004-03-25	E	nrg
135990	135990	NRG ENERGY INC	NRG	629377508	1013871	4911	22111.0	P	01	LC	88232	37496	2000-05-31	2002-06-03	nrg
136186	136186	INSMED INC	INSM	457669307	1104506	2836	325414.0	P	01	LC	88351	37726	2000-06-01	E	insm
136265	136265	BANC OF CALIFORNIA INC	BANC	05990K106	1169770	6020	522110.0	P	01	LC	89482	43449	2023-12-01	E	banc
136265	136265	BANC OF CALIFORNIA INC	BANC	05990K106	1169770	6020	522110.0	P	01	LC	88343	37718	2000-06-06	2023-11-30	banc
136648	136648	VISTEON CORP	VC	92839U206	1111335	3714	336320.0	P	02	LC	88319	37682	2011-01-10	E	vc
136648	136648	VISTEON CORP	VC	92839U206	1111335	3714	336320.0	P	01	LC	88319	37682	2000-06-29	2009-03-05	vc
136684	136684	BROOKFIELD RENEWABLE PRTS LP	BEP	G16258108	1533232	4911	22111.0	P	01	LC	14009	54457	2013-06-11	E	bep
136684	136684	BROOKFIELD RENEWABLE PRTS LP	BEP	G16258108	1533232	4911	22111.0	P	01	LC	14009	54457	2013-06-11	E	beph
136684	136684	BROOKFIELD RENEWABLE PRTS LP	BEP	G16258108	1533232	4911	22111.0	P	01	LC	14009	54457	2013-06-11	E	bepi
136684	136684	BROOKFIELD RENEWABLE PRTS LP	BEP	G16258108	1533232	4911	22111.0	P	01	LC	14009	54457	2013-06-11	E	bep-pa
136725	136725	INTUITIVE SURGICAL INC	ISRG	46120E602	1035267	3845	334510.0	P	01	LC	88352	37727	2000-06-13	E	isrg
137024	137024	BASIC ENERGY SERVICES INC	BASXQ	06985P209	1109189	1389	213112.0	P	03	LC	91040	50015	2016-12-27	2019-12-02	baswq
137024	137024	BASIC ENERGY SERVICES INC	BASXQ	06985P209	1109189	1389	213112.0	C	01	LC	91040	50015	2016-12-01	2016-12-26	baswq
137024	137024	BASIC ENERGY SERVICES INC	BASXQ	06985P209	1109189	1389	213112.0	P	01	LC	91040	50015	2005-12-09	2016-11-30	baswq
137066	137066	CHINA UNICOM (HONG KONG) LTD	CHU	16945R104	1113866	4812	517312.0	P	90	LC	88282	37661	2000-06-21	2021-01-29	
137131	137131	CHARLES RIVER LABS INTL INC	CRL	159864107	1100682	8731	54171.0	P	01	LC	88281	37660	2000-06-23	E	crl
137310	137310	MARVELL TECHNOLOGY INC	MRVL	573874104	1835632	3674	334413.0	P	01	LC	88360	37731	2000-06-27	E	mrvl
137351	137351	BERKSHIRE HILLS BANCORP INC	BHLB	084680107	1108134	6020	522110.0	P	01	LC	88280	37659	2000-06-28	E	bhlb
137373	137373	CAPSTONE GREEN ENERGY CORP	CGRNQ	14067D508	1009759	3510	333611.0	P	01	LC	88332	37707	2000-06-29	2023-12-07	cgrn
137377	137377	EXFO INC	EXFO	302046107	1116284	3825	334515.0	P	01	LC	88340	37715	2000-06-30	2021-08-31	
137432	137432	DELTA APPAREL INC	DLAPQ	247368103	1101396	2300	315.0	P	01	LC	88287	37666	2000-06-30	E	dla
137433	137433	MOBILE TELESYSTEMS PJSC	MBT	607409109	1115837	4812	517312.0	P	90	LC	88309	37674	2000-06-30	E	
137435	137435	NETEASE INC	NTES	64110W102	1110646	7372	513210.0	C	90	LC	88362	37733	2000-06-30	E	ntes
137573	137573	ENTEGRIS INC	ENTG	29362U104	1101302	3559	333242.0	P	01	LC	88439	37932	2000-07-11	E	entg
137602	137602	AXCELIS TECHNOLOGIES INC	ACLS	054540208	1113232	3559	333242.0	P	01	LC	88417	37913	2000-07-11	E	acls
137609	137609	MAXAR TECHNOLOGIES INC	MAXR	57778K105	1121142	3663	334220.0	P	01	LC	16939	56071	2017-10-10	2023-05-31	maxr
137611	137611	SOHU COM LIMITED	SOHU	83410S108	1734107	7372	513210.0	P	90	LC	88467	37957	2018-06-01	E	sohu
137611	137611	SOHU COM LIMITED	SOHU	83410S108	1734107	7372	513210.0	P	01	LC	19675	37957	2000-07-12	2018-05-31	sohu
137612	137612	TURKCELL ILETISIM HIZMET	TKC	900111204	1071321	4812	517112.0	P	90	LC	88411	37907	2000-07-11	E	tkc
137874	137874	SMTC CORP	SMTX	832682207	1108320	3672	334412.0	P	01	LC	88466	37956	2000-07-24	2021-04-30	
137943	137943	ENTRAVISION COMMUNICATIONS	EVC	29382R107	1109116	7310	5418.0	P	01	LC	88485	38389	2000-08-02	E	evc
137944	137944	GRUPO FINANCIERO GALICIA SA	GGAL	399909100	1114700	6020	522110.0	P	90	LC	88442	37935	2000-07-24	E	ggal
138122	138122	ARENA PHARMACEUTICALS INC	ARNA	040047607	1080709	2836	325414.0	P	01	LC	88421	37917	2000-07-28	2022-03-31	
138126	138126	KERYX BIOPHARMACEUTICALS INC	KERX	492515101	1114220	2834	325412.0	P	01	LC	88451	37943	2000-07-28	2018-12-31	
138205	138205	ILLUMINA INC	ILMN	452327109	1110803	3826	334516.0	P	01	LC	88446	37938	2000-07-28	E	ilmn
138341	138341	CURIS INC	CRIS	231269309	1108205	2836	325414.0	P	01	LC	88511	38412	2000-08-01	E	cris
138467	138467	LANTRONIX INC	LTRX	516548203	1114925	3576	334210.0	P	01	LC	88542	38439	2000-08-04	E	ltrx
138483	138483	BRUKER CORP	BRKR	116794108	1109354	3826	334516.0	P	01	LC	88504	38406	2000-08-04	E	brkr
138501	138501	CERAGON NETWORKS LTD	CRNT	M22013102	1119769	3663	334220.0	P	01	LC	88526	38425	2000-08-04	E	crnt
138608	138608	MEDICINES CO (THE)	MDCO	584688105	1113481	2834	325412.0	P	01	LC	88545	38442	2000-08-08	2020-01-31	
138707	138707	SURGALIGN HOLDINGS INC	SRGAQ	86882C204	1760173	3842	339113.0	P	01	LC	88564	38459	2000-08-10	2023-10-03	srga
138743	138743	EQUINIX INC	EQIX	29444U700	1101239	6798	531190.0	P	01	LC	89617	38419	2002-12-31	E	eqix
138743	138743	EQUINIX INC	EQIX	29444U700	1101239	6798	531190.0	P	01	LC	88519	38419	2000-08-11	2002-12-30	eqix
138744	138744	2INVEST AG	LEON.1	536191109	1106774	2836	325414.0	P	90	LC	88538	38436	2000-08-11	2004-12-22	
138781	138781	COMPUGEN LTD	CGEN	M25722105	1119774	2836	325414.0	P	01	LC	88507	38409	2000-08-11	E	cgen
138861	138861	BELMOND LTD	BEL	G1154H107	1115836	7011	721110.0	P	01	LC	88495	38398	2000-08-10	2019-04-30	
138961	138961	O2MICRO INTERNATIONAL LTD	OIIM	67107W100	1095348	3674	334413.0	P	90	LC	90973	38445	2005-11-28	2023-03-31	oiim
138961	138961	O2MICRO INTERNATIONAL LTD	OIIM	67107W100	1095348	3674	334413.0	P	90	LC	88549	38445	2000-08-23	2005-11-25	oiim
139025	139025	PINNACLE FINL PARTNERS INC	PNFP	72346Q104	1115055	6020	522110.0	P	01	LC	89395	43147	2002-05-28	E	pnfp
139025	139025	PINNACLE FINL PARTNERS INC	PNFP	72346Q104	1115055	6020	522110.0	P	01	LC	89395	43147	2002-05-28	E	pnfpp
139201	139201	180 DEGREE CPTL CORP	TURN	68235B208	893739	6726	525990.0	P	01	LC	71862	5860	2000-09-29	E	turn
139665	139665	MOODY'S CORP	MCO	615369105	1059556	7323	561450.0	P	01	LC	48506	20610	2000-10-03	E	mco
139804	139804	TTM TECHNOLOGIES INC	TTMI	87305R109	1116942	3672	334412.0	P	01	LC	88648	39177	2000-09-21	E	ttmi
140023	140023	DELCATH SYSTEMS INC	DCTH	24661P807	872912	3841	339112.0	P	01	LC	89169	40199	2020-05-01	E	dcth
140023	140023	DELCATH SYSTEMS INC	DCTH	24661P807	872912	3841	339112.0	P	01	LC	89169	40199	2001-10-22	2017-09-14	dcth
140042	140042	ASPIRA WOMENS HEALTH INC	AWH	04537Y208	926617	2835	325413.0	P	01	LC	88620	39154	2010-07-06	E	awh
140042	140042	ASPIRA WOMENS HEALTH INC	AWH	04537Y208	926617	2835	325413.0	P	01	LC	88620	39154	2000-09-29	2008-09-24	awh
140044	140044	DURECT CORP	DRRX	266605500	1082038	2834	325412.0	P	01	LC	88626	39159	2000-09-28	E	drrx
140045	140045	GRUPO AEROPORTUARIO SURESTE	ASR	40051E202	1123452	4581	488119.0	P	90	LC	88593	39135	2000-09-28	E	asr
140045	140045	GRUPO AEROPORTUARIO SURESTE	ASR	40051E202	1123452	4581	488119.0	P	90	LC	88593	39135	2000-09-28	E	asrmf
140073	140073	INTEGER HOLDINGS CORP	ITGR	45826H109	1114483	3845	334510.0	P	01	LC	88615	39150	2000-09-29	E	itgr
140541	140541	TAPESTRY INC	TPR	876030107	1116132	3100	316992.0	P	01	LC	88661	40143	2000-10-05	E	tpr
140568	140568	CHEMBIO DIAGNOSTICS INC	CEMI	163572209	1092662	2835	325413.0	P	01	LC	13453	54113	2012-06-07	2023-04-28	cemi
140722	140722	INTERNATIONAL WORKPLACE GRP	REGSY	759144108	1123671	7389	561499.0	P	90	LC	88741	40212	2000-10-19	2002-11-07	
140756	140756	CHINA PETROLEUM & CHEMICAL	SNPMF	Y15010104	1123658	5500	457120.0	C	90	LC	88660	40142	2022-12-01	2022-12-05	snpmf
140756	140756	CHINA PETROLEUM & CHEMICAL	SNPMF	Y15010104	1123658	5500	457120.0	C	90	LC	88660	40142	2022-12-01	2022-12-05	snp
140756	140756	CHINA PETROLEUM & CHEMICAL	SNPMF	Y15010104	1123658	5500	457120.0	P	90	LC	88660	40142	2000-10-18	2022-11-30	snpmf
140756	140756	CHINA PETROLEUM & CHEMICAL	SNPMF	Y15010104	1123658	5500	457120.0	P	90	LC	88660	40142	2000-10-18	2022-11-30	snp
140760	140760	MONSANTO CO	MON.1	61166W101	1110783	100	111.0	P	01	LC	88668	40148	2000-10-18	2018-06-29	
140797	140797	DATALEX PLC	DLEXY	23803V102	1124843	7372	513210.0	C	90	LC	88726	40200	2000-10-23	2002-04-25	
140902	140902	NII HOLDINGS INC	NIHD	62913F508	1037016	4812	517312.0	P	02	LC	89685	43910	2003-02-28	2014-09-24	
140902	140902	NII HOLDINGS INC	NIHD	62913F508	1037016	4812	517312.0	N	03	LC	15532	43910	2015-07-09	2020-01-02	
140910	140910	HYDROGENICS CORP	HYGS	448883207	1119985	3620	335999.0	P	01	LC	88729	40202	2000-10-27	2019-09-30	
140982	140982	LIGHTBRIDGE CORP	LTBR	53224K302	1084554	2860	325180.0	P	01	LC	93083	53251	2009-10-09	E	ltbr
140988	140988	TRINET GROUP INC	TNET	896288107	937098	8742	541612.0	P	01	LC	14521	54772	2014-03-27	E	tnet
141076	141076	INFICON HOLDING AG	IFCN	45663T109	1126659	3823	334513.0	P	90	LC	88802	40992	2000-11-09	2005-03-31	
141099	141099	ELECTROVAYA INC	ELVA	28617B606	1844450	3690	335910.0	C	01	LC	24068	59603	2023-07-06	E	
141158	141158	IRSA PROPIEDADES COMERCIALES	IRCP	463588103	1128173	6512	531120.0	P	90	LC	88788	40979	2000-11-15	2022-05-31	
141178	141178	INSEEGO CORP	INSG	45782B302	1022652	3661	334210.0	P	01	LC	88807	40996	2000-11-16	E	insg
141197	141197	ARRAY BIOPHARMA INC	ARRY.1	04269X105	1100412	2836	325414.0	P	01	LC	88790	40981	2000-11-17	2019-07-31	
141239	141239	TELEKOM AUSTRIA AG	TKAGY	87943Q109	1127051	4899	517919.0	P	90	LC	88826	41011	2000-11-21	2007-05-16	
141277	141277	EXACT SCIENCES CORP	EXAS	30063P105	1124140	8731	541714.0	P	01	LC	88863	41157	2001-01-31	E	exas
141359	141359	RESOURCES CONNECTION INC	RGP	76122Q105	1084765	8742	541611.0	P	01	LC	88841	41062	2000-12-15	E	rgp
141363	141363	NUSTAR ENERGY LP	NS	67058H102	1110805	4610	486910.0	P	01	LC	88960	41456	2001-04-10	2024-05-31	ns
141363	141363	NUSTAR ENERGY LP	NS	67058H102	1110805	4610	486910.0	P	01	LC	88960	41456	2001-04-10	2024-05-31	ns-pa
141363	141363	NUSTAR ENERGY LP	NS	67058H102	1110805	4610	486910.0	P	01	LC	88960	41456	2001-04-10	2024-05-31	ns-pb
141363	141363	NUSTAR ENERGY LP	NS	67058H102	1110805	4610	486910.0	P	01	LC	88960	41456	2001-04-10	2024-05-31	ns-pc
141363	141363	NUSTAR ENERGY LP	NS	67058H102	1110805	4610	486910.0	P	01	LC	88960	41456	2001-04-10	2024-05-31	nss
141384	141384	ALIGN TECHNOLOGY INC	ALGN	016255101	1097149	3843	339114.0	P	01	LC	88860	41154	2001-01-26	E	algn
141459	141459	GARMIN LTD	GRMN	H2906T109	1121788	3812	334511.0	P	01	LC	88837	41059	2000-12-08	E	grmn
141460	141460	SEAGEN INC	SGEN	81181C104	1060736	2836	325414.0	P	01	LC	88949	41391	2001-03-07	2023-12-29	sgen
141469	141469	HARVARD BIOSCIENCE INC	HBIO	416906105	1123494	3826	334516.0	P	01	LC	88839	41060	2000-12-07	E	hbio
141496	141496	DYNAVAX TECHNOLOGIES CORP	DVAX	268158201	1029142	2836	325414.0	P	01	LC	90029	44885	2004-02-19	E	dvax
141720	141720	ENERGY TRANSFER PARTNERS -LP	ETP	29278N103	1161154	4922	486210.0	P	01	LC	89304	42780	2017-05-01	2018-10-31	
141720	141720	ENERGY TRANSFER PARTNERS -LP	ETP	29278N103	1161154	4922	486210.0	P	01	LC	84400	31664	2000-08-31	2017-04-27	
141846	141846	ACADIA PHARMACEUTICALS INC	ACAD	004225108	1070494	2836	325414.0	P	01	LC	90177	45190	2004-05-27	E	acad
141913	141913	GLOBAL PAYMENTS INC	GPN	37940X102	1123360	7374	518210.0	P	01	LC	88873	41168	2001-02-01	E	gpn
142088	142088	CENTERSTATE BANK CORP	CSFL	15201P109	1102266	6020	522110.0	P	01	LC	88908	41269	2001-02-20	2020-06-30	
142230	142230	MAGELLAN MIDSTREAM PRTNRS LP	MMP	559080106	1126975	4610	486910.0	P	01	LC	88901	41263	2001-02-06	2023-09-29	mmp
142248	142248	AMERICA MOVIL SAB DE C V	AMX	02390A101	1129137	4812	517112.0	J	91	LC	88903	41243	2001-02-08	2023-03-31	amov
142248	142248	AMERICA MOVIL SAB DE C V	AMX	02390A101	1129137	4812	517112.0	J	91	LC	88903	41243	2001-02-08	2023-03-31	amovf
142248	142248	AMERICA MOVIL SAB DE C V	AMX	02390A101	1129137	4812	517112.0	J	91	LC	88903	41243	2001-02-08	2023-03-31	amx
142248	142248	AMERICA MOVIL SAB DE C V	AMX	02390A101	1129137	4812	517112.0	J	91	LC	88903	41243	2001-02-08	2023-03-31	amxvf
142248	142248	AMERICA MOVIL SAB DE C V	AMX	02390A101	1129137	4812	517112.0	P	90	LC	88885	41243	2001-02-08	E	amov
142248	142248	AMERICA MOVIL SAB DE C V	AMX	02390A101	1129137	4812	517112.0	P	90	LC	88885	41243	2001-02-08	E	amovf
142248	142248	AMERICA MOVIL SAB DE C V	AMX	02390A101	1129137	4812	517112.0	P	90	LC	88885	41243	2001-02-08	E	amx
142248	142248	AMERICA MOVIL SAB DE C V	AMX	02390A101	1129137	4812	517112.0	P	90	LC	88885	41243	2001-02-08	E	amxvf
142260	142260	OIL STATES INTL INC	OIS	678026105	1121484	3533	333132.0	P	01	LC	88897	41259	2001-02-09	E	ois
142337	142337	NORTHERN OIL & GAS INC	NOG	665531307	1104485	1311	211120.0	P	02	LC	92601	52977	2008-03-26	E	nog
142391	142391	TRANSATLANTIC PETROLEUM LTD	TAT	G89982113	1092289	1311	211120.0	P	01	LC	93187	53308	2009-12-08	2020-12-31	
142460	142460	PEABODY ENERGY CORP	BTU	704551100	1064728	1220	212114.0	P	01	LC	88991	41580	2001-05-23	2016-04-13	btu
142460	142460	PEABODY ENERGY CORP	BTU	704551100	1064728	1220	212114.0	P	03	LC	16689	55925	2017-04-04	E	btu
142540	142540	CNOOC LTD	CEO	126132109	1095595	1311	211120.0	C	90	LC	88888	41247	2001-02-27	2021-03-08	
142546	142546	MARINE PRODUCTS CORP	MPX	568427108	1129155	3730	336612.0	P	01	LC	88895	41257	2001-02-28	E	mpx
142812	142812	SENOMYX INC	SNMX	81724Q107	1123979	2080	311930.0	P	01	LC	90238	45309	2004-06-22	2018-11-30	
142814	142814	SYNAPTICS INC	SYNA	87157D109	817720	3674	334413.0	P	01	LC	89290	42651	2002-01-29	E	syna
142953	142953	MONDELEZ INTERNATIONAL INC	MDLZ	609207105	1103982	2052	311821.0	P	01	LC	89006	41680	2001-06-13	E	mdlz
142956	142956	OMNICELL INC	OMCL	68213N109	926326	3559	333248.0	P	01	LC	89110	41980	2001-08-07	E	omcl
143356	143356	PRUDENTIAL FINANCIAL INC	PRU	744320102	1137774	6311	524113.0	P	01	LC	89258	42524	2001-12-13	E	pru
143356	143356	PRUDENTIAL FINANCIAL INC	PRU	744320102	1137774	6311	524113.0	P	01	LC	89258	42524	2001-12-13	E	prh
143356	143356	PRUDENTIAL FINANCIAL INC	PRU	744320102	1137774	6311	524113.0	P	01	LC	89258	42524	2001-12-13	E	prs
143356	143356	PRUDENTIAL FINANCIAL INC	PRU	744320102	1137774	6311	524113.0	P	01	LC	89258	42524	2001-12-13	E	pfh
143357	143357	ACCENTURE PLC	ACN	G1151C101	1467373	8742	541611.0	P	01	LC	89071	41871	2001-07-19	E	acn
143403	143403	JUST ENERGY GROUP INC	JENGQ	48213W408	1538789	5172	424720.0	P	01	LC	13185	53971	2012-01-30	2021-03-22	jengq
143421	143421	WRIGHT MEDICAL GROUP NV	WMGI	N96617118	1492658	3842	339113.0	P	01	LC	89046	41822	2001-07-13	2015-10-01	
143421	143421	WRIGHT MEDICAL GROUP NV	WMGI	N96617118	1492658	3842	339113.0	P	01	LC	12587	53686	2015-10-02	2020-11-30	
143710	143710	WILLIAMS INDUSTRIAL SE G INC	WLMSQ	96951A104	1136294	1600	237.0	C	01	LC	88987	41577	2021-02-22	2023-07-21	wlms
143710	143710	WILLIAMS INDUSTRIAL SE G INC	WLMSQ	96951A104	1136294	1600	237.0	C	01	LC	88987	41577	2010-08-10	2016-03-30	wlms
143710	143710	WILLIAMS INDUSTRIAL SE G INC	WLMSQ	96951A104	1136294	1600	237.0	C	01	LC	88987	41577	2001-05-18	2006-09-28	wlms
143770	143770	NEOVASC INC	NVCN	64065J403	1399708	3841	339112.0	J	01	LC	14660	54865	2014-05-21	2023-04-28	nvcn
143912	143912	AXON ENTERPRISE INC	AXON	05464C101	1069183	3480	332994.0	P	01	LC	89031	41562	2001-06-07	E	axon
143974	143974	BREAD FINANCIAL HOLDINGS INC	BFH	018581108	1101215	6141	522291.0	P	01	LC	89002	41671	2001-06-08	E	bfh
144009	144009	WILLIS TOWERS WATSON PLC	WTW	G96629103	1140536	6411	524210.0	P	01	LC	89017	41694	2001-06-12	E	wtw
144183	144183	GALIANO GOLD INC	GAU	36352H100	1377757	1040	212220.0	P	01	LC	92536	52931	2008-01-02	E	gau
144382	144382	NEPTUNE WELLNESS SOLUTION IN	NEPTF	64079L303	1401395	2040	311230.0	P	01	LC	92222	52671	2007-08-13	E	nept
144396	144396	CROSS COUNTRY HEALTHCARE INC	CCRN	227483104	1141103	7363	561320.0	P	01	LC	89167	42265	2001-10-25	E	ccrn
144435	144435	BUNGE GLOBAL SA	BG	H11356104	1996862	2040	311211.0	P	01	LC	89138	42007	2001-08-02	E	
144436	144436	NATUS MEDICAL INC	NTUS	639050103	878526	3845	334510.0	P	01	LC	89036	41813	2001-07-20	2022-07-29	
144437	144437	PDF SOLUTIONS INC	PDFS	693282105	1120914	7370	511210.0	P	01	LC	89044	41820	2001-07-27	E	pdfs
144496	144496	UBS GROUP AG	UBS	H42097107	1610520	6282	523940.0	N	01	LC	88239	37504	2014-11-28	2015-08-31	ubs
144496	144496	UBS GROUP AG	UBS	H42097107	1610520	6282	523940.0	C	01	LC	88239	37504	2014-11-01	2014-11-27	ubs
144496	144496	UBS GROUP AG	UBS	H42097107	1610520	6282	523940.0	P	01	LC	88239	37504	2000-05-16	2014-10-31	ubs
144496	144496	UBS GROUP AG	UBS	H42097107	1610520	6282	523940.0	P	02	LC	15054	55100	2014-11-28	E	ubs
144520	144520	AMN HEALTHCARE SERVICES INC	AMN	001744101	1142750	7363	561320.0	P	01	LC	89215	42400	2001-11-13	E	amn
144535	144535	HDFC BANK LIMITED	HDB	40415F101	1144967	6020	522110.0	P	90	LC	89056	41859	2001-07-20	E	hdb
144559	144559	ZIMMER BIOMET HOLDINGS INC	ZBH	98956P102	1136869	3842	339113.0	P	01	LC	89070	41870	2001-08-07	E	zbh
144640	144640	ASBURY AUTOMOTIVE GROUP INC	ABG	043436104	1144980	5500	441110.0	P	01	LC	89327	42915	2002-03-14	E	abg
144998	144998	XPO INC	XPO	983793100	1166003	4213	484122.0	P	01	LC	90175	45186	2004-05-12	E	xpo
145024	145024	GLADSTONE CAPITAL CORP	GLAD	376535878	1143513	6797	523910.0	P	01	LC	89103	41975	2001-08-24	E	glad
145041	145041	BIG 5 SPORTING GOODS CORP	BGFV	08915P101	1156388	5940	459110.0	P	01	LC	89413	43250	2002-06-25	E	bgfv
145046	145046	ELEVANCE HEALTH INC	ELV	036752103	1156039	6324	524114.0	P	01	LC	89179	42273	2001-10-30	E	elv
145049	145049	GAMESTOP CORP	GME	36467W109	1326380	5734	449210.0	J	02	LC	90379	42775	2005-10-01	2007-02-07	gme
145049	145049	GAMESTOP CORP	GME	36467W109	1326380	5734	449210.0	P	02	LC	90379	42775	2004-11-15	2005-09-30	gme
145049	145049	GAMESTOP CORP	GME	36467W109	1326380	5734	449210.0	P	01	LC	89301	42775	2005-10-01	E	gme
145049	145049	GAMESTOP CORP	GME	36467W109	1326380	5734	449210.0	N	01	LC	89301	42775	2004-11-15	2005-09-30	gme
145049	145049	GAMESTOP CORP	GME	36467W109	1326380	5734	449210.0	C	01	LC	89301	42775	2004-11-01	2004-11-14	gme
145049	145049	GAMESTOP CORP	GME	36467W109	1326380	5734	449210.0	P	01	LC	89301	42775	2002-02-13	2004-10-31	gme
145080	145080	STAR EQUITY HOLDINGS INC	STRR	85513Q301	707388	1520	2361.0	P	01	LC	90223	45297	2004-06-10	E	strr
145080	145080	STAR EQUITY HOLDINGS INC	STRR	85513Q301	707388	1520	2361.0	P	01	LC	90223	45297	2004-06-10	E	strrp
145308	145308	WW INTERNATIONAL INC	WW	98262P101	105319	7200	812191.0	P	01	LC	89244	42430	2001-11-15	E	ww
145552	145552	CENTENE CORP	CNC	15135B101	1071739	6324	524114.0	P	01	LC	89269	42540	2001-12-13	E	cnc
145701	145701	PRINCIPAL FINANCIAL GRP INC	PFG	74251V102	1126328	6282	523940.0	P	01	LC	89195	42285	2001-10-23	E	pfg
145812	145812	VEREN INC	VRN	92340V107	1545851	1311	211120.0	P	01	LC	14379	54695	2014-01-22	E	cpg
145977	145977	ADVANCE AUTO PARTS INC	AAP	00751Y106	1158449	5531	441330.0	P	01	LC	89217	42402	2001-11-29	E	aap
146017	146017	ACUITY INC	AYI	00508Y102	1144215	3640	335132.0	P	01	LC	89216	42401	2001-11-14	E	ayi
146140	146140	PIEDMONT OFFICE REALTY TRUST	PDM	720190206	1042776	6798	531120.0	P	01	LC	93251	53342	2010-02-10	E	pdm
146171	146171	MANTECH INTL CORP	MANT	564563104	892537	7373	541512.0	P	01	LC	89307	42784	2002-02-07	2022-09-30	mant
146500	146500	ALERISLIFE INC	ALR	33832D205	1159281	8051	623110.0	P	01	LC	89252	42517	2001-12-17	2023-03-31	alr
146616	146616	CORCEPT THERAPEUTICS INC	CORT	218352102	1088856	2834	325412.0	P	01	LC	90125	45081	2004-04-14	E	cort
146648	146648	CUTERA INC	CUTRQ	232109108	1162461	3845	334510.0	P	01	LC	90081	44994	2004-03-31	E	cutr
147183	147183	COMSTOCK INC	LODE	205750409	1120970	2911	324110.0	P	01	LC	12840	53806	2011-06-10	E	lode
147204	147204	COGENT COMMUNICATIONS HLDGS	CCOI	19239V302	1158324	4813	517311.0	P	01	LC	89297	42769	2002-02-05	E	ccoi
147242	147242	VERINT SYSTEMS INC	VRNT	92343X100	1166388	7373	541512.0	P	01	LC	89397	43149	2010-07-06	E	vrnt
147242	147242	VERINT SYSTEMS INC	VRNT	92343X100	1166388	7373	541512.0	P	01	LC	89397	43149	2002-05-16	2007-01-31	vrnt
147303	147303	DRIVE SHACK INC	DSHK	262077100	1175483	7990	7139.0	P	01	LC	89548	43633	2002-10-10	E	ds
147303	147303	DRIVE SHACK INC	DSHK	262077100	1175483	7990	7139.0	P	01	LC	89548	43633	2002-10-10	E	ds-pb
147303	147303	DRIVE SHACK INC	DSHK	262077100	1175483	7990	7139.0	P	01	LC	89548	43633	2002-10-10	E	ds-pd
147303	147303	DRIVE SHACK INC	DSHK	262077100	1175483	7990	7139.0	P	01	LC	89548	43633	2002-10-10	E	ds-pc
147305	147305	JETBLUE AIRWAYS CORP	JBLU	477143101	1158463	4512	481111.0	P	01	LC	89353	42997	2002-04-12	E	jblu
147398	147398	TSAKOS ENERGY NAVIGATION LTD	TEN	G9108L173	1166663	4412	483111.0	P	01	LC	89349	42935	2002-03-05	E	tnp
147398	147398	TSAKOS ENERGY NAVIGATION LTD	TEN	G9108L173	1166663	4412	483111.0	P	01	LC	89349	42935	2002-03-05	E	tnp-pe
147398	147398	TSAKOS ENERGY NAVIGATION LTD	TEN	G9108L173	1166663	4412	483111.0	P	01	LC	89349	42935	2002-03-05	E	tnp-pd
147398	147398	TSAKOS ENERGY NAVIGATION LTD	TEN	G9108L173	1166663	4412	483111.0	P	01	LC	89349	42935	2002-03-05	E	tnp-pf
147579	147579	NETFLIX INC	NFLX	64110L106	1065280	7841	516210.0	P	01	LC	89393	43145	2002-05-23	E	nflx
147657	147657	DOVER DOWNS GAMING & ENTMT	DDE	260095104	1162556	7990	713290.0	P	01	LC	89332	42919	2002-04-01	E	
147708	147708	CALAVO GROWERS INC	CVGW	128246105	1133470	5140	424480.0	P	01	LC	89447	43326	2002-07-22	E	cvgw
147849	147849	TRUBRIDGE INC	TBRG	205306103	1169445	7373	541512.0	P	01	LC	89387	43140	2002-05-21	E	cpsi
147868	147868	BEYOND INC	BYON	690370101	1130713	5961	449110.0	P	01	LC	89394	43146	2002-05-30	E	ostk
147988	147988	AECOM	ACM	00766T100	868857	8711	541330.0	P	01	LC	91975	52247	2007-05-10	E	acm
148219	148219	BIODELIVERY SCIENCES INTL	BDSI	09060J106	1103021	2834	325412.0	P	01	LC	89445	43249	2002-07-25	2022-03-31	bdsi
148223	148223	GREAT LAKES DREDGE & DOCK CP	GLDD	390607109	1372020	1600	237990.0	P	01	LC	91665	51552	2006-12-27	E	gldd
148239	148239	CHINA PHARMA HOLDINGS INC	CPHI	16941T302	1106644	2834	325412.0	P	01	LC	93016	53207	2009-09-30	E	cphi
148349	148349	TRANSDIGM GROUP INC	TDG	893641100	1260221	3728	336413.0	P	01	LC	91152	50481	2006-03-15	E	tdg
148350	148350	TRAVELCENTERS OF AMERICA INC	TA	89421B109	1378453	5500	457110.0	P	01	LC	91727	51645	2007-01-29	2023-05-31	ta
148350	148350	TRAVELCENTERS OF AMERICA INC	TA	89421B109	1378453	5500	457110.0	P	01	LC	91727	51645	2007-01-29	2023-05-31	tanni
148350	148350	TRAVELCENTERS OF AMERICA INC	TA	89421B109	1378453	5500	457110.0	P	01	LC	91727	51645	2007-01-29	2023-05-31	tannz
148350	148350	TRAVELCENTERS OF AMERICA INC	TA	89421B109	1378453	5500	457110.0	P	01	LC	91727	51645	2007-01-29	2023-05-31	tannl
148390	148390	FORMFACTOR INC	FORM	346375108	1039399	3825	334515.0	P	01	LC	89753	44115	2003-06-12	E	form
148391	148391	KIRKLAND'S INC	KIRK	497498105	1056285	5700	449129.0	P	01	LC	89449	43328	2002-07-11	E	kirk
148396	148396	XTI AEROSPACE INC	XTIA	98423K405	1529113	3721	336411.0	P	01	LC	14610	54832	2014-04-10	E	inpx
148470	148470	RED ROBIN GOURMET BURGERS	RRGB	75689M101	1171759	5812	722511.0	P	01	LC	89453	43332	2002-07-19	E	rrgb
148772	148772	CBAK ENERGY TECHNOLOGY INC	CBAT	14986C102	1117171	3690	335910.0	P	01	LC	91269	50727	2006-05-31	E	cbat
148950	148950	ENPRO INC	NPO	29355X107	1164863	3050	339991.0	P	01	LC	89406	43159	2002-06-03	E	npo
149070	149070	CME GROUP INC	CME	12572Q105	1156375	6200	523210.0	P	01	LC	89626	43791	2002-12-06	E	cme
149082	149082	WESTWOOD HOLDINGS GROUP INC	WHG	961765104	1165002	6282	523940.0	P	01	LC	89443	43281	2002-07-01	E	whg
149177	149177	NEXSTAR MEDIA GROUP	NXST	65336K103	1142417	4833	516120.0	P	01	LC	89916	44625	2003-11-24	E	nxst
149318	149318	WYNN RESORTS LTD	WYNN	983134107	1174922	7990	721120.0	P	01	LC	89533	43620	2002-10-25	E	wynn
149337	149337	NASDAQ INC	NDAQ	631103108	1120193	6200	523210.0	P	01	LC	90601	46282	2005-02-10	E	ndaq
149360	149360	SITO MOBILE LTD	STTO	82988R203	1157817	7372	511210.0	C	01	LC	15644	55397	2015-08-10	2020-03-09	sitoq
149618	149618	BANC OF CALIFORNIA INC -OLD	BANC.3	05999Q930	0	6020	522110.0	P	01	LC	89482	43449	2002-08-23	2023-11-30	
149683	149683	CHINA AUTOMOTIVE SYSTEMS INC	CAAS	16936R105	1157762	3714	336330.0	P	01	LC	90313	45477	2004-08-24	E	caas
149721	149721	TRAVELZOO	TZOO	89421Q205	1133311	7370	519290.0	P	01	LC	89941	44695	2003-12-30	E	tzoo
149738	149738	CIT GROUP INC	CIT	125581801	1171825	6020	522110.0	P	06	LC	93150	43340	2009-12-10	2022-01-31	
149738	149738	CIT GROUP INC	CIT	125581801	1171825	6020	522110.0	P	01	LC	89463	43340	2002-07-02	2009-11-02	
150139	150139	DICKS SPORTING GOODS INC	DKS	253393102	1089063	5940	459110.0	P	01	LC	89540	43626	2002-10-16	E	dks
150201	150201	MARTIN MIDSTREAM PARTNERS LP	MMLP	573331105	1176334	5172	424720.0	P	01	LC	89570	43686	2002-11-01	E	mmlp
150258	150258	HORNBECK OFFSHORE SVCS -REDH	HOS	44099G930	1131227	4400	488390.0	P	01	LC	90067	44977	2004-03-26	2019-12-20	
150278	150278	CARTER'S INC	CRI	146229109	1060822	2300	315.0	P	01	LC	89876	44506	2003-10-24	E	cri
150279	150279	PROVIDENT FINANCIAL SVCS INC	PFS	74386T105	1178970	6036	522180.0	P	01	LC	89653	43857	2003-01-16	E	pfs
150306	150306	TEXAS CAPITAL BANCSHARES INC	TCBI	88224Q107	1077428	6020	522110.0	P	01	LC	89826	44292	2003-08-13	E	tcbi
150306	150306	TEXAS CAPITAL BANCSHARES INC	TCBI	88224Q107	1077428	6020	522110.0	P	01	LC	89826	44292	2003-08-13	E	tcbio
150477	150477	PRA GROUP INC	PRAA	69354N106	1185348	6153	522299.0	P	01	LC	89574	43690	2002-11-08	E	praa
150481	150481	SAIA INC	SAIA	78709Y105	1177702	4213	484122.0	P	01	LC	89506	43508	2002-10-01	E	saia
150562	150562	NATURAL GAS SERVICES GROUP	NGS	63886Q109	1084991	7359	532412.0	P	01	LC	89546	43631	2002-10-22	E	ngs
150699	150699	CIMAREX ENERGY CO	XEC	171798101	1168054	1311	2111.0	P	01	LC	89509	43520	2002-10-01	2021-10-29	
150761	150761	ONTRAK INC	OTRK	683373401	1136174	8060	622210.0	C	01	LC	89956	44709	2003-12-15	2010-02-25	otrk
150761	150761	ONTRAK INC	OTRK	683373401	1136174	8060	622210.0	C	01	LC	89956	44709	2003-12-15	2010-02-25	otrkp
150761	150761	ONTRAK INC	OTRK	683373401	1136174	8060	622210.0	C	01	LC	16670	55914	2017-04-26	E	otrk
150761	150761	ONTRAK INC	OTRK	683373401	1136174	8060	622210.0	C	01	LC	16670	55914	2017-04-26	E	otrkp
150764	150764	TFI INTERNATIONAL INC	TFII	87241L109	1588823	4213	484122.0	P	01	LC	19226	57016	2020-02-13	E	tfii
150837	150837	NATURAL RESOURCE PARTNERS LP	NRP	63900P608	1171486	6795	523910.0	J	02	LC	90842	43632	2005-08-10	2007-11-14	nrp
150837	150837	NATURAL RESOURCE PARTNERS LP	NRP	63900P608	1171486	6795	523910.0	P	01	LC	89547	43632	2002-10-11	E	nrp
150937	150937	SEAGATE TECHNOLOGY HOLDINGS	STX	G7997R103	1137789	3572	334112.0	P	01	LC	89641	43807	2002-12-11	E	stx
151423	151423	NEPHROS INC	NEPH	640671400	1196298	3841	339112.0	P	01	LC	90341	45536	2004-09-21	2009-01-21	neph
151423	151423	NEPHROS INC	NEPH	640671400	1196298	3841	339112.0	P	01	LC	18899	45536	2019-08-14	E	neph
151630	151630	HALOZYME THERAPEUTICS INC	HALO	40637H109	1159036	2836	325414.0	P	01	LC	90436	45865	2004-11-01	E	halo
151708	151708	BROOKFIELD RESIDENTIAL PPTYS	BRP.2	11283W104	1502554	1531	236117.0	P	01	LC	89647	43849	2003-01-03	2011-03-31	
151708	151708	BROOKFIELD RESIDENTIAL PPTYS	BRP.2	11283W104	1502554	1531	236117.0	P	01	LC	12718	53746	2011-04-01	2015-03-31	
151933	151933	TENARIS SA	TS	88031M109	1190723	3317	331210.0	P	90	LC	89637	43803	2002-12-16	E	ts
151933	151933	TENARIS SA	TS	88031M109	1190723	3317	331210.0	P	90	LC	89637	43803	2002-12-16	E	tnrsf
152049	152049	FIRST BANCSHARES INC/MS	FBMS	318916103	947559	6020	522110.0	P	01	LC	91274	50731	2006-05-26	E	fbms
152149	152149	MOLINA HEALTHCARE INC	MOH	60855R100	1179929	6324	524114.0	P	01	LC	89781	44184	2003-07-02	E	moh
152649	152649	TELKOM SA SOC LTD	TLKGY	879603108	1214299	4813	517111.0	P	90	LC	89710	43990	2003-03-04	2009-08-26	
153128	153128	HUDSON GLOBAL INC	HSON	443787205	1210708	7361	561311.0	P	01	LC	89698	43976	2003-04-01	E	hson
153130	153130	AXIS CAPITAL HOLDINGS LTD	AXS	G0692U109	1214816	6331	524130.0	P	01	LC	89789	44193	2003-07-01	E	axs
153130	153130	AXIS CAPITAL HOLDINGS LTD	AXS	G0692U109	1214816	6331	524130.0	P	01	LC	89789	44193	2003-07-01	E	axs-pe
153311	153311	MITCHELLS & BUTLERS PLC	MBPFY	60668M306	1224480	5810	722511.0	C	90	LC	89706	43983	2005-07-01	2005-07-19	
153311	153311	MITCHELLS & BUTLERS PLC	MBPFY	60668M306	1224480	5810	722511.0	P	90	LC	89706	43983	2003-04-15	2005-06-30	
153728	153728	IPASS INC	IPAS	46261V306	1053374	7370	519130.0	P	01	LC	89796	44172	2003-07-24	2019-02-28	
153957	153957	BRAINSTORM CELL THERAPEUTICS	BCLI	10501E300	1137883	2836	325414.0	P	01	LC	14925	55022	2014-09-30	E	bcli
154039	154039	NETGEAR INC	NTGR	64111Q104	1122904	3661	334210.0	P	01	LC	89800	44176	2003-07-31	E	ntgr
154357	154357	QEP RESOURCES INC	QEP	74733V100	1108827	1311	2111.0	P	01	LC	93422	53439	2010-07-01	2021-03-31	
154739	154739	GLADSTONE COMMERCIAL CORP	GOOD	376536108	1234006	6798	531120.0	P	01	LC	89823	44289	2003-08-13	E	good
154739	154739	GLADSTONE COMMERCIAL CORP	GOOD	376536108	1234006	6798	531120.0	P	01	LC	89823	44289	2003-08-13	E	goodn
154758	154758	MODIVCARE INC	MODV	60783X104	1220754	4100	485991.0	P	01	LC	89824	44290	2003-08-19	E	modv
154773	154773	CRH MEDICAL CORP	CRHM	12626F105	1461119	8011	621111.0	P	01	LC	15665	55412	2015-09-03	2021-04-30	
155280	155280	AIR TRANSPORT SERVICES GROUP	ATSG	00922R105	894081	4512	481112.0	P	01	LC	90716	46701	2005-05-09	E	atsg
155393	155393	WHITING PETROLEUM CORP	WLL	966387508	1255474	1311	211120.0	P	05	LC	89901	44613	2020-09-02	2022-07-29	wllaw
155393	155393	WHITING PETROLEUM CORP	WLL	966387508	1255474	1311	211120.0	P	05	LC	89901	44613	2020-09-02	2022-07-29	wllbw
155393	155393	WHITING PETROLEUM CORP	WLL	966387508	1255474	1311	211120.0	C	01	LC	89901	44613	2020-09-01	2020-09-01	wllaw
155393	155393	WHITING PETROLEUM CORP	WLL	966387508	1255474	1311	211120.0	C	01	LC	89901	44613	2020-09-01	2020-09-01	wllbw
155393	155393	WHITING PETROLEUM CORP	WLL	966387508	1255474	1311	211120.0	P	01	LC	89901	44613	2003-11-20	2020-08-31	wllaw
155393	155393	WHITING PETROLEUM CORP	WLL	966387508	1255474	1311	211120.0	P	01	LC	89901	44613	2003-11-20	2020-08-31	wllbw
155394	155394	LKQ CORP	LKQ	501889208	1065696	5010	423140.0	P	02	LC	89866	44497	2003-10-03	E	lkq
155458	155458	GRANITE REAL ESTATE INVEST	GRP.U	387437205	1564538	6798	531120.0	P	01	LC	89812	44276	2003-09-02	E	grp-un
155616	155616	CINEVERSE CORP	CNVS	172406308	1173204	7822	512120.0	P	01	LC	89889	44600	2003-11-10	E	cidm
155754	155754	ASHFORD HOSPITALITY TRUST	AHT	044103794	1232582	6798	531120.0	P	01	LC	89803	44265	2003-08-26	E	aht
155754	155754	ASHFORD HOSPITALITY TRUST	AHT	044103794	1232582	6798	531120.0	P	01	LC	89803	44265	2003-08-26	E	aht-pd
155754	155754	ASHFORD HOSPITALITY TRUST	AHT	044103794	1232582	6798	531120.0	P	01	LC	89803	44265	2003-08-26	E	aht-ph
155754	155754	ASHFORD HOSPITALITY TRUST	AHT	044103794	1232582	6798	531120.0	P	01	LC	89803	44265	2003-08-26	E	aht-pf
155754	155754	ASHFORD HOSPITALITY TRUST	AHT	044103794	1232582	6798	531120.0	P	01	LC	89803	44265	2003-08-26	E	aht-pg
155754	155754	ASHFORD HOSPITALITY TRUST	AHT	044103794	1232582	6798	531120.0	P	01	LC	89803	44265	2003-08-26	E	aht-pi
155894	155894	OMNIQ CORP	OMQS	68217M107	278165	7370	54151.0	P	01	LC	21950	58738	2021-09-02	E	omqs
156153	156153	ADEIA INC	ADEA	00676P107	1803696	7372	513210.0	P	01	LC	89922	44631	2003-11-13	E	xper
156155	156155	TD SYNNEX CORPORATION	SNX	87162W100	1177394	5045	423430.0	P	01	LC	89900	44612	2003-11-25	E	snx
156157	156157	MARLIN BUSINESS SERVICES INC	MRLN	571157106	1260968	6172	522220.0	P	01	LC	89913	44623	2003-11-12	2022-01-31	
156383	156383	AMERICAN NATIONAL GROUP INC	AEL	025676206	1039828	6311	524113.0	P	01	LC	89946	44699	2003-12-04	2024-05-31	ael
156383	156383	AMERICAN NATIONAL GROUP INC	AEL	025676206	1039828	6311	524113.0	P	01	LC	89946	44699	2003-12-04	2024-05-31	ael-pa
156383	156383	AMERICAN NATIONAL GROUP INC	AEL	025676206	1039828	6311	524113.0	P	01	LC	89946	44699	2003-12-04	2024-05-31	ael-pb
156384	156384	GLOBAL INDEMNITY GROUP LLC	GBLI	37959R103	1494904	6331	524126.0	P	01	LC	89942	44696	2003-12-16	E	gbli
156578	156578	ARQ INC	ARQ	00770C101	1515156	2890	325998.0	P	01	LC	90400	45708	2016-07-07	E	ades
156578	156578	ARQ INC	ARQ	00770C101	1515156	2890	325998.0	P	01	LC	90400	45708	2004-10-14	2015-02-02	ades
156614	156614	CONN'S INC	CONNQ	208242107	1223389	5731	449210.0	P	01	LC	89908	44619	2003-11-25	E	conn
156617	156617	ACORDA THERAPEUTICS INC	ACORQ	00484M700	1008848	2836	325414.0	P	01	LC	91086	50290	2006-02-10	2024-08-30	acor
156633	156633	UNIVERSAL TECHNICAL INST	UTI	913915104	1261654	8200	611699.0	P	01	LC	89973	44727	2003-12-17	E	uti
156676	156676	TALEN ENERGY CORP -OLD	TLN.2	87422J105	0	4911	2211.0	P	01	LC	15335	55246	2015-06-02	2016-12-05	
156861	156861	SOMNIGROUP INTERNATIONAL INC	SGI	88023U101	1206264	2510	337910.0	P	01	LC	89971	44726	2003-12-18	E	tpx
156953	156953	HILLTOP HOLDINGS INC	HTH	432748101	1265131	6199	522110.0	P	01	LC	90037	44892	2004-02-12	E	hth
157057	157057	ASSURANT INC	AIZ	04621X108	1267238	6351	524126.0	P	01	LC	90038	44893	2004-02-05	E	aiz
157057	157057	ASSURANT INC	AIZ	04621X108	1267238	6351	524126.0	P	01	LC	90038	44893	2004-02-05	E	aizn
157153	157153	COMPASS MINERALS INTL INC	CMP	20451N101	1227654	1400	212390.0	P	01	LC	89952	44705	2003-12-12	E	cmp
157353	157353	ASPEN INSURANCE HOLDINGS LTD	AHL	G05384105	1267395	6331	524130.0	P	01	LC	89977	44731	2003-12-04	2019-02-28	ahl-pc
157353	157353	ASPEN INSURANCE HOLDINGS LTD	AHL	G05384105	1267395	6331	524130.0	P	01	LC	89977	44731	2003-12-04	2019-02-28	ahl-pd
157353	157353	ASPEN INSURANCE HOLDINGS LTD	AHL	G05384105	1267395	6331	524130.0	P	01	LC	89977	44731	2003-12-04	2019-02-28	ahl-pe
157373	157373	VISTRA CORP	VST	92840M102	1692819	4911	2211.0	P	02	LC	16736	55954	2017-05-10	E	vst
157413	157413	TRIP COM GROUP LTD	TCOM	89677Q107	1269238	4700	561510.0	P	90	LC	89927	44683	2003-12-09	E	tcom
157413	157413	TRIP COM GROUP LTD	TCOM	89677Q107	1269238	4700	561510.0	P	90	LC	89927	44683	2003-12-09	E	trpcf
157452	157452	OXFORD SQUARE CAPITAL CORP	OXSQ	69181V107	1259429	6797	523910.0	P	01	LC	89921	44630	2003-11-21	E	oxsq
157452	157452	OXFORD SQUARE CAPITAL CORP	OXSQ	69181V107	1259429	6797	523910.0	P	01	LC	89921	44630	2003-11-21	E	oxsql
157452	157452	OXFORD SQUARE CAPITAL CORP	OXSQ	69181V107	1259429	6797	523910.0	P	01	LC	89921	44630	2003-11-21	E	oxsqz
157452	157452	OXFORD SQUARE CAPITAL CORP	OXSQ	69181V107	1259429	6797	523910.0	P	01	LC	89921	44630	2003-11-21	E	oxsqg
157679	157679	SPIRIT REALTY CAPITAL INC	SRC	84860W300	1308606	6798	531120.0	P	02	LC	90514	46033	2004-12-16	2007-08-01	src
157679	157679	SPIRIT REALTY CAPITAL INC	SRC	84860W300	1308606	6798	531120.0	P	02	LC	90514	46033	2004-12-16	2007-08-01	src-pa
157679	157679	SPIRIT REALTY CAPITAL INC	SRC	84860W300	1308606	6798	531120.0	P	03	LC	14039	54472	2013-07-18	2024-01-31	src
157679	157679	SPIRIT REALTY CAPITAL INC	SRC	84860W300	1308606	6798	531120.0	P	03	LC	14039	54472	2013-07-18	2024-01-31	src-pa
157679	157679	SPIRIT REALTY CAPITAL INC	SRC	84860W300	1308606	6798	531120.0	P	03	LC	13580	54181	2012-09-21	2013-07-17	src
157679	157679	SPIRIT REALTY CAPITAL INC	SRC	84860W300	1308606	6798	531120.0	P	03	LC	13580	54181	2012-09-21	2013-07-17	src-pa
157755	157755	MARCHEX INC	MCHX	56624R108	1224133	7389	541890.0	P	01	LC	90088	44998	2004-03-31	E	mchx
157855	157855	SALESFORCE INC	CRM	79466L302	1108524	7372	513210.0	P	01	LC	90215	45288	2004-06-23	E	crm
157862	157862	INTERSECTIONS INC	INTX	460981301	1095277	7323	561450.0	P	02	LC	90129	45085	2004-04-30	2019-01-31	
157865	157865	MEI PHARMA INC	MEIP	55279B301	1262104	2834	325412.0	P	01	LC	89935	44689	2003-12-18	E	meip
157875	157875	VILLAGE FARMS INTL INC	VFF	92707Y108	1584549	100	111219.0	C	01	LC	18416	56659	2019-02-21	E	vff
157955	157955	ASSURED GUARANTY LTD	AGO	G0585R106	1273813	6351	524126.0	P	01	LC	90120	45077	2004-04-23	E	ago
158053	158053	NEW YORK MORTGAGE TRUST INC	NYMT	649604840	1273685	6798	525990.0	P	01	LC	90214	45287	2008-06-05	E	nymt
158053	158053	NEW YORK MORTGAGE TRUST INC	NYMT	649604840	1273685	6798	525990.0	P	01	LC	90214	45287	2008-06-05	E	nymtn
158053	158053	NEW YORK MORTGAGE TRUST INC	NYMT	649604840	1273685	6798	525990.0	P	01	LC	90214	45287	2008-06-05	E	nymtz
158053	158053	NEW YORK MORTGAGE TRUST INC	NYMT	649604840	1273685	6798	525990.0	P	01	LC	90214	45287	2008-06-05	E	nymtl
158053	158053	NEW YORK MORTGAGE TRUST INC	NYMT	649604840	1273685	6798	525990.0	P	01	LC	90214	45287	2008-06-05	E	nymtm
158053	158053	NEW YORK MORTGAGE TRUST INC	NYMT	649604840	1273685	6798	525990.0	P	01	LC	90214	45287	2004-06-24	2007-09-10	nymt
158053	158053	NEW YORK MORTGAGE TRUST INC	NYMT	649604840	1273685	6798	525990.0	P	01	LC	90214	45287	2004-06-24	2007-09-10	nymtn
158053	158053	NEW YORK MORTGAGE TRUST INC	NYMT	649604840	1273685	6798	525990.0	P	01	LC	90214	45287	2004-06-24	2007-09-10	nymtz
158053	158053	NEW YORK MORTGAGE TRUST INC	NYMT	649604840	1273685	6798	525990.0	P	01	LC	90214	45287	2004-06-24	2007-09-10	nymtl
158053	158053	NEW YORK MORTGAGE TRUST INC	NYMT	649604840	1273685	6798	525990.0	P	01	LC	90214	45287	2004-06-24	2007-09-10	nymtm
158055	158055	DYADIC INTERNATIONAL INC	DYAI	26745T101	1213809	2836	325414.0	C	01	LC	90682	46671	2019-04-17	E	dyai
158055	158055	DYADIC INTERNATIONAL INC	DYAI	26745T101	1213809	2836	325414.0	C	01	LC	90682	46671	2005-05-26	2007-04-23	dyai
158354	158354	GENWORTH FINANCIAL INC	GNW	37247D106	1276520	6311	524113.0	P	01	LC	90162	45174	2004-05-25	E	gnw
158473	158473	SYNIVERSE HOLDINGS INC-OLD	SVR.1	87163F106	1169264	7373	541512.0	P	01	LC	90565	46163	2005-02-10	2011-01-12	
158563	158563	CYTOKINETICS INC	CYTK	23282W605	1061983	2834	325412.0	P	01	LC	90126	45082	2004-04-29	E	cytk
158587	158587	BANCORP INC	TBBK	05969A105	1295401	6020	522110.0	P	01	LC	90490	44891	2004-12-23	E	tbbk
158587	158587	BANCORP INC	TBBK	05969A105	1295401	6020	522110.0	P	01	LC	90036	44891	2004-02-03	2004-12-22	tbbk
158737	158737	SP PLUS CORP	SP	78469C103	1059262	7500	812930.0	P	01	LC	90194	45203	2004-05-27	2024-05-31	sp
158737	158737	SP PLUS CORP	SP	78469C103	1059262	7500	812930.0	P	01	LC	90194	45203	2004-05-27	2024-05-31	crlkp
158741	158741	SEMICONDUCTOR MFG INTL CORP	SMICY	81663N206	1267482	3674	334413.0	P	90	LC	90076	44987	2004-03-17	2021-01-29	
158742	158742	MARKETAXESS HOLDINGS INC	MKTX	57060D108	1278021	6200	523210.0	P	01	LC	90454	45878	2004-11-05	E	mktx
158743	158743	B&G FOODS INC	BGS	05508R106	1278027	2000	311.0	P	01	LC	91977	45679	2007-05-23	E	bgs
160173	160173	ARBOR REALTY TRUST INC	ABR	038923108	1253986	6798	525990.0	P	01	LC	90102	45059	2004-04-07	E	abr
160173	160173	ARBOR REALTY TRUST INC	ABR	038923108	1253986	6798	525990.0	P	01	LC	90102	45059	2004-04-07	E	abr-pd
160173	160173	ARBOR REALTY TRUST INC	ABR	038923108	1253986	6798	525990.0	P	01	LC	90102	45059	2004-04-07	E	abr-pe
160173	160173	ARBOR REALTY TRUST INC	ABR	038923108	1253986	6798	525990.0	P	01	LC	90102	45059	2004-04-07	E	abr-pf
160207	160207	STONEMOR INC	STON	86184W106	1753886	6531	812220.0	P	01	LC	90366	45566	2004-09-15	2022-11-30	ston
160211	160211	DOMINO'S PIZZA INC	DPZ	25754A201	1286681	5812	722513.0	P	02	LC	90248	45379	2004-07-13	E	dpz
160213	160213	GSI TECHNOLOGY INC	GSIT	36241U106	1126741	3674	334413.0	P	01	LC	91901	51993	2007-03-29	E	gsit
160225	160225	MASTERCARD INC	MA	57636Q104	1141391	7389	522320.0	P	01	LC	91233	50700	2006-05-25	E	ma
160233	160233	PROSPECT CAPITAL CORP	PSEC	74348T102	1287032	6797	523910.0	P	01	LC	90291	45430	2004-07-27	E	psec
160233	160233	PROSPECT CAPITAL CORP	PSEC	74348T102	1287032	6797	523910.0	P	01	LC	90291	45430	2004-07-27	E	psec-pa
160282	160282	XERIUM TECHNOLOGIES INC	XRM	98416J118	1287151	3550	333243.0	P	02	LC	90700	46686	2010-05-26	2018-10-31	
160282	160282	XERIUM TECHNOLOGIES INC	XRM	98416J118	1287151	3550	333243.0	C	01	LC	90700	46686	2010-05-01	2010-05-25	
160282	160282	XERIUM TECHNOLOGIES INC	XRM	98416J118	1287151	3550	333243.0	P	01	LC	90700	46686	2005-05-16	2010-04-30	
160329	160329	ALPHABET INC	GOOGL	02079K305	1652044	7370	518210.0	P	01	LC	90319	45483	2004-08-19	E	googl
160329	160329	ALPHABET INC	GOOGL	02079K305	1652044	7370	518210.0	P	01	LC	90319	45483	2004-08-19	E	goog
160329	160329	ALPHABET INC	GOOGL	02079K305	1652044	7370	518210.0	J	03	LC	14542	45483	2014-04-03	E	googl
160329	160329	ALPHABET INC	GOOGL	02079K305	1652044	7370	518210.0	J	03	LC	14542	45483	2014-04-03	E	goog
160340	160340	MANNKIND CORP	MNKD	56400P706	899460	2836	325414.0	P	01	LC	90285	45425	2004-07-28	E	mnkd
160341	160341	W&T OFFSHORE INC	WTI	92922P106	1288403	1311	211120.0	P	01	LC	90533	46102	2005-01-28	E	wti
160375	160375	STEREOTAXIS INC	STXS	85916J409	1289340	3845	334510.0	P	01	LC	90325	45488	2019-09-06	E	stxs
160375	160375	STEREOTAXIS INC	STXS	85916J409	1289340	3845	334510.0	P	01	LC	90325	45488	2004-08-12	2016-07-29	stxs
160376	160376	TEXAS ROADHOUSE INC	TXRH	882681109	1289460	5812	722511.0	P	01	LC	90427	45732	2004-10-05	E	txrh
160378	160378	GRAMERCY PROPERTY TRUST	GPT	385002308	1297587	6798	531120.0	P	01	LC	90252	45383	2004-07-28	2015-12-17	
160378	160378	GRAMERCY PROPERTY TRUST	GPT	385002308	1297587	6798	531120.0	P	01	LC	13889	54387	2015-12-18	2018-10-31	
160381	160381	CENCOSUD SA	CNCOY	15132H101	1544856	5411	445110.0	P	91	LC	13425	54101	2012-06-22	2017-06-30	
160479	160479	EXTRA SPACE STORAGE INC	EXR	30225T102	1289490	6798	531130.0	P	01	LC	90305	45469	2004-08-12	E	exr
160488	160488	NEUROMETRIX INC	NURO	641255880	1289850	3841	339112.0	P	01	LC	90288	45428	2004-07-22	E	nuro
160541	160541	HERCULES CAPITAL INC	HTGC	427096508	1280784	6797	523910.0	P	01	LC	90731	46855	2005-06-09	E	htgc
160541	160541	HERCULES CAPITAL INC	HTGC	427096508	1280784	6797	523910.0	P	01	LC	90731	46855	2005-06-09	E	hcxy
160549	160549	LIBERTY GLOBAL LTD	LBTYK	G61188127	1570585	4841	517111.0	P	05	LC	90866	45301	2014-03-01	E	lbtya
160549	160549	LIBERTY GLOBAL LTD	LBTYK	G61188127	1570585	4841	517111.0	P	05	LC	90866	45301	2014-03-01	E	lbtyk
160549	160549	LIBERTY GLOBAL LTD	LBTYK	G61188127	1570585	4841	517111.0	P	05	LC	90866	45301	2014-03-01	E	lbtyb
160549	160549	LIBERTY GLOBAL LTD	LBTYK	G61188127	1570585	4841	517111.0	J	05	LC	90866	45301	2005-09-07	2014-02-28	lbtya
160549	160549	LIBERTY GLOBAL LTD	LBTYK	G61188127	1570585	4841	517111.0	J	05	LC	90866	45301	2005-09-07	2014-02-28	lbtyk
160549	160549	LIBERTY GLOBAL LTD	LBTYK	G61188127	1570585	4841	517111.0	J	05	LC	90866	45301	2005-09-07	2014-02-28	lbtyb
160549	160549	LIBERTY GLOBAL LTD	LBTYK	G61188127	1570585	4841	517111.0	J	02	LC	90228	45301	2004-06-08	E	lbtya
160549	160549	LIBERTY GLOBAL LTD	LBTYK	G61188127	1570585	4841	517111.0	J	02	LC	90228	45301	2004-06-08	E	lbtyk
160549	160549	LIBERTY GLOBAL LTD	LBTYK	G61188127	1570585	4841	517111.0	J	02	LC	90228	45301	2004-06-08	E	lbtyb
160549	160549	LIBERTY GLOBAL LTD	LBTYK	G61188127	1570585	4841	517111.0	J	01	LC	90227	45301	2014-03-01	E	lbtya
160549	160549	LIBERTY GLOBAL LTD	LBTYK	G61188127	1570585	4841	517111.0	J	01	LC	90227	45301	2014-03-01	E	lbtyk
160549	160549	LIBERTY GLOBAL LTD	LBTYK	G61188127	1570585	4841	517111.0	J	01	LC	90227	45301	2014-03-01	E	lbtyb
160549	160549	LIBERTY GLOBAL LTD	LBTYK	G61188127	1570585	4841	517111.0	P	01	LC	90227	45301	2004-06-08	2014-02-28	lbtya
160549	160549	LIBERTY GLOBAL LTD	LBTYK	G61188127	1570585	4841	517111.0	P	01	LC	90227	45301	2004-06-08	2014-02-28	lbtyk
160549	160549	LIBERTY GLOBAL LTD	LBTYK	G61188127	1570585	4841	517111.0	P	01	LC	90227	45301	2004-06-08	2014-02-28	lbtyb
160555	160555	TINGO GROUP INC	TIOG	55328R109	854800	4812	517.0	C	01	LC	13879	54379	2013-04-24	E	mict
160570	160570	COMMERCIAL VEHICLE GROUP INC	CVGI	202608105	1290900	3714	336390.0	P	01	LC	90314	45478	2004-08-05	E	cvgi
160571	160571	RTW RETAILWINDS INC	RTWIQ	74980D100	1211351	5621	448120.0	P	01	LC	90387	45696	2004-10-07	2020-12-31	
160598	160598	BEACON ROOFING SUPPLY INC	BECN	073685109	1124941	5030	423330.0	P	01	LC	90353	45555	2004-09-23	E	becn
160621	160621	SFL CORP LTD	SFL	G7738W106	1289877	4412	483111.0	P	01	LC	90219	45293	2004-06-17	E	sfl
160668	160668	INNOVIVA INC	INVA	45781M101	1080014	2836	325414.0	P	01	LC	90423	45728	2004-10-05	E	inva
160681	160681	HYSTER YALE INC	HY	449172105	1173514	3537	333924.0	P	02	LC	13577	28836	2012-10-01	E	hy
160684	160684	WESTLAKE CORP	WLK	960413102	1262823	2821	325211.0	P	02	LC	90312	45475	2004-08-11	E	wlk
160706	160706	DIAMONDROCK HOSPITALITY CO	DRH	252784301	1298946	6798	531120.0	P	02	LC	90680	46669	2005-05-26	E	drh
160706	160706	DIAMONDROCK HOSPITALITY CO	DRH	252784301	1298946	6798	531120.0	P	02	LC	90680	46669	2005-05-26	E	drh-pa
160739	160739	LG DISPLAY CO LTD	LPL	50186V102	1290109	3679	334419.0	P	90	LC	90266	45387	2004-07-22	E	lpl
160770	160770	MIRATI THERAPEUTICS INC	MRTX	60468T105	1576263	2836	325414.0	P	01	LC	14054	54484	2013-07-15	2024-01-31	mrtx
160776	160776	SIGNATURE BANK/NY	SBNY	82669G104	1288784	6020	522110.0	P	01	LC	90090	44999	2004-03-23	E	sbny
160776	160776	SIGNATURE BANK/NY	SBNY	82669G104	1288784	6020	522110.0	P	01	LC	90090	44999	2004-03-23	E	sbnyp
160779	160779	CENTERRA GOLD INC	CGAU	152006102	1854640	1040	212220.0	P	01	LC	20913	58178	2021-04-15	E	cgau
160785	160785	PURSUIT ATTRC AND HSPTLY INC	PRSU	92552R406	884219	7389	561920.0	P	01	LC	19721	20851	2004-07-01	E	vvi
160809	160809	CYCLACEL PHARMACEUTICALS	CYCC	23254L801	1130166	2836	325414.0	P	01	LC	90098	45005	2006-03-28	E	cycc
160809	160809	CYCLACEL PHARMACEUTICALS	CYCC	23254L801	1130166	2836	325414.0	P	01	LC	90098	45005	2006-03-28	E	cyccp
160855	160855	51JOB INC	JOBS	316827104	1295484	7361	541612.0	P	90	LC	90361	45562	2004-09-29	2022-05-31	
160888	160888	MONOLITHIC POWER SYSTEMS INC	MPWR	609839105	1280452	3674	334413.0	P	01	LC	90455	45879	2004-11-19	E	mpwr
160891	160891	ACCESS NATIONAL CORP	ANCX	004337101	1176316	6020	522110.0	P	01	LC	90274	45415	2004-07-19	2019-01-31	
160893	160893	ENERSYS	ENS	29275Y102	1289308	3690	335910.0	P	01	LC	90249	45380	2004-07-30	E	ens
160913	160913	ORMAT TECHNOLOGIES INC	ORA	686688102	1296445	4911	2211.0	P	01	LC	90444	45871	2004-11-11	E	ora
160990	160990	CUBESMART	CUBE	229663109	1298675	6798	531130.0	P	01	LC	90396	45705	2004-10-22	E	cube
160991	160991	DIGITAL REALTY TRUST INC	DLR	253868103	1297996	6798	531120.0	P	01	LC	90373	45684	2004-10-29	E	dlr
160991	160991	DIGITAL REALTY TRUST INC	DLR	253868103	1297996	6798	531120.0	P	01	LC	90373	45684	2004-10-29	E	dlr-pk
160991	160991	DIGITAL REALTY TRUST INC	DLR	253868103	1297996	6798	531120.0	P	01	LC	90373	45684	2004-10-29	E	dlr-pj
160991	160991	DIGITAL REALTY TRUST INC	DLR	253868103	1297996	6798	531120.0	P	01	LC	90373	45684	2004-10-29	E	dlr-pl
161048	161048	AMERICAN CAMPUS COMMUNITIES	ACC	024835100	1283630	6798	531110.0	P	01	LC	90300	45464	2004-08-12	2022-08-31	
161055	161055	BUILD-A-BEAR WORKSHOP INC	BBW	120076104	1113809	5945	459120.0	P	01	LC	90371	45680	2004-10-28	E	bbw
161120	161120	MACQUARIE INFRASTR HOLD LLC	MIC	55608B105	1845290	4924	221210.0	P	01	LC	90507	46026	2004-12-16	2022-07-29	
161813	161813	BLUELINX HOLDINGS INC	BXC	09624H208	1301787	5031	423310.0	P	01	LC	90496	46016	2004-12-14	E	bxc
161843	161843	MANITEX INTERNATIONAL INC	MNTX	563420108	1302028	3537	333924.0	P	01	LC	90568	46168	2005-02-15	E	mntx
161844	161844	LAS VEGAS SANDS CORP	LVS	517834107	1300514	7990	721120.0	P	01	LC	90505	46024	2004-12-15	E	lvs
161852	161852	SOTHERLY HOTELS INC	SOHO	83600C103	1301236	6798	531120.0	P	01	LC	90506	46025	2004-12-17	E	soho
161852	161852	SOTHERLY HOTELS INC	SOHO	83600C103	1301236	6798	531120.0	P	01	LC	90506	46025	2004-12-17	E	sohob
161852	161852	SOTHERLY HOTELS INC	SOHO	83600C103	1301236	6798	531120.0	P	01	LC	90506	46025	2004-12-17	E	sohoo
161852	161852	SOTHERLY HOTELS INC	SOHO	83600C103	1301236	6798	531120.0	P	01	LC	90506	46025	2004-12-17	E	sohon
161925	161925	CHINA FINANCE ONLINE CO LTD	JRJCY	169379203	1297830	6200	523130.0	C	90	LC	90412	45719	2004-10-15	E	jrjcy
161942	161942	BANKFINANCIAL CORP	BFIN	06643P104	1303942	6020	522110.0	P	01	LC	90718	46844	2005-06-24	E	bfin
161953	161953	EDUCATION REALTY TRUST INC	EDR.1	28140H203	1302343	6798	531110.0	P	01	LC	90524	46095	2005-01-26	2018-09-28	
161966	161966	ARES CAPITAL CORP	ARCC	04010L103	1287750	6797	523999.0	P	01	LC	90401	45709	2004-10-05	E	arcc
161997	161997	HURON CONSULTING GROUP INC	HURN	447462102	1289848	8742	541611.0	P	01	LC	90409	45716	2004-10-13	E	hurn
162076	162076	ARC DOCUMENT SOLUTIONS INC	ARC	00191G103	1305168	7389	561499.0	P	01	LC	90548	46146	2005-02-04	2024-11-29	arc
162127	162127	CONSOLIDATED COMM HLDGS INC	CNSL	209034107	1304421	4813	517311.0	P	01	LC	90803	47009	2005-07-22	2024-12-31	cnsl
162129	162129	MOSAIC CO	MOS	61945C103	1285785	2870	3253.0	P	01	LC	90386	45695	2004-10-25	E	mos
162146	162146	CRYOPORT INC	CYRX	229050307	1124524	3842	339113.0	P	01	LC	15506	55350	2015-07-24	E	cyrx
162160	162160	MEDICAL PROPERTIES TRUST	MPW	58463J304	1287865	6798	531120.0	C	01	LC	90790	47000	2005-07-08	E	mpw
162219	162219	OHA INVESTMENT CORP	OHAI	67091U102	1297704	6797	523910.0	P	01	LC	90456	45880	2004-11-10	2019-12-31	
162233	162233	DIGITAL ALLY INC	DGLY	25382T200	1342958	3651	334310.0	P	01	LC	92521	52918	2008-01-02	E	dgly
162254	162254	CELANESE CORP	CE	150870103	1306830	2860	325199.0	P	01	LC	90520	46091	2005-01-21	E	ce
162264	162264	NEENAH INC	NP	640079109	1296435	2621	322121.0	P	01	LC	90440	45869	2004-11-30	2022-07-29	
162293	162293	FIRST INTERNET BANCORP	INBK	320557101	1562463	6020	522110.0	P	01	LC	13797	54332	2013-02-22	E	inbk
162293	162293	FIRST INTERNET BANCORP	INBK	320557101	1562463	6020	522110.0	P	01	LC	13797	54332	2013-02-22	E	inbkz
162329	162329	FUSION TELECOMMUNICATIONS	FSNN.1	36113B400	0	4899	517919.0	P	01	LC	90556	46154	2014-06-09	2018-05-06	
162329	162329	FUSION TELECOMMUNICATIONS	FSNN.1	36113B400	0	4899	517919.0	P	01	LC	90556	46154	2005-02-15	2009-06-17	
162335	162335	PRESTIGE CONSUMER HEALTHCARE	PBH	74112D101	1295947	5122	424210.0	P	01	LC	90564	46162	2005-02-10	E	pbh
162338	162338	UNIVERSAL LOGISTICS HLDGS	ULH	91388P105	1308208	4210	4841.0	P	01	LC	90605	46287	2005-02-11	E	ulh
162346	162346	ATLANTIC POWER CORP	AT	04878Q863	1419242	4991	22111.0	P	01	LC	10201	53455	2010-07-23	2021-05-28	
162354	162354	DOLBY LABORATORIES INC	DLB	25659T107	1308547	6794	533110.0	P	01	LC	90550	46149	2005-02-17	E	dlb
162385	162385	WEX INC	WEX	96208T104	1309108	7389	522320.0	P	01	LC	90569	46169	2005-02-16	E	wex
162386	162386	GUE LIQ COS INC	FTDCQ	36257V105	1575360	5961	454110.0	P	01	LC	90554	46152	2005-02-09	2008-08-26	
162386	162386	GUE LIQ COS INC	FTDCQ	36257V105	1575360	5961	454110.0	P	02	LC	14247	54607	2013-11-01	2019-12-31	
162387	162387	TEEKAY LNG PARTNERS LP	TGP	Y8564M105	1308106	4412	483111.0	P	01	LC	90703	46689	2005-05-05	2022-01-31	seal-pa
162387	162387	TEEKAY LNG PARTNERS LP	TGP	Y8564M105	1308106	4412	483111.0	P	01	LC	90703	46689	2005-05-05	2022-01-31	seal-pb
162400	162400	XPEL INC	XPEL	98379L100	1767258	3714	336390.0	C	01	LC	18856	56838	2019-07-19	E	xpel
162401	162401	HUNTSMAN CORP	HUN	447011107	1307954	2860	3251.0	P	01	LC	90558	46156	2005-02-11	E	hun
162404	162404	LHC GROUP INC	LHCG	50187A107	1303313	8082	621610.0	P	01	LC	90734	46857	2005-06-09	2023-02-28	lhcg
162449	162449	EXLSERVICE HOLDINGS INC	EXLS	302081104	1297989	7374	518210.0	P	01	LC	91500	51308	2006-10-20	E	exls
162453	162453	AEMETIS INC	AMTX	00770K202	738214	2860	325193.0	P	01	LC	14689	54882	2014-06-06	E	amtx
162459	162459	HIGHPOINT RESOURCES CORP	HPR	43114K207	1725526	1311	2111.0	P	01	LC	90494	46014	2004-12-10	2021-04-30	
162501	162501	OTELCO INC	OTEL	688823301	1288359	4813	517311.0	P	05	LC	13938	46028	2013-05-28	2021-03-31	
162557	162557	UNITED FINANCIAL BANCORP INC	UBNK	910304104	1501364	6036	522120.0	P	01	LC	90711	46695	2005-05-23	2019-10-31	
162559	162559	LAZARD INC	LAZ	52110M109	1311370	6282	523940.0	C	01	LC	90701	46687	2005-05-05	E	laz
162560	162560	AXOS FINANCIAL INC	AX	05465C100	1299709	6035	522180.0	P	01	LC	90634	46441	2005-03-15	E	ax
162585	162585	SUNESIS PHARMACEUTICALS INC	SNSS	867328874	0	2834	325412.0	P	01	LC	90907	47447	2005-09-27	2021-02-24	
162701	162701	NOVELIS INC	HND1	67099U005	1304280	3350	331315.0	P	01	LC	90528	46098	2005-01-19	2007-05-14	
162720	162720	NAVIOS MARITIME HOLDINGS INC	NM	Y62197119	1333172	4412	483111.0	P	01	LC	90965	48768	2005-11-03	2023-12-29	nm
162720	162720	NAVIOS MARITIME HOLDINGS INC	NM	Y62197119	1333172	4412	483111.0	P	01	LC	90965	48768	2005-11-03	2023-12-29	nm-ph
162720	162720	NAVIOS MARITIME HOLDINGS INC	NM	Y62197119	1333172	4412	483111.0	P	01	LC	90965	48768	2005-11-03	2023-12-29	nm-pg
162733	162733	VERIFONE SYSTEMS INC	PAY.4	92342Y109	1312073	3578	334118.0	P	01	LC	90657	46553	2005-04-29	2018-08-31	
162742	162742	FREIGHTCAR AMERICA INC	RAIL	357023100	1320854	3743	336510.0	P	01	LC	90672	46566	2005-04-06	E	rail
162870	162870	BRP INC	DOOO	05577W200	1748797	3790	524126.0	C	01	LC	18109	56519	2018-09-14	E	dooo
162876	162876	CORE MARK HOLDING CO INC	CORE	218681104	1318084	5190	424940.0	P	01	LC	91018	49994	2005-12-02	2021-09-30	
162887	162887	DEXCOM INC	DXCM	252131107	1093557	3845	334510.0	P	01	LC	90664	46559	2005-04-14	E	dxcm
162894	162894	CRESTWOOD EQUITY PARTNERS LP	CEQP	226344208	1136352	5172	424720.0	P	01	LC	90737	46860	2005-06-21	2010-11-05	ceqp
162894	162894	CRESTWOOD EQUITY PARTNERS LP	CEQP	226344208	1136352	5172	424720.0	P	01	LC	90737	46860	2005-06-21	2010-11-05	ceqp-p
162894	162894	CRESTWOOD EQUITY PARTNERS LP	CEQP	226344208	1136352	5172	424720.0	P	01	LC	89043	41819	2010-11-06	2023-11-30	ceqp
162894	162894	CRESTWOOD EQUITY PARTNERS LP	CEQP	226344208	1136352	5172	424720.0	P	01	LC	89043	41819	2010-11-06	2023-11-30	ceqp-p
162906	162906	IHS MARKIT LTD	INFO.1	G47567105	1598014	7370	519130.0	P	01	LC	90992	48792	2005-11-11	2016-07-12	
162906	162906	IHS MARKIT LTD	INFO.1	G47567105	1598014	7370	519130.0	P	01	LC	14704	54895	2016-07-13	2022-03-02	
162914	162914	RADIANT LOGISTICS INC	RLGT	75025X100	1171155	4731	488510.0	P	01	LC	13196	53975	2012-01-11	E	rlgt
162925	162925	ACRES COMMERCIAL REALTY CORP	ACR	00489Q102	1332551	6798	525990.0	P	01	LC	91119	50319	2006-02-07	E	acr
162925	162925	ACRES COMMERCIAL REALTY CORP	ACR	00489Q102	1332551	6798	525990.0	P	01	LC	91119	50319	2006-02-07	E	acr-pc
162925	162925	ACRES COMMERCIAL REALTY CORP	ACR	00489Q102	1332551	6798	525990.0	P	01	LC	91119	50319	2006-02-07	E	acr-pd
162988	162988	ZUMIEZ INC	ZUMZ	989817101	1318008	5651	458110.0	P	01	LC	90715	46697	2005-05-06	E	zumz
163036	163036	BUILDERS FIRSTSOURCE	BLDR	12008R107	1316835	2452	321992.0	P	01	LC	90720	46846	2005-06-22	E	bldr
163051	163051	CITI TRENDS INC	CTRN	17306X102	1318484	5651	458110.0	P	01	LC	90706	46691	2005-05-18	E	ctrn
163058	163058	VIQ SOLUTIONS INC	VQSSF	91825V400	1777765	7370	5415.0	C	01	LC	21885	58688	2021-08-12	E	vqs
163060	163060	DIANA SHIPPING INC	DSX	Y2066G104	1318885	4412	483111.0	P	01	LC	90630	46432	2005-03-18	E	dsx
163060	163060	DIANA SHIPPING INC	DSX	Y2066G104	1318885	4412	483111.0	P	01	LC	90630	46432	2005-03-18	E	dsx-pb
163113	163113	KOPPERS HOLDINGS INC	KOP	50060P106	1315257	2860	325194.0	P	01	LC	91114	50314	2006-02-01	E	kop
163118	163118	WARNER MUSIC GROUP CORP	WMG	934550203	1319161	3652	512250.0	P	01	LC	90699	46685	2005-05-11	2011-07-29	wmg
163118	163118	WARNER MUSIC GROUP CORP	WMG	934550203	1319161	3652	512250.0	P	03	LC	19403	46685	2020-06-03	E	wmg
163594	163594	TRANSMONTAIGNE PARTNERS LP	TLP	89376V100	1319229	4610	486910.0	P	01	LC	90698	46684	2005-05-25	2019-02-28	
163595	163595	ALTO INGREDIENTS INC	ALTO	021513106	778164	2860	325193.0	P	01	LC	86165	16147	2005-03-24	E	alto
163610	163610	INTERCONTINENTAL EXCHANGE	ICE	45866F104	1571949	6200	523999.0	P	01	LC	90993	48793	2005-11-16	E	ice
163668	163668	LINCOLN EDUCATIONAL SERVICES	LINC	533535100	1286613	8200	611.0	P	01	LC	90735	46858	2005-06-23	E	linc
163678	163678	EVERI HOLDINGS INC	EVRI	30034T103	1318568	7990	713290.0	P	01	LC	90885	47428	2005-09-23	E	evri
163685	163685	EAGLE BULK SHIPPING INC	EGLE	Y2187A150	1322439	4412	483111.0	P	02	LC	90724	46849	2014-10-16	2024-04-30	egle
163685	163685	EAGLE BULK SHIPPING INC	EGLE	Y2187A150	1322439	4412	483111.0	C	01	LC	90724	46849	2014-10-01	2014-10-15	egle
163685	163685	EAGLE BULK SHIPPING INC	EGLE	Y2187A150	1322439	4412	483111.0	P	01	LC	90724	46849	2005-06-23	2014-09-30	egle
163692	163692	STUDENT TRANSPORTATION INC	STB	86388A108	1419465	4100	485.0	P	01	LC	13015	53887	2011-09-06	2018-05-31	
163765	163765	COOPER-STANDARD HOLDINGS INC	CPS	21676P103	1320461	3714	3363.0	P	01	LC	14185	54577	2013-10-17	E	cps
163768	163768	GTT COMMUNICATIONS INC	GTTNQ	362393100	1315255	4899	517919.0	P	03	LC	13993	54448	2013-06-17	2021-07-01	gttnq
163806	163806	NET ELEMENT INC	NETE	64111R300	0	7374	518210.0	P	01	LC	12350	53535	2012-10-03	2021-11-04	
163884	163884	FRANKLIN STREET PROPERTIES	FSP	35471R106	1031316	6798	531120.0	P	01	LC	90755	46878	2005-06-02	E	fsp
163887	163887	ORCHIDS PAPER PRODUCTS	TISUQ	68572N104	1324189	2670	322291.0	P	01	LC	90791	47001	2005-07-15	2020-02-29	
163889	163889	ATRICURE INC	ATRC	04963C209	1323885	3841	339112.0	P	01	LC	90856	47203	2005-08-05	E	atrc
163891	163891	RUTHS HOSPITALITY GROUP INC	RUTH	783332109	1324272	5812	722511.0	P	01	LC	90871	47217	2005-08-09	2023-06-30	ruth
163916	163916	WEB.COM GROUP INC	WEB	94733A104	1095291	7370	519130.0	P	01	LC	90984	48782	2005-11-02	2018-10-31	
163920	163920	WESTERN ALLIANCE BANCORP	WAL	957638109	1212545	6020	522110.0	P	01	LC	90776	46890	2005-06-30	E	wal
163920	163920	WESTERN ALLIANCE BANCORP	WAL	957638109	1212545	6020	522110.0	P	01	LC	90776	46890	2005-06-30	E	wal-pa
163924	163924	JAMES RIVER GROUP HLDGS LTD	JRVR	G5005R107	1620459	6331	524126.0	P	01	LC	90864	47211	2005-08-09	2007-12-11	jrvr
163924	163924	JAMES RIVER GROUP HLDGS LTD	JRVR	G5005R107	1620459	6331	524126.0	P	02	LC	15133	55149	2014-12-12	E	jrvr
163930	163930	GENCO SHIPPING & TRADING	GNK	Y2685T131	1326200	4412	483111.0	P	01	LC	90813	47018	2005-07-22	2014-04-21	gnk
163930	163930	GENCO SHIPPING & TRADING	GNK	Y2685T131	1326200	4412	483111.0	P	02	LC	15597	47018	2015-07-20	E	gnk
163935	163935	GLOBAL PARTNERS LP	GLP	37946R109	1323468	5171	424710.0	P	01	LC	90886	47429	2005-09-29	E	glp
163935	163935	GLOBAL PARTNERS LP	GLP	37946R109	1323468	5171	424710.0	P	01	LC	90886	47429	2005-09-29	E	glp-pa
163935	163935	GLOBAL PARTNERS LP	GLP	37946R109	1323468	5171	424710.0	P	01	LC	90886	47429	2005-09-29	E	glp-pb
163946	163946	CF INDUSTRIES HOLDINGS INC	CF	125269100	1324404	2870	325311.0	P	01	LC	90829	47183	2005-08-11	E	cf
163963	163963	COLUMBIA PROPERTY TRUST INC	CXP	198287203	1252849	6798	531120.0	P	01	LC	14184	54576	2013-10-10	2021-12-31	
163965	163965	CYTOSORBENTS CORP	CTSO	23283X206	1175151	3841	339112.0	P	01	LC	15127	55146	2014-12-23	E	ctso
163983	163983	TREEHOUSE FOODS INC	THS	89469A104	1320695	2050	3118.0	P	01	LC	90775	46889	2005-06-28	E	ths
164046	164046	GRAN TIERRA ENERGY INC	GTE	38500T200	1273441	1311	2111.0	P	01	LC	92619	52991	2008-04-08	E	gte
164086	164086	CIMPRESS PLC	CMPR	G2143T103	1262976	2750	32311.0	P	01	LC	90913	47451	2005-09-30	E	cmpr
164109	164109	LINN ENERGY INC	LNGG.1	53601P304	0	1311	211111.0	P	01	LC	91081	50200	2006-01-13	2016-05-23	
164132	164132	RETAIL PPTYS OF AMERICA INC	RPAI	76131V202	1222840	6798	531120.0	P	01	LC	13358	54050	2012-04-05	2021-10-29	
164155	164155	GLADSTONE INVESTMENT CORP/DE	GAIN	376546107	1321741	6797	523910.0	P	01	LC	90729	46853	2005-06-23	E	gain
164155	164155	GLADSTONE INVESTMENT CORP/DE	GAIN	376546107	1321741	6797	523910.0	P	01	LC	90729	46853	2005-06-23	E	gainn
164155	164155	GLADSTONE INVESTMENT CORP/DE	GAIN	376546107	1321741	6797	523910.0	P	01	LC	90729	46853	2005-06-23	E	gainz
164211	164211	SILICON MOTION TECH -ADR	SIMO	82706C108	1329394	3674	334413.0	P	90	LC	90744	46866	2005-06-30	E	simo
164255	164255	JAMBA INC	JMBA	47023A309	1316898	5812	722515.0	P	02	LC	90795	46888	2005-07-28	2018-09-28	
164290	164290	KONA GRILL INC	KONA	50047H201	1265572	5812	722511.0	P	01	LC	90865	47212	2005-08-16	2019-04-24	
164293	164293	STRATA SKIN SCIENCES INC	SSKN	86272A305	1051514	3841	339112.0	P	01	LC	90955	47883	2005-10-28	E	sskn
164296	164296	WARNER BROS DISCOVERY INC	WBD	934423104	1437107	4841	516210.0	J	03	LC	92778	47011	2008-09-18	2022-04-08	wbd
164296	164296	WARNER BROS DISCOVERY INC	WBD	934423104	1437107	4841	516210.0	J	02	LC	90806	47011	2005-07-21	2022-04-08	wbd
164296	164296	WARNER BROS DISCOVERY INC	WBD	934423104	1437107	4841	516210.0	P	01	LC	90805	47011	2005-07-21	2022-04-08	wbd
164296	164296	WARNER BROS DISCOVERY INC	WBD	934423104	1437107	4841	516210.0	P	01	LC	22976	59247	2022-04-11	E	wbd
164363	164363	TRONOX HOLDINGS PLC	TROX	G9087Q102	1530804	2810	325130.0	P	02	LC	91153	48802	2006-03-31	2008-09-29	trox
164363	164363	TRONOX HOLDINGS PLC	TROX	G9087Q102	1530804	2810	325130.0	N	01	LC	91012	48802	2006-03-31	2008-09-29	trox
164363	164363	TRONOX HOLDINGS PLC	TROX	G9087Q102	1530804	2810	325130.0	C	01	LC	91012	48802	2006-03-01	2006-03-30	trox
164363	164363	TRONOX HOLDINGS PLC	TROX	G9087Q102	1530804	2810	325130.0	P	01	LC	91012	48802	2005-11-22	2006-02-28	trox
164363	164363	TRONOX HOLDINGS PLC	TROX	G9087Q102	1530804	2810	325130.0	P	03	LC	13452	54112	2012-06-18	E	trox
164364	164364	INVESTORS BANCORP INC	ISBC	46146L101	1594012	6020	522110.0	P	01	LC	90952	47880	2005-10-12	2022-04-29	isbc
164416	164416	IROBOT CORP	IRBT	462726100	1159167	3990	339999.0	P	01	LC	90971	48773	2005-11-09	E	irbt
164471	164471	RESTAURANT BRANDS INTL INC	QSR	76131D103	1618756	5812	722513.0	P	01	LC	91212	50692	2006-05-18	2010-10-19	qsr
164471	164471	RESTAURANT BRANDS INTL INC	QSR	76131D103	1618756	5812	722513.0	P	02	LC	15113	55137	2014-12-15	E	qsr
164471	164471	RESTAURANT BRANDS INTL INC	QSR	76131D103	1618756	5812	722513.0	P	02	LC	13430	54100	2012-06-20	2014-12-12	qsr
164494	164494	SPIRIT AEROSYSTEMS HOLDINGS	SPR	848574109	1364885	3728	336413.0	P	01	LC	91594	51433	2006-11-21	E	spr
164506	164506	ACCO BRANDS CORP	ACCO	00081T108	712034	3990	339999.0	P	02	LC	90825	47179	2005-08-17	E	acco
164511	164511	ADVAXIS INC-OLD	ADXS.1	01299B939	0	2836	325414.0	P	01	LC	14237	54600	2013-10-17	2021-12-22	
164532	164532	BAIDU INC	BIDU	056752108	1329099	7370	519130.0	P	90	LC	90857	47204	2005-08-05	E	bidu
164534	164534	ATLAS CORP	ATCO	Y0436Q109	1794846	7359	532411.0	P	01	LC	90853	47200	2005-08-09	2023-03-31	atco
164534	164534	ATLAS CORP	ATCO	Y0436Q109	1794846	7359	532411.0	P	01	LC	90853	47200	2005-08-09	2023-03-31	atcol
164534	164534	ATLAS CORP	ATCO	Y0436Q109	1794846	7359	532411.0	P	01	LC	90853	47200	2005-08-09	2023-03-31	atco-pd
164534	164534	ATLAS CORP	ATCO	Y0436Q109	1794846	7359	532411.0	P	01	LC	90853	47200	2005-08-09	2023-03-31	atco-ph
164534	164534	ATLAS CORP	ATCO	Y0436Q109	1794846	7359	532411.0	P	01	LC	90853	47200	2005-08-09	2023-03-31	atco-pi
164557	164557	RBC BEARINGS INC	RBC	75524B104	1324948	3562	332991.0	P	01	LC	90870	47216	2005-08-10	E	roll
164557	164557	RBC BEARINGS INC	RBC	75524B104	1324948	3562	332991.0	P	01	LC	90870	47216	2005-08-10	E	rollp
164572	164572	AMERISAFE INC	AMSF	03071H100	1018979	6331	524126.0	P	01	LC	90963	48766	2005-11-18	E	amsf
164609	164609	GENOMIC HEALTH INC	GHDX	37244C101	1131324	2835	325413.0	P	01	LC	90900	47440	2005-09-29	2019-11-29	
164633	164633	HOME BANCSHARES INC	HOMB	436893200	1331520	6020	522110.0	P	01	LC	91356	50861	2006-06-23	E	homb
164652	164652	BROOKDALE SENIOR LIVING INC	BKD	112463104	1332349	8050	623311.0	P	01	LC	90988	48786	2005-11-22	E	bkd
164660	164660	CLEAR CHANNEL OUTDOOR HLDGS	CCO	18453H106	1334978	7310	541850.0	P	01	LC	90989	48787	2005-11-11	E	cco
164702	164702	HOLLYSYS AUTOMATION TECHNOLO	HOLI	G45667105	1357450	3823	334513.0	P	01	LC	92769	53073	2008-08-01	2024-07-31	holi
164708	164708	AMERIPRISE FINANCIAL INC	AMP	03076C106	820027	6282	523940.0	P	01	LC	90880	47422	2005-10-03	E	amp
164755	164755	CROCS INC	CROX	227046109	1334036	3021	316210.0	P	01	LC	91090	50293	2006-02-08	E	crox
164756	164756	BOARDWALK PIPELINE PRTNRS-LP	BWP	096627104	1336047	4922	486210.0	P	01	LC	90987	48785	2005-11-09	2018-07-31	
165051	165051	SUNPOWER CORP	SPWRQ	867652406	867773	3690	3359.0	J	02	LC	92791	48778	2008-09-30	2011-11-30	spwr
165051	165051	SUNPOWER CORP	SPWRQ	867652406	867773	3690	3359.0	P	01	LC	90978	48778	2005-11-17	2024-11-29	spwr
165052	165052	UNDER ARMOUR INC	UAA	904311107	1336917	2300	315.0	P	01	LC	90979	48779	2005-11-18	E	uaa
165052	165052	UNDER ARMOUR INC	UAA	904311107	1336917	2300	315.0	P	01	LC	90979	48779	2005-11-18	E	ua
165052	165052	UNDER ARMOUR INC	UAA	904311107	1336917	2300	315.0	J	03	LC	15980	48779	2016-04-08	E	uaa
165052	165052	UNDER ARMOUR INC	UAA	904311107	1336917	2300	315.0	J	03	LC	15980	48779	2016-04-08	E	ua
165075	165075	STEALTHGAS INC	GASS	Y81669106	1328919	4412	483111.0	P	01	LC	90950	47878	2005-10-06	E	gass
165123	165123	LEIDOS HOLDINGS INC	LDOS	525327102	1336920	7373	541512.0	P	01	LC	91547	51338	2006-10-13	E	ldos
165209	165209	CORENERGY INFRASTRUCTURE TR	CRNG	21870U874	1347652	6798	531120.0	P	03	LC	91801	51798	2007-02-02	2023-12-01	corr
165209	165209	CORENERGY INFRASTRUCTURE TR	CRNG	21870U874	1347652	6798	531120.0	P	03	LC	91801	51798	2007-02-02	2023-12-01	corr-pa
165215	165215	ALAUNOS THERAPEUTICS INC	TCRT	98973P309	1107421	2836	325414.0	P	01	LC	91488	51213	2006-09-22	E	tcrt
165262	165262	DHT HOLDINGS INC	DHT	Y2065G121	1331284	4412	483111.0	P	01	LC	90943	47872	2005-10-13	E	dht
165264	165264	FIDELITY NATIONAL FINANCIAL	FNF	31620R303	1331875	6361	524127.0	P	01	LC	90925	47864	2005-10-18	E	fnf
165358	165358	AMERICAN RAILCAR INDS INC	ARII	02916P103	1344596	3743	336510.0	P	01	LC	91075	50194	2006-01-20	2018-12-31	
165466	165466	DCP MIDSTREAM LP	DCP	23311P100	1338065	1311	211130.0	P	01	LC	91044	50018	2005-12-02	2023-06-30	dcp
165466	165466	DCP MIDSTREAM LP	DCP	23311P100	1338065	1311	211130.0	P	01	LC	91044	50018	2005-12-02	2023-06-30	dcp-pc
165466	165466	DCP MIDSTREAM LP	DCP	23311P100	1338065	1311	211130.0	P	01	LC	91044	50018	2005-12-02	2023-06-30	dcp-pb
165556	165556	CHAPARRAL ENERGY INC	CHAPQ	15942R208	1346980	1311	211120.0	P	10	LC	17981	56468	2018-07-24	2020-10-30	
165563	165563	BIO-PATH HOLDINGS INC	BPTH	09057N409	1133818	2836	325414.0	P	01	LC	14536	54782	2014-03-10	E	bpth
165637	165637	UR ENERGY INC	URG	91688R108	1375205	1090	212291.0	P	01	LC	92747	53054	2008-07-24	E	urg
165642	165642	AEGEAN MARINE PETROLM NETWK	ANWWQ	Y0017S102	1344376	5172	424720.0	P	01	LC	91655	51543	2006-12-08	E	
165649	165649	ENERGY TRANSFER LP	ET	29273V100	1276187	4922	486210.0	P	01	LC	91111	50309	2006-02-03	E	et
165649	165649	ENERGY TRANSFER LP	ET	29273V100	1276187	4922	486210.0	P	01	LC	91111	50309	2006-02-03	E	et-pc
165649	165649	ENERGY TRANSFER LP	ET	29273V100	1276187	4922	486210.0	P	01	LC	91111	50309	2006-02-03	E	et-pd
165649	165649	ENERGY TRANSFER LP	ET	29273V100	1276187	4922	486210.0	P	01	LC	91111	50309	2006-02-03	E	et-pe
165653	165653	DELTA TUCKER HOLDINGS INC	8550B	24799V932	1514226	4581	488190.0	P	01	LC	91216	50695	2006-05-04	2010-07-07	
165675	165675	VIACOM INC	VIAB	92553P201	1339947	4833	515120.0	J	02	LC	91066	50032	2006-01-03	2019-12-31	
165675	165675	VIACOM INC	VIAB	92553P201	1339947	4833	515120.0	P	01	LC	91063	50032	2006-01-03	2019-12-31	
165678	165678	COPA HOLDINGS SA	CPA	P31076105	1345105	4512	481111.0	P	01	LC	91065	50034	2005-12-15	E	cpa
165728	165728	EVER-GLORY INTL GROUP INC	EVKG	299766204	943184	2300	315.0	P	01	LC	84185	15135	2008-07-16	E	evk
165743	165743	STAR BULK CARRIERS CORP	SBLK	Y8162K204	1386716	4412	483111.0	P	01	LC	92470	52888	2007-12-03	E	sblk
165743	165743	STAR BULK CARRIERS CORP	SBLK	Y8162K204	1386716	4412	483111.0	P	01	LC	91121	50028	2006-02-27	2007-11-30	sblk
165746	165746	LIVE NATION ENTERTAINMENT	LYV	538034109	1335258	7900	711320.0	P	01	LC	91041	50016	2005-12-22	E	lyv
165846	165846	CALUMET INC	CLMT	131428104	2013745	2911	324110.0	P	01	LC	91076	50195	2006-01-26	E	
165856	165856	H&E EQUIPMENT SERVICES INC	HEES	404030108	1339605	5084	423830.0	P	01	LC	91080	50199	2006-01-31	E	hees
165868	165868	COMMAND CENTER INC -OLD	CCNI.1	20099F932	0	7363	561320.0	P	01	LC	17875	56400	2018-06-06	2019-07-30	
165911	165911	MAM SOFTWARE GROUP INC	MAMS	55277Q201	832488	7370	519130.0	P	01	LC	13931	54414	2013-05-13	2019-10-31	
165913	165913	EUROSEAS LTD	ESEA	Y23592135	1341170	4412	483111.0	P	01	LC	91734	51652	2007-01-31	E	esea
165914	165914	CHIPOTLE MEXICAN GRILL INC	CMG	169656105	1058090	5812	722513.0	J	02	LC	91518	50184	2006-10-13	2009-12-21	cmg
165914	165914	CHIPOTLE MEXICAN GRILL INC	CMG	169656105	1058090	5812	722513.0	P	01	LC	91068	50184	2006-01-26	E	cmg
165923	165923	PERION NETWORK LTD	PERI	M78673114	1338940	7370	519290.0	P	01	LC	91082	50201	2006-01-31	E	peri
165927	165927	TERNIUM S A	TX	880890108	1342874	3312	331110.0	P	90	LC	91125	50321	2006-02-01	E	tx
165968	165968	SUNWORKS INC	SUNWQ	86803X204	1172631	3674	334413.0	P	01	LC	15273	55215	2015-03-04	E	sunw
165993	165993	FIDELITY NATIONAL INFO SVCS	FIS	31620M106	1136893	7374	518210.0	P	01	LC	89003	41673	2006-02-01	E	fis
166087	166087	AIR INDUSTRIES GROUP INC	AIRI	00912N403	1009891	3728	336413.0	P	01	LC	13976	54440	2013-06-12	E	airi
166213	166213	LIQUIDITY SERVICES INC	LQDT	53635B107	1235468	5961	449210.0	P	01	LC	91095	50297	2006-02-23	E	lqdt
166230	166230	KRATON CORP	KRA	50077C106	1321646	2821	325211.0	P	01	LC	93175	53301	2009-12-17	2022-03-31	
166265	166265	ALEXCO RESOURCE CORP	AXU	01535P106	1364128	1044	212222.0	P	01	LC	92262	52745	2007-09-20	2022-09-30	axu
166368	166368	COMPASS DIVERSIFIED HOLDINGS	CODI	20451Q104	1345126	3600	335.0	P	01	LC	91271	50729	2006-05-11	E	codi
166368	166368	COMPASS DIVERSIFIED HOLDINGS	CODI	20451Q104	1345126	3600	335.0	P	01	LC	91271	50729	2006-05-11	E	codi-pb
166368	166368	COMPASS DIVERSIFIED HOLDINGS	CODI	20451Q104	1345126	3600	335.0	P	01	LC	91271	50729	2006-05-11	E	codi-pa
166368	166368	COMPASS DIVERSIFIED HOLDINGS	CODI	20451Q104	1345126	3600	335.0	P	01	LC	91271	50729	2006-05-11	E	codi-pc
166385	166385	GRUPO AEROPORTUARIO DEL PACI	PAC	400506101	1347557	4581	488119.0	P	90	LC	91112	50312	2006-02-24	E	pac
166385	166385	GRUPO AEROPORTUARIO DEL PACI	PAC	400506101	1347557	4581	488119.0	P	90	LC	91112	50312	2006-02-24	E	gpaef
166435	166435	VANDA PHARMACEUTICALS INC	VNDA	921659108	1347178	2836	325414.0	P	01	LC	91186	50601	2006-04-12	E	vnda
166436	166436	LEGACY RESERVES INC	LGCYQ	524706108	1735828	1311	211120.0	P	01	LC	91739	51657	2007-01-12	2019-12-13	
166447	166447	ANAVEX LIFE SCIENCES CORP	AVXL	032797300	1314052	2836	325414.0	P	01	LC	15776	55453	2015-10-28	E	avxl
166482	166482	MUELLER WATER PRODUCTS INC	MWA	624758108	1350593	3490	332911.0	J	02	LC	91639	50701	2006-12-15	2009-01-28	mwa
166482	166482	MUELLER WATER PRODUCTS INC	MWA	624758108	1350593	3490	332911.0	P	01	LC	91234	50701	2006-05-26	E	mwa
166485	166485	REGIONAL HEALTH PROPERTS INC	RHEP	75903M309	1004724	8051	623110.0	P	02	LC	91627	51408	2006-12-21	E	rhe
166485	166485	REGIONAL HEALTH PROPERTS INC	RHEP	75903M309	1004724	8051	623110.0	P	02	LC	91627	51408	2006-12-21	E	rhe-pa
166555	166555	ALPHATEC HOLDINGS INC	ATEC	02081G201	1350653	3842	339113.0	P	01	LC	91348	50854	2006-06-02	E	atec
166562	166562	VONAGE HOLDINGS CORP	VG.3	92886T201	1272830	7370	518210.0	P	01	LC	91237	50706	2006-05-24	2022-07-29	
166563	166563	DELEK US HOLDINGS INC	DK	24665A103	1694426	2911	324110.0	P	01	LC	91215	50694	2006-05-04	E	dk
166583	166583	LUNA INNOVATIONS INC	LUNA	550351100	1239819	3827	333310.0	P	01	LC	91359	50864	2006-06-02	E	luna
166593	166593	SYNCHRONOSS TECHNOLOGIES	SNCR	87157B400	1131554	7370	518210.0	P	01	LC	91366	50870	2006-06-15	E	sncr
166593	166593	SYNCHRONOSS TECHNOLOGIES	SNCR	87157B400	1131554	7370	518210.0	P	01	LC	91366	50870	2006-06-15	E	sncrl
166711	166711	SEQUENTIAL BRANDS GROUP INC	SQBGQ	81734P206	1648428	6794	533110.0	P	01	LC	14174	54566	2013-09-24	2022-03-04	
166723	166723	HOWARD BANCORP INC	HBMD	442496105	1390162	6020	522110.0	P	01	LC	13532	54149	2012-07-23	2022-01-31	
166789	166789	GENERAL FINANCE CORP/DE	GFN	369822101	1342287	7359	532490.0	P	02	LC	91299	50609	2006-06-13	2021-05-28	
170335	170335	PROOFPOINT INC	PFPT	743424103	1212458	7372	511210.0	P	01	LC	13377	54063	2012-04-20	2021-09-30	
170360	170360	USA COMPRESSION PRTNRS -OLD	USAC.2	90299B932	0	1389	213112.0	P	01	LC	13749	54304	2013-01-15	2018-04-29	
170375	170375	SELECT INCOME REIT	SIR	81618T100	1537667	6798	531120.0	P	01	LC	13309	54015	2012-03-07	2018-12-31	
170384	170384	GOGO INC	GOGO	38046C109	1537054	4899	517810.0	P	01	LC	13956	54428	2013-06-21	E	gogo
170396	170396	CUSTOMERS BANCORP INC	CUBI	23204G100	1488813	6020	522110.0	P	01	LC	13921	54408	2013-05-16	E	cubi
170396	170396	CUSTOMERS BANCORP INC	CUBI	23204G100	1488813	6020	522110.0	P	01	LC	13921	54408	2013-05-16	E	cubi-pe
170396	170396	CUSTOMERS BANCORP INC	CUBI	23204G100	1488813	6020	522110.0	P	01	LC	13921	54408	2013-05-16	E	cubi-pf
170396	170396	CUSTOMERS BANCORP INC	CUBI	23204G100	1488813	6020	522110.0	P	01	LC	13921	54408	2013-05-16	E	cubb
170420	170420	CANCER GENETICS INC	CGIX	13739U203	0	8071	621511.0	P	01	LC	14094	54507	2013-08-14	2021-03-30	
170520	170520	RADIUS HEALTH INC	RDUS.1	750469207	1428522	2836	325414.0	P	01	LC	14707	54898	2014-06-06	2022-08-31	
170527	170527	POST HOLDINGS INC	POST	737446104	1530950	2015	311999.0	P	01	LC	13188	53972	2012-02-06	E	post
170535	170535	BARFRESH FOOD GROUP INC	BRFH	067532200	1487197	2030	311412.0	P	01	LC	22634	59120	2022-01-20	E	brfh
170555	170555	GASLOG LTD	GLOG	G37585109	1534126	4412	483111.0	C	01	LC	13319	54021	2012-03-30	2021-06-30	glog-pa
170616	170616	SPLUNK INC	SPLK	848637104	1353283	7372	513210.0	P	01	LC	13379	54064	2012-04-19	2024-03-28	splk
170617	170617	META PLATFORMS INC	META	30303M102	1326801	7370	519290.0	P	01	LC	13407	54084	2012-05-18	E	meta
170627	170627	MIDSTATES PETROLEUM CO INC	MPO	59804T407	0	1311	211120.0	P	02	LC	16442	54043	2016-10-24	2019-08-06	
170627	170627	MIDSTATES PETROLEUM CO INC	MPO	59804T407	0	1311	211120.0	P	01	LC	13349	54043	2012-04-20	2016-02-03	
170639	170639	FORESIGHT ENERGY LP	FELPQ	34552U104	1540729	1220	212112.0	P	01	LC	14721	54914	2014-06-18	2019-11-08	
170714	170714	EMPIRE STATE REALTY TR INC	ESRT	292104106	1541401	6798	531120.0	P	01	LC	14196	54580	2013-10-02	E	esrt
170730	170730	ORGANOVO HOLDINGS INC	ONVO	68620A302	1497253	2836	325414.0	P	01	LC	14033	54467	2013-07-11	E	onvo
170750	170750	DIAMONDBACK ENERGY INC	FANG	25278X109	1539838	1311	2111.0	P	01	LC	13641	54222	2012-10-12	E	fang
170758	170758	CAESARSTONE LTD	CSTE	M20598104	1504379	3281	327991.0	P	01	LC	13321	54025	2012-03-22	E	cste
170759	170759	E2OPEN INC	EOPN	29788A104	1540400	7370	511210.0	P	01	LC	13526	54145	2012-07-26	2015-03-31	
170761	170761	VIPSHOP HOLDINGS LTD	VIPS	92763W103	1529192	5961	458110.0	P	90	LC	13315	54017	2012-03-23	E	vips
170765	170765	TECNOGLASS INC	TGLS	G87264100	1534675	3442	332321.0	P	02	LC	13403	54022	2012-05-10	E	tgls
170775	170775	GARRISON CAPITAL INC	GARS	366554103	1509892	6799	523910.0	P	01	LC	13826	54352	2013-03-27	2020-10-30	
170841	170841	PHILLIPS 66	PSX	718546104	1534701	2911	324110.0	P	01	LC	13356	54048	2012-05-01	E	psx
170920	170920	ASPEN GROUP INC	ASPU	04530L203	1487198	8200	611310.0	P	01	LC	16856	56030	2017-08-02	E	aspu
170945	170945	PUMA BIOTECHNOLOGY INC	PBYI	74587V107	1401667	2836	325414.0	P	01	LC	13621	54207	2012-10-19	E	pbyi
170965	170965	PERFORMANT HEALTHCARE INC	PHLT	71377E105	1550695	7320	5614.0	P	01	LC	13559	54167	2012-08-10	E	pfmt
170969	170969	TESARO INC	TSRO	881569107	1491576	2836	325414.0	P	01	LC	13456	54116	2012-06-28	2019-01-31	
171002	171002	GLOBUS MEDICAL INC	GMED	379577208	1237831	3841	339112.0	P	01	LC	13543	54157	2012-08-03	E	gmed
171007	171007	SERVICENOW INC	NOW	81762P102	1373715	7372	513210.0	P	01	LC	13447	54109	2012-06-29	E	now
171022	171022	STEMLINE THERAPEUTICS INC	STML	85858C107	1264587	2836	325414.0	P	01	LC	13761	54314	2013-01-29	2020-06-30	
171023	171023	BLACKROCK TCP CAPITAL	TCPC	09259E108	1370755	6797	523910.0	P	01	LC	13380	54065	2012-04-04	E	tcpc
171049	171049	BLOOMIN' BRANDS INC	BLMN	094235108	1546417	5812	722511.0	P	01	LC	13548	54162	2012-08-08	E	blmn
171059	171059	FORUM ENERGY TECH INC	FET	34984V209	1401257	3533	333132.0	P	01	LC	13337	54037	2012-04-12	E	fet
171067	171067	PALO ALTO NETWORKS INC	PANW	697435105	1327567	7370	518210.0	P	01	LC	13511	54139	2012-07-20	E	panw
171139	171139	SOUTHCROSS ENERGY PRTNRS LP	SXEEQ	84130C100	1547638	4922	486210.0	P	01	LC	13691	54267	2012-11-02	2020-01-31	
171141	171141	FIVE BELOW INC	FIVE	33829M101	1177609	5331	455219.0	P	01	LC	13527	54146	2012-07-19	E	five
171155	171155	CLEARSIGN TECHNOLOGIES CORP	CLIR	185064102	1434524	3823	334513.0	P	01	LC	13369	54057	2012-04-25	E	clir
174022	174022	ANYWHERE REAL ESTATE INC	HOUS	75605Y106	1398987	6531	531210.0	P	01	LC	91388	50961	2006-08-01	2007-04-09	hous
174022	174022	ANYWHERE REAL ESTATE INC	HOUS	75605Y106	1398987	6531	531210.0	P	02	LC	13622	54208	2012-10-11	E	hous
174049	174049	PGT INNOVATIONS INC	PGTI	69336V101	1354327	3442	332321.0	P	01	LC	91363	50867	2006-06-28	2024-03-31	pgti
174077	174077	COMMVAULT SYSTEMS INC	CVLT	204166102	1169561	7370	518210.0	P	01	LC	91463	51198	2006-09-22	E	cvlt
174119	174119	HOUSTON WIRE & CABLE CO	HWCC	44244K109	1356949	5063	423610.0	P	01	LC	91357	50862	2006-06-15	2021-06-30	
174134	174134	PTC THERAPEUTICS INC	PTCT	69366J200	1070081	2836	325414.0	P	01	LC	13967	54436	2013-06-20	E	ptct
174136	174136	ACHILLION PHARMACEUTICALS	ACHN.1	00448Q201	1070336	2836	325414.0	P	01	LC	91491	51300	2006-10-26	2020-01-31	
174147	174147	QVC GROUP INC	QVCGA	74915M100	1355096	5961	449110.0	J	02	LC	91278	41998	2006-05-10	E	qrtea
174147	174147	QVC GROUP INC	QVCGA	74915M100	1355096	5961	449110.0	J	02	LC	91278	41998	2006-05-10	E	qrteb
174147	174147	QVC GROUP INC	QVCGA	74915M100	1355096	5961	449110.0	J	02	LC	91278	41998	2006-05-10	E	qrtep
174147	174147	QVC GROUP INC	QVCGA	74915M100	1355096	5961	449110.0	P	01	LC	91277	41998	2006-05-10	E	qrtea
174147	174147	QVC GROUP INC	QVCGA	74915M100	1355096	5961	449110.0	P	01	LC	91277	41998	2006-05-10	E	qrteb
174147	174147	QVC GROUP INC	QVCGA	74915M100	1355096	5961	449110.0	P	01	LC	91277	41998	2006-05-10	E	qrtep
174159	174159	SYNCORA HOLDINGS LTD	SYCRF	G8649T109	1358164	6351	524126.0	P	01	LC	91427	51106	2006-08-02	2008-12-16	
174169	174169	BATTALION OIL CORP	BATL	07134L107	1282648	1311	211120.0	P	10	LC	91283	50735	2020-02-20	E	batl
174169	174169	BATTALION OIL CORP	BATL	07134L107	1282648	1311	211120.0	P	07	LC	91283	50735	2016-09-12	2019-07-22	batl
174169	174169	BATTALION OIL CORP	BATL	07134L107	1282648	1311	211120.0	C	01	LC	91283	50735	2016-09-01	2016-09-11	batl
174169	174169	BATTALION OIL CORP	BATL	07134L107	1282648	1311	211120.0	P	01	LC	91283	50735	2006-05-09	2016-08-31	batl
174222	174222	DUNKIN' BRANDS GROUP INC	DNKN	265504100	1357204	5812	722515.0	P	01	LC	12914	53843	2011-07-27	2020-12-31	
174236	174236	SELECT MEDICAL HOLDINGS CORP	SEM	81619Q105	1320414	8060	622310.0	P	01	LC	93035	53214	2009-09-25	E	sem
174310	174310	KBR INC	KBR	48242W106	1357615	7370	54151.0	P	01	LC	91579	51426	2006-11-16	E	kbr
174313	174313	LEGACY TEX FINANCIAL GRP INC	LTXB	52471Y106	1487052	6020	522110.0	P	01	LC	91514	51319	2006-10-03	2019-10-31	
174314	174314	WILDBRAIN LTD	WLDBF	96810C101	1490186	7812	512110.0	P	02	LC	15424	55307	2018-05-01	2019-12-23	
174314	174314	WILDBRAIN LTD	WLDBF	96810C101	1490186	7812	512110.0	J	02	LC	15424	55307	2015-06-23	2018-04-30	
174360	174360	SEVEN HILLS REALTY TRUST	SEVN	81784E101	1452477	6726		P	01	LC	92966	53174	2009-06-17	E	sevn
174360	174360	SEVEN HILLS REALTY TRUST	SEVN	81784E101	1452477	6726		P	01	LC	91235	50702	2006-05-26	2009-06-16	sevn
174389	174389	EHEALTH INC	EHTH	28238P109	1333493	6411	524210.0	P	01	LC	91498	51306	2006-10-13	E	ehth
174390	174390	LEMAITRE VASCULAR INC	LMAT	525558201	1158895	3841	339112.0	P	01	LC	91503	51311	2006-10-19	E	lmat
174428	174428	INFUSYSTEM HOLDINGS INC	INFU	45685K102	1337013	7350	532283.0	P	01	LC	12452	53613	2010-12-23	E	infu
174449	174449	COMMUNITY BANKERS TRUST CORP	ESXB	203612106	1323648	6020	522110.0	P	01	LC	91446	50830	2006-09-05	2021-12-31	
174490	174490	WINDSTREAM HOLDINGS INC	WINMQ	97382A309	1282266	4813	517311.0	P	01	LC	91391	50964	2006-07-18	2020-09-30	
174531	174531	MITEL NETWORKS CORP	MITL	60671Q104	1170534	3661	334210.0	P	01	LC	93354	53397	2010-04-22	2018-11-30	
174541	174541	INNERWORKINGS INC	INWK	45773Y105	1350381	7389	561499.0	P	01	LC	91432	51110	2006-08-16	2020-10-30	
174567	174567	INNOPHOS HOLDINGS INC	IPHS	45774N108	1364099	2810	325180.0	P	01	LC	91614	51450	2006-11-02	2020-02-28	
174637	174637	ICF INTERNATIONAL INC	ICFI	44925C103	1362004	8742	541611.0	P	01	LC	91468	51205	2006-09-28	E	icfi
174647	174647	TRIPLE-S MANAGEMENT CORP	GTS	896749108	1171662	6324	524114.0	P	01	LC	92506	52907	2007-12-07	2022-02-28	
174700	174700	GLOBAL SHIP LEASE INC	GSL	Y27183600	1430725	4400	532411.0	P	02	LC	91453	51099	2006-09-29	E	gsl
174700	174700	GLOBAL SHIP LEASE INC	GSL	Y27183600	1430725	4400	532411.0	P	02	LC	91453	51099	2006-09-29	E	gsl-pb
174729	174729	TRAVEL PLUS LEISURE CO	TNL	894164102	1361658	6531	531390.0	P	01	LC	91392	50965	2006-08-01	E	tnl
174744	174744	EVERCORE INC	EVR	29977A105	1360901	6200	523999.0	P	01	LC	91413	51094	2006-08-11	E	evr
175004	175004	ORBCOMM INC	ORBC	68555P100	1361983	4899	517410.0	P	01	LC	91618	51454	2006-11-03	2021-09-30	
175007	175007	ALLEGIANT TRAVEL CO	ALGT	01748X102	1362468	4512	481111.0	P	01	LC	91659	51547	2006-12-08	E	algt
175008	175008	AMICUS THERAPEUTICS INC	FOLD	03152W109	1178879	2836	325414.0	P	01	LC	92040	52292	2007-05-31	E	fold
175013	175013	IMMUNOCELLULAR THERPTICS LTD	IMUC.2	452996408	0	2836	325414.0	C	01	LC	13385	54069	2012-05-30	2018-10-16	
175055	175055	HILL INTERNATIONAL INC	HIL	431466101	1287808	8741	236220.0	P	01	LC	91355	50860	2006-06-29	2022-12-30	hil
175064	175064	SYNERGY PHARMACEUTICALS INC	SGYPQ	871639308	1347613	2836	325414.0	P	01	LC	13167	53963	2011-12-01	2019-05-02	
175079	175079	CHINA BIOLOGIC PRODUCTS HLDG	CBPO	G21515104	1369868	2836	325414.0	P	01	LC	93189	53310	2009-12-02	2021-04-30	
175110	175110	AIRCASTLE LTD	AYR	G0129K104	1362988	7359	532411.0	P	01	LC	91426	51105	2006-08-08	2020-03-31	
175236	175236	ALIO GOLD INC	ALO	01627X108	1502154	1040	212221.0	P	01	LC	13097	53925	2011-11-04	2020-07-31	
175263	175263	WESTERN UNION CO	WU	959802109	1365135	6099	522320.0	P	01	LC	91461	51196	2006-10-02	E	wu
175264	175264	WNS (HOLDINGS) LIMITED	WNS	G98196101	1356570	7374	518210.0	N	90	LC	91390	50963	2024-03-28	2024-03-28	wns
175264	175264	WNS (HOLDINGS) LIMITED	WNS	G98196101	1356570	7374	518210.0	C	90	LC	91390	50963	2024-03-01	2024-03-27	wns
175264	175264	WNS (HOLDINGS) LIMITED	WNS	G98196101	1356570	7374	518210.0	P	90	LC	91390	50963	2006-07-26	2024-02-29	wns
175264	175264	WNS (HOLDINGS) LIMITED	WNS	G98196101	1356570	7374	518210.0	P	01	LC	24929	50963	2024-03-28	E	wns
175269	175269	CELSIUS HOLDINGS INC	CELH	15118V207	1341766	2086	312111.0	P	01	LC	93263	53346	2017-05-24	E	celh
175269	175269	CELSIUS HOLDINGS INC	CELH	15118V207	1341766	2086	312111.0	P	01	LC	93263	53346	2010-02-10	2010-12-31	celh
175271	175271	EVOLVE TRANSITION INFRAST LP	SNMP	30053M203	1362705	4610	486.0	P	01	LC	91845	51957	2006-11-15	2024-02-29	snmp
175299	175299	DOLPHIN ENTERTAINMENT INC	DLPN	25686H308	1282224	8700	541820.0	P	01	LC	17140	56171	2017-12-21	E	dlpn
175307	175307	DOUGLAS EMMETT INC	DEI	25960P109	1364250	6798	531120.0	P	01	LC	91519	51326	2006-10-25	E	dei
175319	175319	HANESBRANDS INC	HBI	410345102	1359841	2300	315.0	P	01	LC	91416	51096	2006-09-06	E	hbi
175376	175376	SHUTTERFLY INC	SFLY	82568P304	1125920	2731	323117.0	P	01	LC	91486	51211	2006-09-29	2019-09-30	
175404	175404	FIRST SOLAR INC	FSLR	336433107	1274494	3674	334413.0	P	01	LC	91611	51447	2006-11-17	E	fslr
175424	175424	SONOMA PHARMACEUTICALS INC	SNOA	83558L303	1367083	2834	325412.0	P	01	LC	91742	51660	2007-01-25	E	snoa
175442	175442	NEW ORIENTAL ED & TECH	EDU	647581206	1372920	8200	611.0	P	90	LC	91457	51191	2006-09-07	E	edu
175457	175457	BYRNA TECHNOLOGIES INC	BYRN	12448X201	1354866	3480	332994.0	C	01	LC	21272	58282	2021-05-05	E	byrn
175490	175490	YIELD10 BIOSCIENCE INC	YTENQ	98585K854	1121702	8731	541714.0	P	01	LC	91615	51451	2006-11-10	2024-05-15	yten
175503	175503	GOLD RESOURCE CORP	GORO	38068T105	1160791	1040	21222.0	P	01	LC	12049	53483	2010-08-30	E	goro
175523	175523	GLOBALSTAR INC	GSAT	378973507	1366868	4899	517410.0	P	01	LC	91612	51448	2006-11-02	E	gsat
175533	175533	INFINITY PHARMACEUTICALS INC	INFIQ	45665G303	1113148	2834	325412.0	P	01	LC	88434	37929	2006-09-13	2023-09-13	infi
175606	175606	DANAOS CORPORATION	DAC	Y1968P121	1369241	4412	483111.0	P	01	LC	91560	51340	2006-10-06	E	dac
175607	175607	PRIMIS FINANCIAL CORP	FRST	74167B109	1325670	6020	522110.0	P	01	LC	91622	51457	2006-11-01	E	frst
175654	175654	WILLDAN GROUP INC	WLDN	96924N100	1370450	8711	541330.0	P	01	LC	91625	51459	2006-11-21	E	wldn
175674	175674	COHEN & COMPANY INC	COHN	19249M102	1270436	6211	523150.0	P	01	LC	90077	44990	2006-10-09	E	cohn
175686	175686	PRIMORIS SERVICES CORP	PRIM	74164F103	1361538	1623	237120.0	P	01	LC	92773	53076	2008-08-20	E	prim
175689	175689	ARMSTRONG WORLD INDUSTRIES	AWI	04247X102	7431	3290	327993.0	P	01	LC	91516	51321	2006-10-18	E	awi
175900	175900	SALLY BEAUTY HOLDINGS INC	SBH	79546E104	1368458	5990	456120.0	P	01	LC	91683	51568	2006-11-17	E	sbh
175908	175908	WHERE FOOD COMES FROM INC	WFCF	96327X200	1360565	7370	519290.0	P	01	LC	21116	58229	2021-04-12	E	wfcf
175955	175955	IPG PHOTONICS CORP	IPGP	44980X109	1111928	3674	334413.0	P	01	LC	91668	51555	2006-12-13	E	ipgp
175966	175966	CATALYST PHARMACEUTICALS INC	CPRX	14888U101	1369568	2836	325414.0	P	01	LC	91606	51442	2006-11-08	E	cprx
175982	175982	CANADIAN SOLAR INC	CSIQ	136635109	1375877	3674	334413.0	P	01	LC	91607	51443	2006-11-09	E	csiq
176017	176017	ATHERSYS INC	ATHXQ	04744L205	1368148	2836	325414.0	P	01	LC	92456	52874	2007-12-12	2023-10-17	athx
176021	176021	ALLOT LTD	ALLT	M0854Q105	1365767	7372	513210.0	P	01	LC	91604	51440	2006-11-16	E	allt
176022	176022	EMERGENT BIOSOLUTIONS INC	EBS	29089Q105	1367644	2836	325414.0	P	01	LC	91571	51421	2006-11-15	E	ebs
176035	176035	NETLIST INC	NLST	64118P109	1282631	3674	334413.0	P	01	LC	91616	51452	2006-11-30	E	nlst
176092	176092	AERCAP HOLDINGS NV	AER	N00985106	1378789	7359	532411.0	P	01	LC	91602	51437	2006-11-21	E	aer
176103	176103	NORTH AMERICAN CONST GRP LTD	NOA	656811106	1368519	1389	238910.0	P	01	LC	91584	51431	2006-11-22	E	noa
176152	176152	GRUPO AEROPORTUARIO DEL CENT	OMAB	400501102	1378239	4581	488111.0	P	90	LC	91617	51453	2006-11-29	E	omab
176152	176152	GRUPO AEROPORTUARIO DEL CENT	OMAB	400501102	1378239	4581	488111.0	P	90	LC	91617	51453	2006-11-29	E	gaerf
176169	176169	KANDI TECHNOLOGIES GROUP	KNDI	G5214E103	1316517	3790	336999.0	P	01	LC	92589	52969	2008-03-18	E	kndi
176234	176234	CATCHMARK TIMBER TRUST	CTT	14912Y202	1341141	6798	531190.0	P	01	LC	14334	54668	2013-12-12	2022-09-30	ctt
176247	176247	ALTRA INDUSTRIAL MOTION CORP	AIMC	02208R106	1374535	3560	333613.0	P	01	LC	91658	51546	2006-12-15	2023-04-28	aimc
176249	176249	CARROLS RESTAURANT GROUP INC	TAST	14574X104	809248	5812	722513.0	P	01	LC	91678	51565	2006-12-15	2024-05-31	tast
176251	176251	INFORMATION SERVICES GROUP	III	45675Y104	1371489	7374	518210.0	P	02	LC	91754	51792	2007-02-12	E	iii
176256	176256	PORTMAN RIDGE FINANCE CORP	PTMN	73688F201	1372807	6797	523910.0	P	01	LC	91670	51557	2006-12-12	E	ptmn
176259	176259	TEEKAY OFFSHORE PARTNERS LP	TOO	Y8565J101	1382298	4412	483111.0	P	01	LC	91656	51544	2006-12-14	2020-01-31	
176260	176260	MELCO RESORTS & ENTERTAINMEN	MLCO	585464100	1381640	7990	721120.0	P	90	LC	91673	51560	2006-12-19	E	mlco
176268	176268	DCT INDUSTRIAL TRUST INC	DCT.1	233153204	1170991	6798	531120.0	P	01	LC	91635	51531	2006-12-13	2018-08-31	
176304	176304	BAIJIAYUN GROUP LTD	RTC	G0704V202	1381074	7370	518210.0	P	01	LC	91664	51551	2006-12-19	E	ffhl
176305	176305	HANWHA Q CELLS CO LTD	HQCL	41135V301	1371541	3674	334413.0	P	90	LC	91677	51564	2006-12-20	2019-01-31	
176343	176343	CLEAN ENERGY FUELS CORP	CLNE	184499101	1368265	5500	457120.0	P	01	LC	92035	52287	2007-05-25	E	clne
176346	176346	PROFIRE ENERGY INC	PFIE	74316X101	1289636	3533	333132.0	P	01	LC	14548	54791	2014-03-27	2025-01-31	pfie
176362	176362	AEROVIRONMENT INC	AVAV	008073108	1368622	3721	336411.0	P	01	LC	91733	51651	2007-01-23	E	avav
176363	176363	MELLANOX TECHNOLOGIES LTD	MLNX	M51363113	1356104	3674	334413.0	P	01	LC	91821	51810	2007-02-08	2020-04-30	
176378	176378	REEDS INC	REED	758338305	1140215	2086	312111.0	P	01	LC	92449	52868	2007-11-27	2023-02-15	reed
176523	176523	NATIONAL CINEMEDIA INC	NCMI	635309206	1377630	7310	541850.0	P	01	LC	91822	51811	2007-02-08	E	ncmi
176567	176567	SUPER MICRO COMPUTER INC	SMCI	86800U302	1375365	3570	334111.0	P	01	LC	91907	51998	2007-03-29	E	smci
176572	176572	AVIAT NETWORKS INC	AVNW	05366Y201	1377789	3663	334220.0	P	01	LC	91836	51949	2007-01-29	E	avnw
176591	176591	EMPLOYERS HOLDINGS INC	EIG	292218104	1379041	6331	524126.0	P	01	LC	91688	51635	2007-01-31	E	eig
176592	176592	HFF INC	HF.3	40418F108	1380509	6163	522310.0	P	01	LC	91692	51638	2007-01-31	2019-07-31	
176593	176593	CARPARTS COM INC	PRTS	14427M107	1378950	5961	441330.0	P	01	LC	91826	51815	2007-02-09	E	prts
176602	176602	ENSTAR GROUP LIMITED	ESGR	G3075P101	1363829	6331	524130.0	P	01	LC	91818	51807	2007-02-01	E	esgr
176602	176602	ENSTAR GROUP LIMITED	ESGR	G3075P101	1363829	6331	524130.0	P	01	LC	91818	51807	2007-02-01	E	esgro
176602	176602	ENSTAR GROUP LIMITED	ESGR	G3075P101	1363829	6331	524130.0	P	01	LC	91818	51807	2007-02-01	E	esgrp
176636	176636	HARROW INC	HROW	415858109	1360214	2834	325412.0	P	01	LC	13796	54331	2013-02-08	E	hrow
176636	176636	HARROW INC	HROW	415858109	1360214	2834	325412.0	P	01	LC	13796	54331	2013-02-08	E	hrowl
176637	176637	CYS INVESTMENTS INC	CYS	12673A108	1396446	6798	525990.0	P	02	LC	92945	53164	2009-06-12	2018-07-31	
176652	176652	CELLCOM ISRAEL LTD	CELJF	M2196U109	1385145	4812	517112.0	P	01	LC	91813	51802	2007-02-06	E	celjf
176670	176670	ACCURAY INC	ARAY	004397105	1138723	3845	334510.0	P	01	LC	91814	51803	2007-02-08	E	aray
176701	176701	INTERACTIVE BROKERS GROUP	IBKR	45841N107	1381197	6211	523150.0	P	01	LC	92043	52295	2007-05-04	E	ibkr
176725	176725	BARINGS BDC INC	BBDC	06759L103	1379785	6797	523999.0	P	01	LC	91834	51821	2007-02-15	E	bbdc
176760	176760	DOMTAR CORP	UFS	257559203	1381531	2621	322121.0	P	01	LC	91854	51966	2007-03-07	2021-11-30	
176768	176768	BRIDGELINE DIGITAL INC	BLIN	10807Q700	1378590	7370	518210.0	P	01	LC	92091	52371	2007-06-29	E	blin
176782	176782	GLU MOBILE INC	GLUU	379890106	1366246	7372	511210.0	P	01	LC	91900	51992	2007-03-22	2021-04-30	
176840	176840	RING ENERGY INC	REI	76680V108	1384195	1311	2111.0	P	01	LC	14137	54542	2013-09-03	E	rei
176867	176867	IT TECH PACKAGING INC	ITP	46527C209	1358190	2621	322120.0	P	01	LC	93177	53303	2009-12-17	E	itp
176874	176874	SUMMER INFANT INC	SUMR	865646301	1314772	3990	339999.0	P	01	LC	91909	52000	2007-03-07	2022-06-30	
176899	176899	SANDRIDGE ENERGY INC	SD	80007P869	1349436	1311	211120.0	P	02	LC	92421	52847	2007-11-06	2016-01-06	sd
176899	176899	SANDRIDGE ENERGY INC	SD	80007P869	1349436	1311	211120.0	P	02	LC	92421	52847	2007-11-06	2016-01-06	sdrdw
176899	176899	SANDRIDGE ENERGY INC	SD	80007P869	1349436	1311	211120.0	P	02	LC	92421	52847	2007-11-06	2016-01-06	sdrww
176899	176899	SANDRIDGE ENERGY INC	SD	80007P869	1349436	1311	211120.0	P	10	LC	16448	52847	2016-10-04	E	sd
176899	176899	SANDRIDGE ENERGY INC	SD	80007P869	1349436	1311	211120.0	P	10	LC	16448	52847	2016-10-04	E	sdrdw
176899	176899	SANDRIDGE ENERGY INC	SD	80007P869	1349436	1311	211120.0	P	10	LC	16448	52847	2016-10-04	E	sdrww
176914	176914	CHENIERE ENERGY PARTNERS LP	CQP	16411Q101	1383650	5171	424710.0	P	01	LC	91850	51963	2007-03-21	E	cqp
176928	176928	BROADRIDGE FINANCIAL SOLUTNS	BR	11133T103	1383312	7373	541512.0	P	01	LC	91849	51962	2007-04-02	E	br
176939	176939	CAMBIUM LEARNING GROUP INC	ABCD	13201A107	1466815	7370	519130.0	P	01	LC	93188	53309	2009-12-09	2018-12-31	
176973	176973	GREENLIGHT CAPITAL RE LTD	GLRE	G4095J109	1385613	6331	524130.0	P	01	LC	92041	52293	2007-05-24	E	glre
176992	176992	DIAMEDICA THERAPEUTICS INC	DMAC	25253X207	1401040	2836	325414.0	J	01	LC	18305	56606	2018-12-07	E	dmac
176999	176999	SARATOGA INVESTMENT CORP	SAR	80349A208	1377936	6797	523910.0	P	01	LC	91858	51969	2007-03-23	E	sar
176999	176999	SARATOGA INVESTMENT CORP	SAR	80349A208	1377936	6797	523910.0	P	01	LC	91858	51969	2007-03-23	E	sat
177009	177009	FIRST BANK	FRBA	31931U102	0	6020	522110.0	C	01	LC	14310	54651	2013-11-15	E	
177058	177058	SUPERCOM LTD	SPCB	M87095309	1291855	3663	334220.0	P	01	LC	92230	52678	2007-08-23	E	spcb
177067	177067	CAPITAL CLN ENRG CARRIERS CP	CCEC	Y00408107	1392326	4412	483111.0	P	01	LC	91895	51987	2007-03-30	E	cplp
177088	177088	BLACKSTONE INC	BX	09260D107	1393818	6282	523940.0	P	01	LC	92108	52388	2007-06-22	E	bx
177099	177099	MONOTYPE IMAGING HOLDINGS	TYPE	61022P100	1385292	7372	511210.0	P	01	LC	92210	52553	2007-07-25	2019-10-31	
177108	177108	CINEMARK HOLDINGS INC	CNK	17243V102	1385280	7830	512131.0	P	01	LC	91915	52115	2007-04-24	E	cnk
177109	177109	CAI INTERNATIONAL INC	CAI	12477X106	1388430	7359	532411.0	P	01	LC	91979	52251	2007-05-16	2021-12-31	
177111	177111	TECHTARGET INC	TTGT	87874R308	2018064	7310	5418.0	P	01	LC	92052	52303	2007-05-17	E	
177179	177179	CELLULAR BIOMEDICINE GROUP	CBMG	15117P102	1378624	2836	325414.0	P	01	LC	14693	54886	2014-06-18	2021-02-26	
177182	177182	OPIANT PHARMACEUTICALS INC	OPNT	683750103	1385508	2834	325412.0	P	01	LC	16904	56050	2017-08-29	2023-03-31	opnt
177216	177216	PENNANTPARK INVESTMENT CORP	PNNT	708062104	1383414	6797	523910.0	P	01	LC	91966	52140	2007-04-19	E	pnnt
177227	177227	INSULET CORP	PODD	45784P101	1145197	3845	334510.0	P	01	LC	92050	52301	2007-05-15	E	podd
177228	177228	NOVABAY PHARMACEUTICALS INC	NBY	66987P409	1389545	2834	325412.0	P	01	LC	92345	52809	2007-10-26	E	nby
177255	177255	JMP GROUP LLC	JMP	46629U107	1302350	6211	523120.0	P	01	LC	92010	52268	2007-05-11	2021-11-30	
177257	177257	INFINERA CORP	INFN	45667G103	1138639	3661	334210.0	P	01	LC	92095	52376	2007-06-07	E	infn
177267	177267	TE CONNECTIVITY PLC	TEL	G87052109	1385157	3678	334417.0	P	02	LC	92157	52418	2007-07-02	E	tel
177287	177287	JAZZ PHARMACEUTICALS PLC	JAZZ	G50871105	1232524	2834	325412.0	P	01	LC	92096	52377	2007-06-01	E	jazz
177315	177315	EDGIO INC	EGIOQ	53261M203	1391127	7370	517111.0	P	01	LC	92097	52378	2007-06-08	2024-09-17	egio
177340	177340	ACORN INTERNATIONAL INC -ADR	ATV	004854204	1365742	5961	454110.0	P	90	LC	91973	52245	2007-05-03	2021-01-31	
177367	177367	NIAGEN BIOSCIENCE INC	NAGE	171077407	1386570	2833	325411.0	P	01	LC	16007	55544	2016-04-25	E	cdxc
177376	177376	DISCOVER FINANCIAL SVCS	DFS	254709108	1393612	6141	522210.0	P	02	LC	92121	52396	2007-07-02	E	dfs
177405	177405	HYCROFT MINING HOLDING CORP	HYMC	44862P208	1718405	1040	212220.0	P	01	LC	91976	52248	2007-05-10	2015-03-09	hymc
177405	177405	HYCROFT MINING HOLDING CORP	HYMC	44862P208	1718405	1040	212220.0	P	01	LC	91976	52248	2007-05-10	2015-03-09	hymcl
177405	177405	HYCROFT MINING HOLDING CORP	HYMC	44862P208	1718405	1040	212220.0	P	01	LC	91976	52248	2007-05-10	2015-03-09	hymcw
177405	177405	HYCROFT MINING HOLDING CORP	HYMC	44862P208	1718405	1040	212220.0	P	01	LC	91976	52248	2007-05-10	2015-03-09	hymcz
177405	177405	HYCROFT MINING HOLDING CORP	HYMC	44862P208	1718405	1040	212220.0	C	02	LC	17366	56276	2020-06-01	E	hymc
177405	177405	HYCROFT MINING HOLDING CORP	HYMC	44862P208	1718405	1040	212220.0	C	02	LC	17366	56276	2020-06-01	E	hymcl
177405	177405	HYCROFT MINING HOLDING CORP	HYMC	44862P208	1718405	1040	212220.0	C	02	LC	17366	56276	2020-06-01	E	hymcw
177405	177405	HYCROFT MINING HOLDING CORP	HYMC	44862P208	1718405	1040	212220.0	C	02	LC	17366	56276	2020-06-01	E	hymcz
177426	177426	POET TECHNOLOGIES INC	POET	73044W302	1437424	3674	334413.0	P	01	LC	22909	59229	2022-03-14	E	poet
177446	177446	AMERICAN ELECTRIC TECH INC	AETI	025576109	0	3613	335313.0	P	01	LC	86812	16473	2007-05-16	2019-07-28	
177472	177472	NOBILIS HEALTH CORP	NRTSF	65500B103	1409916	8093	621498.0	C	01	LC	15324	55243	2015-04-17	2019-09-03	
177528	177528	TSS INC	TSSI	87288V101	1320760	8741	236220.0	P	01	LC	92218	52667	2024-11-14	E	tssi
177528	177528	TSS INC	TSSI	87288V101	1320760	8741	236220.0	P	01	LC	92218	52667	2007-08-01	2010-03-31	tssi
177629	177629	YINGLI GREEN ENERGY HLDGS CO	YGEHY	98584B202	1394029	3674	334413.0	P	90	LC	92154	52415	2007-06-08	2020-10-30	
177637	177637	AMC ENTERTAINMENT HOLDINGS	AMC	00165C302	1411579	7830	512131.0	P	01	LC	14328	54665	2013-12-18	E	amc
177637	177637	AMC ENTERTAINMENT HOLDINGS	AMC	00165C302	1411579	7830	512131.0	P	01	LC	14328	54665	2013-12-18	E	ape
177640	177640	TIPTREE INC	TIPT	88822Q103	1393726	6331	524126.0	P	01	LC	92111	52391	2013-08-13	E	tipt
177640	177640	TIPTREE INC	TIPT	88822Q103	1393726	6331	524126.0	P	01	LC	92111	52391	2007-06-22	2010-08-26	tipt
177744	177744	PROS HOLDINGS INC	PRO	74346Y103	1392972	7370	518210.0	P	01	LC	92143	52408	2007-06-28	E	pro
177764	177764	THERIVA BIOLOGICS INC	TOVX	87164U508	894158	2834	325412.0	P	01	LC	92130	52404	2007-06-26	E	syn
177780	177780	COMSCORE INC	SCOR	20564W204	1158172	7370	519290.0	P	01	LC	92102	52381	2007-06-27	E	scor
177782	177782	BLACKROCK CAPITAL INVT CORP	BKCC	092533108	1326003	6797	523910.0	P	01	LC	92090	52370	2007-06-27	2024-03-28	bkcc
177871	177871	VIRTUSA CORP	VRTU	92827P102	1207074	7370	541512.0	P	01	LC	92229	52677	2007-08-03	2021-02-26	
177881	177881	MASIMO CORP	MASI	574795100	937556	3845	334510.0	P	01	LC	92220	52669	2007-08-08	E	masi
177884	177884	CONCHO RESOURCES INC	CXO	20605P101	1358071	1311	2111.0	P	01	LC	92239	52684	2007-08-03	2021-01-29	
177925	177925	WABCO HOLDINGS INC	WBC	92927K102	1390844	3714	336340.0	P	01	LC	92188	52535	2007-08-01	2020-05-29	
177930	177930	ATHENAHEALTH INC	ATHN.2	04685W103	1131096	7370	519130.0	P	01	LC	92296	52766	2007-09-20	2019-02-28	
177943	177943	DHI GROUP INC	DHX	23331S100	1393883	7370	518210.0	P	01	LC	92172	52520	2007-07-18	E	dhx
177945	177945	BLUEKNIGHT ENERGY PRTNRS LP	BKEP	09625U109	1392091	5171	424710.0	P	01	LC	92206	52550	2011-05-16	2022-08-31	bkep
177945	177945	BLUEKNIGHT ENERGY PRTNRS LP	BKEP	09625U109	1392091	5171	424710.0	P	01	LC	92206	52550	2007-07-18	2009-02-19	bkep
177966	177966	ALLISON TRANSMISSION HLDGS	ALSN	01973R101	1411207	3714	336350.0	P	01	LC	13284	54006	2012-03-15	E	alsn
177975	177975	ZAGG INC	ZAGG	98884U108	1296205	3231	327215.0	P	01	LC	93149	53293	2009-11-10	2021-02-26	
177983	177983	GENPACT LTD	G	G3922B107	1398659	7374	518210.0	P	01	LC	92261	52708	2007-08-02	E	g
178015	178015	LULULEMON ATHLETICA INC	LULU	550021109	1397187	2300	315.0	P	01	LC	92203	52547	2007-07-30	E	lulu
178073	178073	B. RILEY FINANCIAL INC	RILY	05580M108	1464790	6211	523110.0	P	03	LC	92234	52681	2007-08-13	2009-07-31	rily
178073	178073	B. RILEY FINANCIAL INC	RILY	05580M108	1464790	6211	523110.0	P	03	LC	92234	52681	2007-08-13	2009-07-31	rilyg
178073	178073	B. RILEY FINANCIAL INC	RILY	05580M108	1464790	6211	523110.0	P	03	LC	92234	52681	2007-08-13	2009-07-31	rilyk
178073	178073	B. RILEY FINANCIAL INC	RILY	05580M108	1464790	6211	523110.0	P	03	LC	92234	52681	2007-08-13	2009-07-31	rilyl
178073	178073	B. RILEY FINANCIAL INC	RILY	05580M108	1464790	6211	523110.0	P	03	LC	92234	52681	2007-08-13	2009-07-31	rilym
178073	178073	B. RILEY FINANCIAL INC	RILY	05580M108	1464790	6211	523110.0	P	03	LC	92234	52681	2007-08-13	2009-07-31	rilyn
178073	178073	B. RILEY FINANCIAL INC	RILY	05580M108	1464790	6211	523110.0	P	03	LC	92234	52681	2007-08-13	2009-07-31	rilyo
178073	178073	B. RILEY FINANCIAL INC	RILY	05580M108	1464790	6211	523110.0	P	03	LC	92234	52681	2007-08-13	2009-07-31	rilyp
178073	178073	B. RILEY FINANCIAL INC	RILY	05580M108	1464790	6211	523110.0	P	03	LC	92234	52681	2007-08-13	2009-07-31	rilyt
178073	178073	B. RILEY FINANCIAL INC	RILY	05580M108	1464790	6211	523110.0	P	03	LC	92234	52681	2007-08-13	2009-07-31	rilyz
178073	178073	B. RILEY FINANCIAL INC	RILY	05580M108	1464790	6211	523110.0	P	03	LC	15540	55369	2015-07-16	E	rily
178073	178073	B. RILEY FINANCIAL INC	RILY	05580M108	1464790	6211	523110.0	P	03	LC	15540	55369	2015-07-16	E	rilyg
178073	178073	B. RILEY FINANCIAL INC	RILY	05580M108	1464790	6211	523110.0	P	03	LC	15540	55369	2015-07-16	E	rilyk
178073	178073	B. RILEY FINANCIAL INC	RILY	05580M108	1464790	6211	523110.0	P	03	LC	15540	55369	2015-07-16	E	rilyl
178073	178073	B. RILEY FINANCIAL INC	RILY	05580M108	1464790	6211	523110.0	P	03	LC	15540	55369	2015-07-16	E	rilym
178073	178073	B. RILEY FINANCIAL INC	RILY	05580M108	1464790	6211	523110.0	P	03	LC	15540	55369	2015-07-16	E	rilyn
178073	178073	B. RILEY FINANCIAL INC	RILY	05580M108	1464790	6211	523110.0	P	03	LC	15540	55369	2015-07-16	E	rilyo
178073	178073	B. RILEY FINANCIAL INC	RILY	05580M108	1464790	6211	523110.0	P	03	LC	15540	55369	2015-07-16	E	rilyp
178073	178073	B. RILEY FINANCIAL INC	RILY	05580M108	1464790	6211	523110.0	P	03	LC	15540	55369	2015-07-16	E	rilyt
178073	178073	B. RILEY FINANCIAL INC	RILY	05580M108	1464790	6211	523110.0	P	03	LC	15540	55369	2015-07-16	E	rilyz
178081	178081	MERCADOLIBRE INC	MELI	58733R102	1099590	5960	455219.0	P	01	LC	92221	52670	2007-08-10	E	meli
178083	178083	VMWARE INC -CL A	VMW	928563402	1124610	7373	541512.0	P	01	LC	92257	52705	2007-08-14	2023-11-30	vmw
178097	178097	CUMBERLAND PHARMACEUTICALS	CPIX	230770109	1087294	2834	325412.0	P	01	LC	93004	53198	2009-08-11	E	cpix
178148	178148	SANDSTORM GOLD LTD	SAND	80013R206	1434614	1040	212220.0	P	01	LC	13545	54159	2012-08-20	E	sand
178153	178153	NEONODE INC	NEON	64051M709	87050	3663	334220.0	P	01	LC	68145	3984	2012-05-01	E	neon
178153	178153	NEONODE INC	NEON	64051M709	87050	3663	334220.0	P	01	LC	68145	3984	2007-08-13	2009-01-01	neon
178157	178157	MIMEDX GROUP INC	MDXG	602496101	1376339	2836	325414.0	P	01	LC	13878	54378	2020-11-04	E	mdxg
178157	178157	MIMEDX GROUP INC	MDXG	602496101	1376339	2836	325414.0	P	01	LC	13878	54378	2013-04-25	2018-11-07	mdxg
178201	178201	VITAMIN SHOPPE INC	VSI	92849E101	1360530	5400	446191.0	P	01	LC	93071	53239	2009-10-28	2019-12-31	
178310	178310	TERADATA CORP	TDC	88076W103	816761	7370	518210.0	P	01	LC	92293	52762	2007-10-01	E	tdc
178327	178327	CHINA XD PLASTICS CO LTD	CXDC	16948F107	1353970	2821	325211.0	P	01	LC	93130	53284	2009-11-27	2023-02-28	cxdc
178371	178371	MAIDEN HOLDINGS LTD	MHLD	G5753U112	1412100	6331	524130.0	P	02	LC	92684	53025	2008-05-06	E	mhld
178371	178371	MAIDEN HOLDINGS LTD	MHLD	G5753U112	1412100	6331	524130.0	P	02	LC	92684	53025	2008-05-06	E	mhla
178371	178371	MAIDEN HOLDINGS LTD	MHLD	G5753U112	1412100	6331	524130.0	P	02	LC	92684	53025	2008-05-06	E	mh-pa
178371	178371	MAIDEN HOLDINGS LTD	MHLD	G5753U112	1412100	6331	524130.0	P	02	LC	92684	53025	2008-05-06	E	mh-pd
178371	178371	MAIDEN HOLDINGS LTD	MHLD	G5753U112	1412100	6331	524130.0	P	02	LC	92684	53025	2008-05-06	E	mh-pc
178371	178371	MAIDEN HOLDINGS LTD	MHLD	G5753U112	1412100	6331	524130.0	P	02	LC	92684	53025	2008-05-06	E	mhnc
178377	178377	SPI ENERGY CO LTD	SPIEF	G8651P110	1210618	3620	335999.0	C	90	LC	19666	55511	2017-09-01	2017-09-18	spi
178377	178377	SPI ENERGY CO LTD	SPIEF	G8651P110	1210618	3620	335999.0	P	90	LC	19666	55511	2016-01-19	2017-08-31	spi
178377	178377	SPI ENERGY CO LTD	SPIEF	G8651P110	1210618	3620	335999.0	P	02	LC	15913	55511	2017-09-19	E	spi
178403	178403	SEANERGY MARITIME HOLDINGS C	SHIP	Y73760400	1448397	4412	483111.0	P	02	LC	92380	52764	2007-10-26	E	ship
178405	178405	FLY LEASING LTD  -ADR	FLY	34407D109	1407298	7359	532411.0	P	90	LC	92263	52746	2007-09-27	2021-08-31	
178494	178494	REMARK HOLDINGS INC	MARK	75955K300	1368365	7372	513210.0	P	01	LC	89756	44117	2007-10-03	2024-02-13	mark
178507	178507	MSCI INC	MSCI	55354G100	1408198	6282	523940.0	P	01	LC	92402	52840	2007-11-15	E	msci
178518	178518	TELESAT CORP	TSAT	879512309	1845840	4899	517410.0	P	02	LC	22348	58988	2021-11-19	E	tsat
178519	178519	LPL FINANCIAL HOLDINGS INC	LPLA	50212V100	1397911	6211	523150.0	P	01	LC	12400	53576	2010-11-18	E	lpla
178529	178529	MAIN STREET CAPITAL CORP	MAIN	56035L104	1396440	6797	523910.0	P	01	LC	92309	52778	2007-10-05	E	main
178539	178539	RETAIL OPPORTUNITY INVTS CP	ROIC	76131N101	1407623	6798	531120.0	P	01	LC	92343	52807	2007-10-30	E	roic
178552	178552	TEXTAINER GROUP HOLDINGS LTD	TGH	G8766E109	1413159	7359	532411.0	P	01	LC	92379	52821	2007-10-10	2024-03-28	tgh
178552	178552	TEXTAINER GROUP HOLDINGS LTD	TGH	G8766E109	1413159	7359	532411.0	P	01	LC	92379	52821	2007-10-10	2024-03-28	tgh-pa
178552	178552	TEXTAINER GROUP HOLDINGS LTD	TGH	G8766E109	1413159	7359	532411.0	P	01	LC	92379	52821	2007-10-10	2024-03-28	tgh-pb
178644	178644	TECHPRECISION CORP	TPCS	878739200	1328792	3490	332999.0	P	01	LC	23884	59564	2023-05-05	E	tpcs
178672	178672	CVR ENERGY INC	CVI	12662P108	1376139	2911	324110.0	P	01	LC	92326	52793	2007-10-23	E	cvi
178684	178684	GRIZZLY ENERGY LLC	GRZZU	39869R405	1384072	1311	211130.0	C	01	LC	92375	52818	2017-08-01	2017-08-02	
178684	178684	GRIZZLY ENERGY LLC	GRZZU	39869R405	1384072	1311	211130.0	P	01	LC	92375	52818	2007-10-24	2017-07-31	
178698	178698	AAC HOLDINGS INC	AACH	000307108	1606180	8060	622210.0	P	01	LC	14945	55038	2014-10-02	2020-12-31	
178703	178703	PZENA INVESTMENT MANAGEMENT	PZN	74731Q103	1399249	6282	523920.0	P	01	LC	92354	52811	2007-10-25	2022-10-31	pzn
178704	178704	ULTA BEAUTY INC	ULTA	90384S303	1403568	5990	456120.0	P	01	LC	92322	52788	2007-10-25	E	ulta
178750	178750	AIX INC -ADS	AIFU	30712A103	1413855	6411	524210.0	P	90	LC	92301	52771	2007-11-01	E	fanh
178750	178750	AIX INC -ADS	AIFU	30712A103	1413855	6411	524210.0	C	90	LC	92301	52771	2007-10-31	2007-10-31	fanh
178797	178797	AMERICAN PUBLIC EDUCATION	APEI	02913V103	1201792	8200	611310.0	P	01	LC	92428	52854	2007-11-09	E	apei
178798	178798	APPROACH RESOURCES INC	AREXQ	03834A103	1405073	1311	211120.0	P	01	LC	92429	52855	2007-11-08	2019-11-11	
178803	178803	ENSIGN GROUP INC	ENSG	29358P101	1125376	8051	623110.0	P	01	LC	92432	52858	2007-11-09	E	ensg
178806	178806	LL FLOORING HOLDINGS INC	LLFLQ	55003T107	1396033	5211	444110.0	P	01	LC	92400	52839	2007-11-09	2024-08-09	ll
178814	178814	SCULPTOR CAPITAL MANAGEMENT	SCU	811246107	1403256	6282	523940.0	P	01	LC	92405	52843	2007-11-14	2023-11-30	scu
178823	178823	AMERICAN COASTAL INSURA CORP	ACIC	910710102	1401521	6331	524126.0	P	01	LC	13712	54284	2012-12-11	E	uihc
178847	178847	RESHAPE LIFESCIENCES INC	RSLS	76090R309	1427570	3845	334510.0	P	01	LC	92433	52859	2007-11-15	2018-12-28	rsls
178847	178847	RESHAPE LIFESCIENCES INC	RSLS	76090R309	1427570	3845	334510.0	P	01	LC	16393	55755	2021-06-16	E	rsls
178851	178851	NUVERRA ENVIRONMENTAL SOLUTN	NES	67091K302	1403853	1389	213112.0	P	01	LC	92395	52837	2007-11-20	2016-01-19	
178851	178851	NUVERRA ENVIRONMENTAL SOLUTN	NES	67091K302	1403853	1389	213112.0	P	04	LC	17017	52837	2017-10-12	2022-02-28	
178862	178862	CHIMERA INVESTMENT CORP	CIM	16934Q802	1409493	6798	525990.0	P	01	LC	92385	52825	2007-11-16	E	cim
178862	178862	CHIMERA INVESTMENT CORP	CIM	16934Q802	1409493	6798	525990.0	P	01	LC	92385	52825	2007-11-16	E	cim-pa
178862	178862	CHIMERA INVESTMENT CORP	CIM	16934Q802	1409493	6798	525990.0	P	01	LC	92385	52825	2007-11-16	E	cim-pb
178862	178862	CHIMERA INVESTMENT CORP	CIM	16934Q802	1409493	6798	525990.0	P	01	LC	92385	52825	2007-11-16	E	cim-pd
178862	178862	CHIMERA INVESTMENT CORP	CIM	16934Q802	1409493	6798	525990.0	P	01	LC	92385	52825	2007-11-16	E	cim-pc
178870	178870	SRC ENERGY INC	SRCI	78470V108	1413507	1311	2111.0	P	01	LC	12906	53837	2011-07-27	2020-01-31	
178874	178874	ORLA MINING LTD	ORLA	68634K106	1680056	1040	212220.0	C	01	LC	20241	57602	2020-12-22	E	orla
178877	178877	NAVIOS MARITIME PARTNERS LP	NMM	Y62267409	1415921	4412	483111.0	P	01	LC	92426	52852	2007-11-13	E	nmm
178906	178906	ANTELOPE ENTERPRISE HOLDINGS	AEHL	G041JN122	1470683	5961	455.0	P	01	LC	92475	52826	2010-11-03	E	aehl
178906	178906	ANTELOPE ENTERPRISE HOLDINGS	AEHL	G041JN122	1470683	5961	455.0	P	01	LC	92475	52826	2007-12-17	2009-12-28	aehl
178907	178907	FLEXSHOPPER INC	FPAY	33939J303	1397047	6159	522220.0	P	01	LC	16458	55788	2016-11-18	E	fpay
178921	178921	GASTAR EXPLORATION INC	GSTCQ	36729W202	1431372	1311	211.0	P	02	LC	91069	50185	2014-02-03	2018-09-06	
178973	178973	TITAN MACHINERY INC	TITN	88830R101	1409171	5080	4238.0	P	01	LC	92471	52889	2007-12-06	E	titn
178976	178976	STRIDE INC	LRN	86333M108	1157408	8200	611110.0	P	01	LC	92493	52898	2007-12-13	E	lrn
178997	178997	FRANCO-NEVADA CORP	FNV	351858105	1456346	6795	523910.0	P	01	LC	12994	53879	2011-09-08	E	fnv
179029	179029	XINYUAN REAL ESTATE CO -ADR	XIN	98417P204	1398453	6552	237210.0	P	90	LC	92517	52914	2007-12-12	E	xin
179048	179048	ATLANTIC CAP BANCSHARES INC	ACBI	048269203	1461755	6020	522110.0	P	01	LC	15709	55423	2015-11-02	2022-02-28	acbi
179058	179058	ORION ENERGY SYSTEMS INC	OESX	686275108	1409375	3640	335132.0	P	01	LC	92466	52884	2007-12-19	E	oesx
179060	179060	B2GOLD CORP	BTG	11777Q209	1429937	1040	212220.0	P	01	LC	13978	54441	2013-06-06	E	btg
179077	179077	FORESTAR GROUP INC	FOR	346232101	1406587	6552	237210.0	P	01	LC	92478	52892	2007-12-31	2017-10-05	for
179077	179077	FORESTAR GROUP INC	FOR	346232101	1406587	6552	237210.0	P	01	LC	16965	56083	2017-10-06	E	for
179087	179087	TEEKAY TANKERS LTD	TNK	G8726X106	1419945	4412	483111.0	P	01	LC	92518	52915	2007-12-13	E	tnk
179094	179094	DEL FRISCOS RESTURNT GRP INC	DFRG	245077102	1415301	5812	722511.0	P	01	LC	13524	54143	2012-07-27	2019-09-30	
179132	179132	ORION GROUP HOLDINGS INC	ORN	68628V308	1402829	1600	237990.0	P	01	LC	92467	52885	2007-12-20	E	orn
179202	179202	ECHOSTAR CORP	SATS	278768106	1415404	4899	517410.0	P	01	LC	92469	52887	2008-01-02	E	sats
179216	179216	BROOKFIELD INFRS PTRS LP	BIP	G16252101	1406234	4911	2211.0	P	01	LC	92550	52942	2008-01-31	E	bip
179216	179216	BROOKFIELD INFRS PTRS LP	BIP	G16252101	1406234	4911	2211.0	P	01	LC	92550	52942	2008-01-31	E	bipi
179216	179216	BROOKFIELD INFRS PTRS LP	BIP	G16252101	1406234	4911	2211.0	P	01	LC	92550	52942	2008-01-31	E	bip-pa
179216	179216	BROOKFIELD INFRS PTRS LP	BIP	G16252101	1406234	4911	2211.0	P	01	LC	92550	52942	2008-01-31	E	bip-pb
179249	179249	BROADWIND INC	BWEN	11161T207	1120370	3510	333611.0	P	01	LC	92917	53139	2009-04-09	E	bwen
179288	179288	DALLASNEWS CORP	DALN	235050101	1413898	2711	513110.0	P	01	LC	92528	52924	2008-02-11	E	daln
179300	179300	ATA CREATIVITY GLOBAL -ADS	AACG	00211V106	1420529	8200	611699.0	P	90	LC	92520	52917	2008-01-29	E	aacg
179413	179413	CARDIOVASCULAR SYSTEMS INC	CSII	141619106	1180145	3841	339112.0	P	01	LC	91365	50869	2009-02-26	2023-04-30	csii
179417	179417	REAL GOODS SOLAR INC	RGSEQ	75601N500	1425565	3690	335999.0	C	01	LC	92687	53028	2008-05-08	2019-02-14	
179437	179437	AMERICAN WATER WORKS CO INC	AWK	030420103	1410636	4941	221310.0	P	01	LC	92614	52985	2008-04-23	E	awk
179441	179441	BIOTELEMETRY INC	BEAT.2	090672106	1574774	8090	621999.0	P	01	LC	92587	52967	2008-03-19	2021-02-26	
179454	179454	DECISIONPOINT SYSTEMS INC	DPSI	24345A507	1505611	7370	541512.0	P	01	LC	78690	26126	2022-05-05	E	dpsi
179461	179461	AYTU BIOPHARMA INC	AYTU	054754858	1385818	2836	325414.0	P	01	LC	16974	56089	2017-10-20	E	aytu
179507	179507	SCIENTURE HOLDINGS INC	SCNX	80880X104	1382574	7370	519290.0	P	01	LC	19249	57027	2020-02-13	E	meds
179534	179534	VISA INC	V	92826C839	1403161	6099	522320.0	P	01	LC	92611	52983	2008-03-19	E	v
179577	179577	ENOVIS CORP	ENOV	194014502	1420800	3842	339113.0	P	01	LC	92648	53008	2008-05-08	E	enov
179583	179583	FABRINET	FN	G3323L100	1408710	3670	3344.0	P	01	LC	93427	53445	2010-06-25	E	fn
179597	179597	HERITAGE-CRYSTAL CLEAN INC	HCCI	42726M106	1403431	4955	562211.0	P	01	LC	92588	52968	2008-03-12	2023-10-31	hcci
179598	179598	CELLDEX THERAPEUTICS INC	CLDX	15117B202	744218	2836	325414.0	P	01	LC	10258	8186	2008-03-10	E	cldx
179621	179621	PHILIP MORRIS INTERNATIONAL	PM	718172109	1413329	2111	312230.0	P	01	LC	92602	52978	2008-03-31	E	pm
179657	179657	HILLENBRAND INC	HI	431571108	1417398	3530	3339.0	P	01	LC	92597	52975	2008-04-01	E	hi
179666	179666	LOGMEIN INC	LOGM	54142L109	1420302	7370	518210.0	P	01	LC	92984	53185	2009-07-01	2020-08-31	
179671	179671	CHEMOCENTRYX INC	CCXI	16383L106	1340652	2836	325414.0	P	01	LC	13262	53994	2012-02-08	2022-10-31	ccxi
179686	179686	ZOGENIX INC	ZGNX	98978L204	1375151	2834	325412.0	P	01	LC	12413	53585	2010-11-23	2022-03-31	
179690	179690	SOLARWINDS CORP	SWI	83417Q204	1739942	7370	518210.0	P	01	LC	92931	53152	2009-05-20	2016-02-05	swi
179690	179690	SOLARWINDS CORP	SWI	83417Q204	1739942	7370	518210.0	P	02	LC	18183	56550	2018-10-19	E	swi
179731	179731	INSYS THERAPEUTICS INC	INSYQ	45824V209	1516479	2834	325412.0	P	01	LC	82831	14309	2013-05-02	2019-06-18	
179738	179738	ENERGY RECOVERY INC	ERII	29270J100	1421517	3559	333248.0	P	01	LC	92753	53059	2008-07-02	E	erii
179741	179741	KKR & CO INC	KKR	48251W104	1404912	6311	524113.0	P	01	LC	11990	53463	2010-07-15	E	kkr
179741	179741	KKR & CO INC	KKR	48251W104	1404912	6311	524113.0	P	01	LC	11990	53463	2010-07-15	E	kkr-pc
179741	179741	KKR & CO INC	KKR	48251W104	1404912	6311	524113.0	P	01	LC	11990	53463	2010-07-15	E	kkrs
179782	179782	RESOLUTE ENERGY CORP	REN	76116A306	1469510	1311	211111.0	P	01	LC	93031	53213	2009-09-28	2019-02-28	
179817	179817	VERSO CORP	VRS	92531L207	1421182	2621	322121.0	P	01	LC	92670	53017	2008-05-15	2015-09-21	
179817	179817	VERSO CORP	VRS	92531L207	1421182	2621	322121.0	P	02	LC	16158	53017	2016-07-18	2022-03-31	
179819	179819	QUANEX BUILDING PRODUCTS	NX	747619104	1423221	3442	332321.0	P	01	LC	92635	53000	2008-04-24	E	nx
179834	179834	CAREDX INC	CDNA	14167L103	1217234	2835	325413.0	P	01	LC	14797	54951	2014-07-17	E	cdna
179840	179840	STANDARD BIOTOOLS INC	LAB	34385P108	1162194	3826	334516.0	P	01	LC	12577	53677	2011-02-10	E	lab
179841	179841	CODEXIS INC	CDXS	192005106	1200375	2836	325414.0	P	01	LC	93345	53389	2010-04-22	E	cdxs
179843	179843	INTREPID POTASH INC	IPI	46121Y201	1421461	1400	212390.0	P	01	LC	92621	52993	2008-04-22	E	ipi
179889	179889	AGNC INVESTMENT CORP	AGNC	00123Q104	1423689	6798	525990.0	P	01	LC	92680	53021	2008-05-15	E	agnc
179889	179889	AGNC INVESTMENT CORP	AGNC	00123Q104	1423689	6798	525990.0	P	01	LC	92680	53021	2008-05-15	E	agncn
179889	179889	AGNC INVESTMENT CORP	AGNC	00123Q104	1423689	6798	525990.0	P	01	LC	92680	53021	2008-05-15	E	agncm
179889	179889	AGNC INVESTMENT CORP	AGNC	00123Q104	1423689	6798	525990.0	P	01	LC	92680	53021	2008-05-15	E	agcgv
179889	179889	AGNC INVESTMENT CORP	AGNC	00123Q104	1423689	6798	525990.0	P	01	LC	92680	53021	2008-05-15	E	agncl
179889	179889	AGNC INVESTMENT CORP	AGNC	00123Q104	1423689	6798	525990.0	P	01	LC	92680	53021	2008-05-15	E	agnco
179889	179889	AGNC INVESTMENT CORP	AGNC	00123Q104	1423689	6798	525990.0	P	01	LC	92680	53021	2008-05-15	E	agncp
179929	179929	CONAVI MEDICAL CORP	CNVIF	205953102	840551	3845	334510.0	P	01	LC	17904	56424	2018-06-27	2023-03-09	tmdi
179957	179957	ECHO GLOBAL LOGISTICS INC	ECHO	27875T101	1426945	4731	541614.0	P	01	LC	93079	53247	2009-10-02	2021-11-30	
179974	179974	HCI GROUP INC	HCI	40416E103	1400810	6331	524126.0	P	01	LC	92780	53060	2008-09-15	E	hci
180016	180016	MRC GLOBAL INC	MRC	55345K103	1439095	5051	423510.0	P	01	LC	13343	54041	2012-04-12	E	mrc
180057	180057	IOVANCE BIOTHERAPEUTICS INC	IOVA	462260100	1425205	2836	325414.0	P	01	LC	15222	55197	2015-02-26	E	iova
180081	180081	SPROTT INC	SII	852066208	1512920	6282	523940.0	P	01	LC	19453	57106	2020-06-29	E	sii
180083	180083	GRAND CANYON EDUCATION INC	LOPE	38526M106	1434588	8200	611310.0	P	01	LC	92852	53106	2008-11-20	E	lope
180112	180112	SAFE BULKERS INC	SB	Y7388L103	1434754	4412	483111.0	P	01	LC	92679	53020	2008-05-29	E	sb
180112	180112	SAFE BULKERS INC	SB	Y7388L103	1434754	4412	483111.0	P	01	LC	92679	53020	2008-05-29	E	sb-pc
180112	180112	SAFE BULKERS INC	SB	Y7388L103	1434754	4412	483111.0	P	01	LC	92679	53020	2008-05-29	E	sb-pd
180146	180146	TOMI ENVIRONMENTAL SOLUTINS	TOMZ	890023203	314227	3559	333248.0	P	01	LC	19997	57471	2020-10-02	E	tomz
180193	180193	OAKTREE SPECIALTY LENDING CP	OCSL	67401P405	1414932	6797	523910.0	P	01	LC	92694	53033	2008-06-12	E	ocsl
180228	180228	INVESCO MORTGAGE CAPITAL INC	IVR	46131B704	1437071	6798	525990.0	P	01	LC	92951	53168	2009-06-26	E	ivr
180228	180228	INVESCO MORTGAGE CAPITAL INC	IVR	46131B704	1437071	6798	525990.0	P	01	LC	92951	53168	2009-06-26	E	ivr-pb
180228	180228	INVESCO MORTGAGE CAPITAL INC	IVR	46131B704	1437071	6798	525990.0	P	01	LC	92951	53168	2009-06-26	E	ivr-pc
180229	180229	MISTRAS GROUP INC	MG	60649T107	1436126	8711	541330.0	P	01	LC	93065	53234	2009-10-08	E	mg
180249	180249	HIGHPOWER INTERNATIONAL INC	HPJ	43113X101	1368308	3690	335911.0	P	01	LC	92696	53036	2008-06-19	2019-10-31	
180256	180256	NAVIOS MARITIME ACQUISITION	NNA	Y62159143	1437260	4412	483111.0	P	01	LC	92748	53042	2008-07-07	2021-10-29	
180272	180272	BLACK KNIGHT INC	BKI	09215C105	1627014	7370	518210.0	P	01	LC	92697	53037	2008-07-03	2014-01-02	bki
180272	180272	BLACK KNIGHT INC	BKI	09215C105	1627014	7370	518210.0	P	02	LC	16917	56055	2017-10-02	2023-09-29	bki
180272	180272	BLACK KNIGHT INC	BKI	09215C105	1627014	7370	518210.0	P	02	LC	15339	55251	2015-05-20	2017-10-01	bki
180345	180345	RESEARCH SOLUTIONS INC	RSSS	761025105	1386301	7389	561990.0	P	01	LC	19315	57055	2020-03-23	E	rsss
180363	180363	ALIMERA SCIENCES INC	ALIM	016259202	1267602	2834	325412.0	P	01	LC	93339	53386	2010-04-22	2024-09-30	alim
180395	180395	ILG INC	ILG	44967H101	1434620	6532	531390.0	P	01	LC	92772	53075	2008-08-21	2018-08-31	
180405	180405	ACTIVISION BLIZZARD INC	ATVI	00507V109	718877	7372	511210.0	P	01	LC	79678	12499	2008-07-10	2023-10-31	atvi
180413	180413	CHINA DISTANCE EDUCATION-ADR	DL	16944W104	1438644	8200	611699.0	P	90	LC	92728	53048	2008-07-30	2021-03-31	
180423	180423	LENDINGTREE INC	TREE	52603B107	1434621	6163	522310.0	P	01	LC	92775	53077	2008-08-21	E	tree
180466	180466	JBT MAREL CORP	JBTM	477839104	1433660	3550	333241.0	P	01	LC	92729	53050	2008-08-01	E	jbt
180474	180474	ZURN ELKAY WATER SOLUTI CORP	ZWS	98983L108	1439288	3430	332.0	P	01	LC	13305	54014	2012-03-29	E	zws
180483	180483	BERRY GLOBAL GROUP INC	BERY	08579W103	1378992	3080	3261.0	P	01	LC	13604	54198	2012-10-04	E	bery
180562	180562	ROADRUNNER TRANS SYSTEMS INC	RRTS	76973Q204	1440024	4731	541614.0	P	01	LC	93384	53413	2010-05-13	E	rrts
180635	180635	CLOUD PEAK ENERGY INC	CLDPQ	18911Q102	1441849	1220	212111.0	P	01	LC	93095	53263	2009-11-20	2019-03-29	
180646	180646	MYR GROUP INC	MYRG	55405W104	700923	1623	2371.0	P	01	LC	92782	53082	2008-09-09	E	myrg
180652	180652	VERISK ANALYTICS INC	VRSK	92345Y106	1442145	8742	541611.0	P	01	LC	93089	53256	2009-10-07	E	vrsk
180683	180683	IBIO INC	IBIO	451033708	1420720	2836	325414.0	P	01	LC	12527	53652	2011-01-04	E	ibio
180711	180711	BROADCOM INC	AVGO	11135F101	1730168	3674	334413.0	P	01	LC	93002	53196	2009-08-06	E	avgo
180711	180711	BROADCOM INC	AVGO	11135F101	1730168	3674	334413.0	P	01	LC	93002	53196	2009-08-06	E	avgop
180759	180759	DIVERSIFIED RESTAURANT HLDGS	SAUC	25532M105	1394156	5812	722511.0	P	01	LC	13869	54372	2013-04-18	2020-02-28	
180821	180821	ASCENT CAPITAL GROUP INC	ASCMA	043632108	1437106	7380	561621.0	P	01	LC	92777	53080	2008-09-26	2019-09-30	
180822	180822	MASTECH DIGITAL INC	MHH	57633B100	1437226	7361	561311.0	P	01	LC	92797	53085	2008-10-01	E	mhh
180866	180866	MYOS RENS TECHNOLOGY INC	MYOS	62857P108	0	2834	325412.0	P	01	LC	14820	54965	2014-07-10	2020-11-17	
180905	180905	ROSETTA STONE INC	RST	777780107	1351285	7370	519130.0	P	01	LC	92913	53137	2009-04-16	2020-10-30	
180937	180937	TARONIS TECHNOLOGIES	TRNX	876214206	1353487	2810	325120.0	P	01	LC	13556	54166	2012-08-15	2023-02-09	trnx
181104	181104	VERADIGM INC	MDRX	01988P108	1124804	7370	518210.0	P	01	LC	87078	16666	2008-10-13	E	mdrx
181290	181290	DIGIMARC CORP	DMRC	25381B101	1438231	3679	334419.0	P	01	LC	92808	53096	2008-10-17	E	dmrc
181745	181745	CSI COMPRESSCO LP	CCLP	12637A103	1449488	1382	213112.0	P	01	LC	12871	53823	2011-06-15	2024-04-30	cclp
181931	181931	CLEARWATER PAPER CORP	CLW	18538R103	1441236	2631	322130.0	P	01	LC	92854	53108	2008-12-17	E	clw
181989	181989	U S SILICA HOLDINGS INC	SLCA	90346E103	1524741	1400	212322.0	P	01	LC	13253	53989	2012-02-01	2024-08-30	slca
182112	182112	ZOVIO INC	ZVOI	98979V102	1305323	8200	611310.0	C	01	LC	92902	53132	2009-04-15	E	zvo
182308	182308	MEDIDATA SOLUTIONS INC	MDSO	58471A105	1453814	7370	519130.0	P	01	LC	92940	53159	2009-06-25	2019-10-31	
182700	182700	CHANGYOU.COM LTD	CYOU	15911M107	1458696	7372	511210.0	P	90	LC	92918	53140	2009-04-02	2020-04-30	
182701	182701	OFFICE PROPERTIES INCOME TR	OPI	67623C109	1456772	6798	531120.0	P	01	LC	92948	53166	2009-06-03	E	opi
182701	182701	OFFICE PROPERTIES INCOME TR	OPI	67623C109	1456772	6798	531120.0	P	01	LC	92948	53166	2009-06-03	E	opinl
182788	182788	DITECH HOLDING CORP	DHCPQ	25501G105	1040719	6163	522310.0	P	01	LC	85909	32075	2009-04-20	2018-11-06	
182826	182826	DMK PHARMACEUTICALS CORP	DMKPQ	00547W307	887247	2834	325412.0	P	01	LC	82163	13934	2013-12-13	E	admp
183029	183029	READY CAPITAL CORP	RC	75574U101	1527590	6798	525990.0	P	01	LC	13787	54326	2016-11-01	E	rc
183029	183029	READY CAPITAL CORP	RC	75574U101	1527590	6798	525990.0	P	01	LC	13787	54326	2016-11-01	E	rcb
183029	183029	READY CAPITAL CORP	RC	75574U101	1527590	6798	525990.0	P	01	LC	13787	54326	2016-11-01	E	rcc
183029	183029	READY CAPITAL CORP	RC	75574U101	1527590	6798	525990.0	P	01	LC	13787	54326	2016-11-01	E	rca
183029	183029	READY CAPITAL CORP	RC	75574U101	1527590	6798	525990.0	P	01	LC	13787	54326	2016-11-01	E	rc-pc
183029	183029	READY CAPITAL CORP	RC	75574U101	1527590	6798	525990.0	P	01	LC	13787	54326	2016-11-01	E	rc-pe
183108	183108	WESTERN ASSET MTG CAPITAL CP	WMC	95790D204	1465885	6798	525990.0	P	01	LC	13401	54080	2012-05-10	E	wmc
183139	183139	ACCESS NEWSWIRE INC	ACCS	46520M204	843006	7370	518210.0	P	01	LC	75754	10181	2014-03-11	E	isdr
183283	183283	ADDUS HOMECARE CORP	ADUS	006739106	1468328	8082	621610.0	P	01	LC	93073	53242	2009-10-28	E	adus
183312	183312	ALTISOURCE PORTFOLIO SOLTNS	ASPS	L0175J104	1462418	6531	531320.0	P	01	LC	92981	53182	2009-08-10	E	asps
183322	183322	THERAPEUTICSMD INC	TXMD	88338N206	25743	2834	325412.0	C	01	LC	13863	54369	2013-04-23	E	txmd
183324	183324	PENNYMAC MORTGAGE INVEST TR	PMT	70931T103	1464423	6798	525990.0	P	01	LC	92976	53179	2009-07-30	E	pmt
183324	183324	PENNYMAC MORTGAGE INVEST TR	PMT	70931T103	1464423	6798	525990.0	P	01	LC	92976	53179	2009-07-30	E	pmt-pb
183324	183324	PENNYMAC MORTGAGE INVEST TR	PMT	70931T103	1464423	6798	525990.0	P	01	LC	92976	53179	2009-07-30	E	pmt-pa
183324	183324	PENNYMAC MORTGAGE INVEST TR	PMT	70931T103	1464423	6798	525990.0	P	01	LC	92976	53179	2009-07-30	E	pmt-pc
183337	183337	GLOBAL CORD BLOOD CORP	CORBF	G39342103	1467808	8090	621991.0	C	01	LC	93123	53277	2009-11-19	E	co
183366	183366	HYATT HOTELS CORP	H	448579102	1468174	7011	721110.0	P	01	LC	93098	53266	2009-11-05	E	h
183377	183377	FORTINET INC	FTNT	34959E109	1262039	7372	513210.0	P	01	LC	93132	53286	2009-11-18	E	ftnt
183388	183388	STARWOOD PROPERTY TRUST INC	STWD	85571B105	1465128	6798	525990.0	P	01	LC	92999	53194	2009-08-12	E	stwd
183524	183524	KARTOON STUDIOS INC	TOON	37229T509	1355848	7812	512110.0	P	01	LC	16463	55790	2016-11-21	E	gnus
183528	183528	GAIN CAPITAL HOLDINGS INC	GCAP	36268W100	1444363	6200	523140.0	P	01	LC	12451	53612	2010-12-15	2020-07-31	
183565	183565	IDW MEDIA HOLDINGS INC	IDWM	44951N106	1463833	2721	511120.0	P	02	LC	21807	58627	2021-08-04	E	idw
183581	183581	OPENLANE INC	KAR	48238T109	1395942	7389	561990.0	P	01	LC	93174	53300	2009-12-11	E	kar
183593	183593	OMEROS CORP	OMER	682143102	1285819	2836	325414.0	P	01	LC	93085	53252	2009-10-08	E	omer
183603	183603	DIGITALBRIDGE GROUP INC	DBRG	25401T603	1679688	6282	523940.0	P	01	LC	93018	53208	2009-09-24	2017-01-10	dbrg
183603	183603	DIGITALBRIDGE GROUP INC	DBRG	25401T603	1679688	6282	523940.0	P	01	LC	93018	53208	2009-09-24	2017-01-10	dbrg-ph
183603	183603	DIGITALBRIDGE GROUP INC	DBRG	25401T603	1679688	6282	523940.0	P	01	LC	93018	53208	2009-09-24	2017-01-10	dbrg-pi
183603	183603	DIGITALBRIDGE GROUP INC	DBRG	25401T603	1679688	6282	523940.0	P	01	LC	93018	53208	2009-09-24	2017-01-10	dbrg-pj
183603	183603	DIGITALBRIDGE GROUP INC	DBRG	25401T603	1679688	6282	523940.0	P	01	LC	14686	54879	2017-01-11	E	dbrg
183603	183603	DIGITALBRIDGE GROUP INC	DBRG	25401T603	1679688	6282	523940.0	P	01	LC	14686	54879	2017-01-11	E	dbrg-ph
183603	183603	DIGITALBRIDGE GROUP INC	DBRG	25401T603	1679688	6282	523940.0	P	01	LC	14686	54879	2017-01-11	E	dbrg-pi
183603	183603	DIGITALBRIDGE GROUP INC	DBRG	25401T603	1679688	6282	523940.0	P	01	LC	14686	54879	2017-01-11	E	dbrg-pj
183606	183606	APOLLO COMMERCIAL RE FIN INC	ARI	03762U105	1467760	6798	525990.0	P	01	LC	93014	53205	2009-09-24	E	ari
183636	183636	R1 RCM INC	RCM	77634L105	1910851	8741	561110.0	P	01	LC	93369	53403	2017-03-15	2024-11-29	rcm
183636	183636	R1 RCM INC	RCM	77634L105	1910851	8741	561110.0	P	01	LC	93369	53403	2010-05-20	2014-03-14	rcm
183640	183640	IRIDIUM COMMUNICATIONS INC	IRDM	46269C102	1418819	4899	517410.0	P	01	LC	92596	52958	2009-10-01	E	irdm
183640	183640	IRIDIUM COMMUNICATIONS INC	IRDM	46269C102	1418819	4899	517410.0	J	01	LC	92596	52958	2009-09-30	2009-09-30	irdm
183666	183666	MINIM INC	MINM	60365W201	1467761	3661	334210.0	P	01	LC	21743	58581	2021-07-07	E	minm
183669	183669	IMV INC	IMVIF	44974L301	1734768	2836	325414.0	C	01	LC	17888	56412	2018-06-01	2023-04-28	imv
183704	183704	VERTEX ENERGY INC	VTNRQ	92534K107	890447	5172	424720.0	P	01	LC	78003	11758	2013-02-13	E	vtnr
183729	183729	ORGENESIS INC	ORGS	68619K303	1460602	2836	325414.0	P	01	LC	17370	56303	2018-03-13	E	orgs
183736	183736	GENERAC HOLDINGS INC	GNRC	368736104	1474735	3621	335312.0	P	01	LC	93246	53339	2010-02-11	E	gnrc
183739	183739	INTELLIPHARMACEUTICS INTL	IPCIQ	458173309	1474835	2834	325412.0	C	01	LC	93082	53250	2009-10-22	2019-03-20	ipcif
183780	183780	TWO HARBORS INVESTMENT CORP	TWO	90187B804	1465740	6798	525990.0	P	01	LC	93070	53238	2009-10-29	E	two
183780	183780	TWO HARBORS INVESTMENT CORP	TWO	90187B804	1465740	6798	525990.0	P	01	LC	93070	53238	2009-10-29	E	two-pc
183780	183780	TWO HARBORS INVESTMENT CORP	TWO	90187B804	1465740	6798	525990.0	P	01	LC	93070	53238	2009-10-29	E	two-pa
183780	183780	TWO HARBORS INVESTMENT CORP	TWO	90187B804	1465740	6798	525990.0	P	01	LC	93070	53238	2009-10-29	E	two-pb
183791	183791	CENOVUS ENERGY INC	CVE	15135U109	1475260	2911	324110.0	P	01	LC	93094	53261	2009-12-09	E	cve
183797	183797	COWEN INC	COWN	223622606	1466538	6282	523940.0	P	01	LC	93128	53282	2009-11-02	2023-03-31	cown
183797	183797	COWEN INC	COWN	223622606	1466538	6282	523940.0	P	01	LC	93128	53282	2009-11-02	2023-03-31	cwgrp
183797	183797	COWEN INC	COWN	223622606	1466538	6282	523940.0	P	01	LC	93128	53282	2009-11-02	2023-03-31	cownl
183799	183799	FLUENT INC	FLNT	34380C201	1460329	8742	541613.0	P	01	LC	92486	52838	2009-11-03	E	flnt
183822	183822	ARMOUR RESIDENTIAL REIT INC	ARR	042315705	1428205	6798	525990.0	P	01	LC	92477	52831	2010-06-16	E	arr
183822	183822	ARMOUR RESIDENTIAL REIT INC	ARR	042315705	1428205	6798	525990.0	P	01	LC	92477	52831	2010-06-16	E	arr-pc
183822	183822	ARMOUR RESIDENTIAL REIT INC	ARR	042315705	1428205	6798	525990.0	P	01	LC	92477	52831	2009-11-09	2010-01-31	arr
183822	183822	ARMOUR RESIDENTIAL REIT INC	ARR	042315705	1428205	6798	525990.0	P	01	LC	92477	52831	2009-11-09	2010-01-31	arr-pc
183826	183826	STATE BANK FINANCIAL CORP	STBZ	856190103	1497275	6020	522110.0	C	01	LC	12696	53729	2011-04-14	2018-12-31	
183830	183830	PEBBLEBROOK HOTEL TRUST	PEB	70509V100	1474098	6798	531120.0	P	01	LC	93178	53304	2009-12-09	E	peb
183830	183830	PEBBLEBROOK HOTEL TRUST	PEB	70509V100	1474098	6798	531120.0	P	01	LC	93178	53304	2009-12-09	E	peb-pe
183830	183830	PEBBLEBROOK HOTEL TRUST	PEB	70509V100	1474098	6798	531120.0	P	01	LC	93178	53304	2009-12-09	E	peb-pf
183830	183830	PEBBLEBROOK HOTEL TRUST	PEB	70509V100	1474098	6798	531120.0	P	01	LC	93178	53304	2009-12-09	E	peb-pg
183830	183830	PEBBLEBROOK HOTEL TRUST	PEB	70509V100	1474098	6798	531120.0	P	01	LC	93178	53304	2009-12-09	E	peb-ph
183860	183860	PREDICTIVE ONCOLOGY INC	POAI	74039M309	1446159	3841	339112.0	P	01	LC	15645	55398	2015-08-26	E	poai
183902	183902	ELLINGTON FINANCIAL INC	EFC	28852N109	1411342	6798	525990.0	P	01	LC	12329	53520	2010-10-08	E	efc
183902	183902	ELLINGTON FINANCIAL INC	EFC	28852N109	1411342	6798	525990.0	P	01	LC	12329	53520	2010-10-08	E	efc-pa
183902	183902	ELLINGTON FINANCIAL INC	EFC	28852N109	1411342	6798	525990.0	P	01	LC	12329	53520	2010-10-08	E	efc-pb
183903	183903	CALIX INC	CALX	13100M509	1406666	3661	334210.0	P	01	LC	93272	53353	2010-03-24	E	calx
183942	183942	SENSATA TECHNOLOGES HLDG PLC	ST	G8060N102	1477294	3823	334513.0	P	01	LC	93296	53361	2010-03-11	E	st
183945	183945	CORMEDIX INC	CRMD	21900C308	1410098	2836	325414.0	P	01	LC	93371	53357	2010-05-13	E	crmd
183963	183963	CHESAPEAKE LODGING TRUST	CHSP	165240102	1473078	6798	531120.0	P	01	LC	93200	53318	2010-01-22	2019-09-30	
183974	183974	SPS COMMERCE INC	SPSC	78463M107	1092699	7370	519290.0	P	01	LC	93356	53399	2010-04-22	E	spsc
184006	184006	ENERGY XXI GULF COAST INC	EGC	29276K101	1404973	1311	211111.0	P	02	LC	16587	55862	2017-03-01	2018-10-31	
184006	184006	ENERGY XXI GULF COAST INC	EGC	29276K101	1404973	1311	211111.0	C	02	LC	16587	55862	2017-02-28	2017-02-28	
184009	184009	FINANCIAL ENGINES INC	FNGN	317485100	1430592	6282	523920.0	P	01	LC	93305	53369	2010-03-16	2018-07-18	
184035	184035	SEMGROUP CORP	SEMG	81663A105	1489136	5171	424710.0	P	01	LC	12384	53563	2010-11-11	2019-12-31	
184046	184046	AVEO PHARMACEUTICALS INC	AVEO	053588307	1325879	2836	325414.0	P	01	LC	93301	53366	2010-03-12	2023-01-31	aveo
184049	184049	BLINK CHARGING CO	BLNK	09354A100	1429764	3714	336320.0	P	01	LC	17313	56265	2018-02-14	E	blnk
184049	184049	BLINK CHARGING CO	BLNK	09354A100	1429764	3714	336320.0	P	01	LC	17313	56265	2018-02-14	E	blnkw
184070	184070	KINGOLD JEWELRY INC	KGJI	49579A303	1089531	3911	339910.0	C	01	LC	88244	37508	2010-08-18	2020-08-20	kgji
184077	184077	CLEARPOINT NEURO INC	CLPT	18507C103	1285550	3845	334510.0	P	01	LC	18806	56807	2019-07-03	E	clpt
184101	184101	TELENAV INC	TNAV	879455103	1474439	4899	517919.0	P	01	LC	93401	53428	2010-05-13	2021-02-26	
184113	184113	VUZIX CORP	VUZI	92921W300	1463972	3827	333310.0	P	01	LC	15186	55176	2015-01-28	E	vuzi
184133	184133	PIONEER POWER SOLUTIONS INC	PPSI	723836300	1449792	3612	335311.0	P	01	LC	14172	54564	2013-09-19	E	ppsi
184149	184149	NATIONAL AMERN UNIV HLDG INC	NAUH	63245Q105	1399855	8200	611310.0	P	01	LC	93399	53425	2010-05-27	E	nauh
184155	184155	DAQO NEW ENERGY CORP	DQ	23703Q203	1477641	3674	334413.0	P	90	LC	12325	53518	2010-10-07	E	dq
184157	184157	MSG NETWORKS INC	MSGN	553573106	1469372	4841	515210.0	P	01	LC	93233	53332	2010-02-10	2021-07-30	
184167	184167	FIRST INTERSTATE BANCSYSTEM	FIBK	32055Y201	860413	6020	522110.0	P	01	LC	93304	53368	2010-03-24	E	fibk
184182	184182	JINKOSOLAR HOLDING CO	JKS	47759T100	1481513	3674	334413.0	P	90	LC	93380	53409	2010-05-14	E	jks
184254	184254	APOLLO GLOBAL MGMT INC	APO	03769M106	1858681	6282	523940.0	P	01	LC	12591	53688	2011-03-30	E	apo
184256	184256	IRONWOOD PHARMACEUTICALS INC	IRWD	46333X108	1446847	2834	325412.0	P	01	LC	93264	53347	2010-02-03	E	irwd
184258	184258	DOUGLAS DYNAMICS INC	PLOW	25960R105	1287213	3531	333120.0	P	01	LC	93372	53405	2010-05-05	E	plow
184259	184259	S&W SEED CO	SANW	785135302	1477246	100	111998.0	P	02	LC	93434	53427	2010-06-14	E	sanw
184263	184263	QUINSTREET INC	QNST	74874Q100	1117297	7310	5418.0	P	01	LC	93266	53349	2010-02-11	E	qnst
184287	184287	SLR INVESTMENT CORP	SLRC	83413U100	1418076	6797	523999.0	P	01	LC	93267	53350	2010-02-09	E	slrc
184323	184323	EXPRESS INC	EXPRQ	30219E202	1483510	5600	4581.0	P	01	LC	93373	53406	2010-05-13	2024-03-06	expr
184345	184345	BEAM GLOBAL	BEEM	07373B109	1398805	3690	3359.0	P	01	LC	18553	56700	2019-04-16	E	beem
184345	184345	BEAM GLOBAL	BEEM	07373B109	1398805	3690	3359.0	P	01	LC	18553	56700	2019-04-16	E	beemw
184352	184352	SCORPIO TANKERS INC	STNG	Y7542C130	1483934	4412	483111.0	P	01	LC	93299	53364	2010-03-31	E	stng
184352	184352	SCORPIO TANKERS INC	STNG	Y7542C130	1483934	4412	483111.0	P	01	LC	93299	53364	2010-03-31	E	sbba
184392	184392	GREEN DOT CORP	GDOT	39304D102	1386278	7389	522320.0	P	01	LC	11664	53462	2010-07-22	E	gdot
184442	184442	CHORD ENERGY CORP	CHRD	674215207	1486159	1311	2111.0	N	01	LC	93420	53438	2020-11-20	2020-11-30	chrd
184442	184442	CHORD ENERGY CORP	CHRD	674215207	1486159	1311	2111.0	N	01	LC	93420	53438	2020-11-20	2020-11-30	oaspw
184442	184442	CHORD ENERGY CORP	CHRD	674215207	1486159	1311	2111.0	C	01	LC	93420	53438	2020-11-01	2020-11-19	chrd
184442	184442	CHORD ENERGY CORP	CHRD	674215207	1486159	1311	2111.0	C	01	LC	93420	53438	2020-11-01	2020-11-19	oaspw
184442	184442	CHORD ENERGY CORP	CHRD	674215207	1486159	1311	2111.0	P	01	LC	93420	53438	2010-06-17	2020-10-31	chrd
184442	184442	CHORD ENERGY CORP	CHRD	674215207	1486159	1311	2111.0	P	01	LC	93420	53438	2010-06-17	2020-10-31	oaspw
184442	184442	CHORD ENERGY CORP	CHRD	674215207	1486159	1311	2111.0	P	02	LC	20161	53438	2020-11-20	E	chrd
184442	184442	CHORD ENERGY CORP	CHRD	674215207	1486159	1311	2111.0	P	02	LC	20161	53438	2020-11-20	E	oaspw
184453	184453	H WORLD GROUP LIMITED	HTHT	44332N106	1483994	7011	721110.0	P	90	LC	93306	53370	2010-03-26	E	htht
184465	184465	AMPIO PHARMACEUTICALS INC	AMPE	03209T307	1411906	2834	325412.0	P	01	LC	12789	53770	2022-11-22	E	ampe
184465	184465	AMPIO PHARMACEUTICALS INC	AMPE	03209T307	1411906	2834	325412.0	P	01	LC	12789	53770	2011-05-19	2022-10-03	ampe
184470	184470	CRICUT INC	CRCT	22658D100	1828962	3555	333248.0	P	02	LC	20658	58008	2021-03-25	E	crct
184487	184487	PERNIX THERAPEUTICS HOLDINGS	PTXTQ	71426V306	1024126	2834	325412.0	P	01	LC	84581	31920	2010-03-10	2019-03-04	
184498	184498	NATIONSTAR MORTGAGE HOLDINGS	NSM	63861C109	1520566	6162	522292.0	P	01	LC	13299	54012	2012-03-08	2018-07-31	
184500	184500	CBOE GLOBAL MARKETS INC	CBOE	12503M108	1374310	6200	523210.0	P	01	LC	93429	53447	2010-06-15	E	cboe
184526	184526	PRIMO WATER CORP -OLD	PRMW.1	74165N105	1365101	2086	312112.0	P	01	LC	12402	53578	2010-11-05	2020-03-31	
184542	184542	GENMARK DIAGNOSTICS INC	GNMK	372309104	1487371	3845	339112.0	P	01	LC	93393	53419	2010-05-28	2021-04-30	
184548	184548	BETTER CHOICE CO INC	BTTR	08771Y402	1471727	2040	311111.0	P	01	LC	21368	58331	2021-06-29	E	bttr
184551	184551	MAXLINEAR INC	MXL	57776J100	1288469	3674	334413.0	P	01	LC	93289	53359	2010-03-24	E	mxl
184576	184576	ENVESTNET INC	ENV	29404K106	1337619	6282	523920.0	P	01	LC	11370	53461	2010-07-29	2024-11-29	env
184604	184604	ALPHA AND OMEGA SEMICONDUCTO	AOSL	G6331P104	1387467	3674	334413.0	P	01	LC	93340	53387	2010-04-29	E	aosl
184652	184652	ERIN ENERGY CORP	ERINQ	295625107	1402281	1311	211111.0	C	01	LC	93106	53269	2010-04-13	2018-04-25	
184688	184688	CHATHAM LODGING TRUST	CLDT	16208T102	1476045	6798	531120.0	P	01	LC	93314	53376	2010-04-16	E	cldt
184688	184688	CHATHAM LODGING TRUST	CLDT	16208T102	1476045	6798	531120.0	P	01	LC	93314	53376	2010-04-16	E	cldt-pa
184689	184689	GOLUB CAPITAL BDC INC	GBDC	38173M102	1476765	6797	523910.0	P	01	LC	93352	53395	2010-04-15	E	gbdc
184700	184700	CORPAY INC	CPAY	219948106	1175454	7389	522320.0	P	01	LC	12449	53610	2010-12-15	E	flt
184702	184702	NEOPHOTONICS CORP	NPTN	64051T100	1227025	3674	334413.0	P	01	LC	12559	53668	2011-02-02	2022-08-31	
184717	184717	AMYRIS INC	AMRSQ	03236M200	1365916	2860	325199.0	P	01	LC	12307	53510	2010-09-28	2023-08-18	amrs
184725	184725	NXP SEMICONDUCTORS NV	NXPI	N6596X109	1413447	3674	334413.0	P	01	LC	12084	53494	2010-08-06	E	nxpi
184735	184735	FIRST EAGLE ALTERNATIVE CAPI	FCRD	26943B100	1464963	6797	523910.0	P	01	LC	93357	53400	2010-04-22	2023-03-31	fcrd
184735	184735	FIRST EAGLE ALTERNATIVE CAPI	FCRD	26943B100	1464963	6797	523910.0	P	01	LC	93357	53400	2010-04-22	2023-03-31	fcrx
184748	184748	QUAD/GRAPHICS INC	QUAD	747301109	1481792	2750	323111.0	P	01	LC	12009	53467	2010-07-06	E	quad
184785	184785	TOWER INTERNATIONAL INC	TOWR	891826109	1485469	3711	336211.0	P	01	LC	12340	53528	2010-10-15	2019-09-30	
184797	184797	REALPAGE INC	RP	75606N109	1286225	7370	518210.0	P	01	LC	12089	53497	2010-08-12	2021-04-30	
184899	184899	FIRST AMERICAN FINANCIAL CP	FAF	31847R102	1472787	6361	524127.0	P	01	LC	93374	53407	2010-06-02	E	faf
184905	184905	TRICON RESIDENTIAL INC	TCN	89612W102	1584425	6513	531110.0	P	01	LC	22161	58806	2021-10-07	2024-05-31	tcn
184957	184957	WORKHORSE GROUP INC	WKHS	98138J404	1425287	3711	336110.0	P	01	LC	15914	55512	2016-01-07	E	wkhs
184996	184996	TESLA INC	TSLA	88160R101	1318605	3711	336111.0	P	01	LC	93436	53453	2010-06-29	E	tsla
185018	185018	HUDSON PACIFIC PPTYS INC	HPP	444097109	1482512	6798	531120.0	P	01	LC	93419	53437	2010-06-24	E	hpp
185018	185018	HUDSON PACIFIC PPTYS INC	HPP	444097109	1482512	6798	531120.0	P	01	LC	93419	53437	2010-06-24	E	hpp-pc
185030	185030	TAHOE RESOURCES INC	TAHO	873868103	1510400	1040	212222.0	P	01	LC	13396	54076	2012-05-08	2019-02-28	
185054	185054	QUIPT HOME MEDICAL CORP	QIPT	74880P104	1540013	8090	621999.0	C	01	LC	21328	58306	2021-05-27	E	qipt
185112	185112	INPHI CORP	IPHI	45772F107	1160958	3674	334413.0	P	01	LC	12374	53557	2010-11-11	2021-04-30	
185119	185119	KEYW HOLDING CORP	KEYW	493723100	1487101	7370	541519.0	P	01	LC	12356	53540	2010-10-01	2019-06-28	
185125	185125	ELECTROMED INC	ELMD	285409108	1488917	3845	334510.0	P	01	LC	12078	53490	2010-08-13	E	elmd
185128	185128	AMERESCO INC	AMRC	02361E108	1488139	1600	237130.0	P	01	LC	10158	53454	2010-07-22	E	amrc
185138	185138	VISHAY PRECISION GROUP INC	VPG	92835K103	1487952	3674	334413.0	P	01	LC	93426	53443	2010-07-07	E	vpg
185164	185164	TIER REIT INC	TIER	88650V208	1176373	6798	531120.0	C	01	LC	15586	55380	2015-07-23	2019-06-28	
185177	185177	CORESITE REALTY CORP	COR.4	21870Q105	1490892	6798	531120.0	P	01	LC	12093	53500	2010-09-23	2021-12-31	
185193	185193	XTANT MEDICAL HOLDINGS INC	XTNT	98420P308	1453593	3842	339113.0	P	01	LC	12592	53689	2015-10-19	E	xtnt
185193	185193	XTANT MEDICAL HOLDINGS INC	XTNT	98420P308	1453593	3842	339113.0	P	01	LC	12592	53689	2011-03-07	2015-04-08	xtnt
185195	185195	VERA BRADLEY INC	VRA	92335C106	1495320	3100	316990.0	P	01	LC	12363	53546	2010-10-21	E	vra
185229	185229	BWX TECHNOLOGIES INC	BWXT	05605H100	1486957	3559	333248.0	P	01	LC	10220	53456	2010-08-02	E	bwxt
185277	185277	FAIRMOUNT SANTROL HOLDINGS	FMSA	30555Q108	1010858	1400	212399.0	P	01	LC	14961	55048	2014-10-03	2018-05-31	
185291	185291	STARS GROUP INC	TSG	85570W100	0	7990	713290.0	P	01	LC	15411	55299	2015-06-08	2020-05-29	
185319	185319	MAKEMYTRIP LTD	MMYT	V5633W109	1495153	4700	561510.0	P	01	LC	12082	53493	2010-08-12	E	mmyt
185323	185323	ENSERVCO CORP	ENSV	29358Y201	319458	1389	213112.0	P	01	LC	15254	377	2014-03-10	E	ensv
185334	185334	PINNACLE FOODS INC	PF	72348P104	1564822	2030	3114.0	P	01	LC	13818	54346	2013-03-28	2018-10-31	
185337	185337	CIVITAS SOLUTIONS INC	CIVI.	17887R102	1608638	8082	621610.0	P	01	LC	14890	55007	2014-09-17	2019-03-29	
185339	185339	STAG INDUSTRIAL INC	STAG	85254J102	1479094	6798	531120.0	P	01	LC	12681	53717	2011-04-15	E	stag
185344	185344	GLOBAL BRASS & COPPER HLDGS	BRSS	37953G103	1533526	3350	33142.0	P	01	LC	13903	54395	2013-05-23	2019-07-31	
185345	185345	PREFERRED APARTMENT CMNTYS	APTS	74039L103	1481832	6798	531110.0	P	01	LC	12668	53714	2011-04-01	2022-06-30	apts
185355	185355	HORIZON THERAPEUTICS PUB LTD	HZNP	G46188101	1492426	2836	325414.0	P	01	LC	12919	53846	2011-07-28	2023-10-31	hznp
185370	185370	WALKER & DUNLOP INC	WD	93148P102	1497770	6162	522292.0	P	01	LC	12477	53622	2010-12-15	E	wd
185372	185372	CLARUS CORP	CLAR	18270P109	913277	3949	339920.0	P	01	LC	86092	16127	2010-06-11	E	clar
185375	185375	EVERTEC INC	EVTC	30040P103	1559865	7374	518210.0	P	01	LC	13837	54361	2013-04-12	E	evtc
185396	185396	SUMMIT HOTEL PROPERTIES INC	INN	866082100	1497645	6798	531120.0	P	01	LC	12566	53670	2011-02-09	E	inn
185396	185396	SUMMIT HOTEL PROPERTIES INC	INN	866082100	1497645	6798	531120.0	P	01	LC	12566	53670	2011-02-09	E	inn-pe
185396	185396	SUMMIT HOTEL PROPERTIES INC	INN	866082100	1497645	6798	531120.0	P	01	LC	12566	53670	2011-02-09	E	inn-pf
185416	185416	EMERGENT CAPITAL INC	EMGCQ	29102N105	1494448	6159	522298.0	P	01	LC	12557	53666	2011-02-08	2017-02-02	emgc
185419	185419	PACIFIC BIOSCIENCES OF CALIF	PACB	69404D108	1299130	3826	334516.0	P	01	LC	12360	53544	2010-10-27	E	pacb
185428	185428	ENDOCYTE INC	ECYT	29269A102	1235007	2836	325414.0	P	01	LC	12575	53675	2011-02-04	2018-12-31	
185448	185448	ARIS MINING CORP	ARMN	04040Y109	1964504	1040	212220.0	P	01	LC	24182	59646	2023-09-14	E	
185453	185453	WHITESTONE REIT	WSR	966084204	1175535	6798	531120.0	P	01	LC	12070	53488	2010-08-26	E	wsr
185532	185532	TARGA RESOURCES CORP	TRGP	87612G101	1389170	4923	486210.0	P	01	LC	12476	53621	2010-12-07	E	trgp
185549	185549	AMERICAN ASSETS TRUST INC	AAT	024013104	1500217	6798	531120.0	P	01	LC	12513	53645	2011-01-13	E	aat
185550	185550	FANG HOLDINGS LTD	SFUNY	30711Y300	1294404	7370	519290.0	P	90	LC	12293	53507	2010-09-17	2022-05-17	sfuny
185585	185585	NEW MOUNTAIN FINANCE CORP	NMFC	647551100	1496099	6797	523910.0	P	01	LC	12747	53755	2011-05-20	E	nmfc
185587	185587	NEXTTRIP INC	NTRP	826598609	788611	7372	513210.0	P	01	LC	16594	55866	2017-02-15	E	sasi
185618	185618	SABRA HEALTH CARE REIT INC	SBRA	78573L106	1492298	6798	531120.0	P	01	LC	90092	29931	2010-11-16	E	sbra
185624	185624	SPIRIT AIRLINES INC	SAVEQ	848577102	1498710	4512	481111.0	P	01	LC	12796	53776	2011-05-31	E	save
185645	185645	GNC HOLDINGS INC	GNCIQ	36191G107	1502034	5400	446191.0	P	01	LC	12660	53710	2011-04-01	2020-10-31	
185646	185646	CORNERSTONE ONDEMAND INC	CSOD	21925Y103	1401680	7370	519130.0	P	01	LC	12639	53702	2011-03-17	2021-10-29	
185703	185703	LEAF GROUP LTD	LEAF	52177G102	1365038	7370	519130.0	P	01	LC	12521	53649	2011-01-26	2021-06-30	
185733	185733	TAL EDUCATION GROUP	TAL	874080104	1499620	8200	611691.0	P	90	LC	12339	53527	2010-10-29	E	tal
185769	185769	SODASTREAM INTERNATIONAL LTD	SODA	M9068E105	1502916	3634	335210.0	P	01	LC	12405	53580	2010-11-03	2018-12-31	
185770	185770	COSTAMARE INC	CMRE	Y1771G102	1503584	4412	483111.0	P	01	LC	12391	53568	2010-11-04	E	cmre
185770	185770	COSTAMARE INC	CMRE	Y1771G102	1503584	4412	483111.0	P	01	LC	12391	53568	2010-11-04	E	cmre-pb
185770	185770	COSTAMARE INC	CMRE	Y1771G102	1503584	4412	483111.0	P	01	LC	12391	53568	2010-11-04	E	cmre-pc
185770	185770	COSTAMARE INC	CMRE	Y1771G102	1503584	4412	483111.0	P	01	LC	12391	53568	2010-11-04	E	cmre-pd
185770	185770	COSTAMARE INC	CMRE	Y1771G102	1503584	4412	483111.0	P	01	LC	12391	53568	2010-11-04	E	cmre-pe
185783	185783	NOAH HOLDINGS LIMITED	NOAH	65487X102	1499543	6282	523940.0	P	90	LC	12377	53559	2010-11-10	E	noah
185797	185797	HOWARD HUGHES HOLDINGS INC	HHH	44267T102	1981792	6798	5311.0	P	01	LC	12373	53556	2010-11-10	E	
185821	185821	HORIZON TECHNOLOGY FINANCE	HRZN	44045A102	1487428	6797	523910.0	P	01	LC	12355	53539	2010-10-29	E	hrzn
185821	185821	HORIZON TECHNOLOGY FINANCE	HRZN	44045A102	1487428	6797	523910.0	P	01	LC	12355	53539	2010-10-29	E	htfb
185821	185821	HORIZON TECHNOLOGY FINANCE	HRZN	44045A102	1487428	6797	523910.0	P	01	LC	12355	53539	2010-10-29	E	htfc
185824	185824	BANKUNITED INC	BKU	06652K103	1504008	6020	522110.0	P	01	LC	12515	53647	2011-01-28	E	bku
185836	185836	PACIRA BIOSCIENCES INC	PCRX	695127100	1396814	2834	325412.0	P	01	LC	12583	53682	2011-02-03	E	pcrx
185837	185837	BITAUTO HOLDINGS LTD  -ADR	BITA	091727107	1499781	7370	519130.0	P	90	LC	12365	53549	2010-11-17	2020-11-30	
185881	185881	BOOZ ALLEN HAMILTON HLDG CP	BAH	099502106	1443646	7370	541519.0	P	01	LC	12366	53550	2010-11-17	E	bah
185894	185894	PRESIDIO INC	PSDO	74102M103	1631825	7370	54151.0	P	01	LC	16642	55894	2017-03-10	2019-12-31	
185908	185908	TALPHERA INC	TLPH	00444T209	1427925	2834	325412.0	P	01	LC	12573	53673	2011-02-11	E	acrx
185921	185921	RIGNET INC	RNET	766582100	1162112	4899	517919.0	P	01	LC	12494	53632	2010-12-15	2021-05-28	
185946	185946	CLARUS THERAPEUTICS HOLD INC	CRXTQ	18271L107	1817944	2836	325414.0	P	02	LC	20577	57615	2021-09-10	2022-08-30	crxtq
185946	185946	CLARUS THERAPEUTICS HOLD INC	CRXTQ	18271L107	1817944	2836	325414.0	P	02	LC	20577	57615	2021-09-10	2022-08-30	crxt
185946	185946	CLARUS THERAPEUTICS HOLD INC	CRXTQ	18271L107	1817944	2836	325414.0	P	02	LC	20577	57615	2021-09-10	2022-08-30	crxtw
185946	185946	CLARUS THERAPEUTICS HOLD INC	CRXTQ	18271L107	1817944	2836	325414.0	P	02	LC	20577	57615	2021-09-10	2022-08-30	crxwq
185952	185952	REV GROUP INC	REVG	749527107	1687221	3713	336211.0	P	01	LC	16560	55844	2017-01-27	E	revg
186061	186061	LILIS ENERGY INC	LLEXQ	532403201	1437557	1311	211120.0	P	01	LC	13113	53936	2017-03-14	2020-12-07	
186061	186061	LILIS ENERGY INC	LLEXQ	532403201	1437557	1311	211120.0	P	01	LC	13113	53936	2011-11-02	2016-05-25	
186129	186129	SERVICESOURCE INTL INC	SREV	81763U100	1310114	7370	541512.0	P	01	LC	12640	53704	2011-03-25	2022-07-29	
186130	186130	PRETIUM RESOURCES INC	PVG	74139C102	1508844	1040	212221.0	P	01	LC	13191	53973	2012-01-12	2022-03-31	
186139	186139	CVR PARTNERS LP	UAN	126633205	1425292	2870	3253.0	P	01	LC	12644	53706	2011-04-08	E	uan
186158	186158	JETPAY CORP	JTPY	477177109	1507986	6099	522320.0	P	02	LC	12971	53778	2011-08-10	2018-12-31	
186159	186159	SUPERNUS PHARMACEUTICALS INC	SUPN	868459108	1356576	2834	325412.0	P	01	LC	13410	54087	2012-05-01	E	supn
186169	186169	GLOBAL WATER RESOURCES INC	GWRS	379463102	1434728	4941	221310.0	P	02	LC	16008	55545	2016-05-01	E	gwrs
186169	186169	GLOBAL WATER RESOURCES INC	GWRS	379463102	1434728	4941	221310.0	J	02	LC	16008	55545	2016-04-29	2016-04-30	gwrs
186206	186206	ANDEAVOR LOGISTICS LP	ANDX	03350F106	1507615	4610	486.0	P	01	LC	12683	53719	2011-04-20	2019-07-31	
186230	186230	ATLAS FINANCIAL HOLDINGS INC	AFHIF	G06207115	1539894	6331	524126.0	C	01	LC	13789	54328	2013-02-12	2020-09-01	afhif
186275	186275	ADECOAGRO SA	AGRO	L00849106	1499505	2060	311314.0	P	01	LC	12540	53654	2011-01-28	E	agro
186276	186276	KOSMOS ENERGY LTD	KOS	500688106	1509991	1311	211120.0	P	01	LC	12788	53769	2011-05-11	E	kos
186278	186278	AIR LEASE CORP	AL	00912X302	1487712	7359	532411.0	P	01	LC	12641	53705	2011-04-19	E	al
186278	186278	AIR LEASE CORP	AL	00912X302	1487712	7359	532411.0	P	01	LC	12641	53705	2011-04-19	E	al-pa
186279	186279	PHENIXFIN CORP	PFX	71742W103	1490349	6797	523910.0	P	01	LC	12528	53653	2011-01-20	E	pfx
186279	186279	PHENIXFIN CORP	PFX	71742W103	1490349	6797	523910.0	P	01	LC	12528	53653	2011-01-20	E	pfxnl
186279	186279	PHENIXFIN CORP	PFX	71742W103	1490349	6797	523910.0	P	01	LC	12528	53653	2011-01-20	E	pfxnz
186288	186288	BOINGO WIRELESS INC	WIFI	09739C102	1169988	4899	517919.0	P	01	LC	12798	53779	2011-05-04	2021-06-30	
186289	186289	OXFORD LANE CAPITAL CORP	OXLC	691543102	1495222	6199	525990.0	P	01	LC	12505	53640	2011-01-20	E	oxlc
186289	186289	OXFORD LANE CAPITAL CORP	OXLC	691543102	1495222	6199	525990.0	P	01	LC	12505	53640	2011-01-20	E	oxlcm
186289	186289	OXFORD LANE CAPITAL CORP	OXLC	691543102	1495222	6199	525990.0	P	01	LC	12505	53640	2011-01-20	E	oxlco
186289	186289	OXFORD LANE CAPITAL CORP	OXLC	691543102	1495222	6199	525990.0	P	01	LC	12505	53640	2011-01-20	E	oxlcl
186289	186289	OXFORD LANE CAPITAL CORP	OXLC	691543102	1495222	6199	525990.0	P	01	LC	12505	53640	2011-01-20	E	oxlcp
186289	186289	OXFORD LANE CAPITAL CORP	OXLC	691543102	1495222	6199	525990.0	P	01	LC	12505	53640	2011-01-20	E	oxlcz
186289	186289	OXFORD LANE CAPITAL CORP	OXLC	691543102	1495222	6199	525990.0	P	01	LC	12505	53640	2011-01-20	E	oxlcn
186308	186308	RPX CORP	RPXC	74972G103	1509432	6794	533110.0	P	01	LC	12795	53775	2011-05-04	2018-06-29	
186310	186310	HUNTINGTON INGALLS IND INC	HII	446413106	1501585	3730	336611.0	P	01	LC	12623	53697	2011-03-31	E	hii
186336	186336	C&J ENERGY SERVICES INC	CJ	12674R100	1615817	1389	213112.0	P	03	LC	16602	55871	2017-03-06	2019-10-31	
186336	186336	C&J ENERGY SERVICES INC	CJ	12674R100	1615817	1389	213112.0	P	01	LC	12894	53830	2011-07-29	2016-07-20	
186344	186344	FIRST CONNECTICUT BANCORP	FBNK.1	319850103	1511198	6036	522120.0	P	01	LC	12884	53820	2011-06-30	2018-10-31	
186360	186360	THERMON GROUP HOLDINGS INC	THR	88362T103	1489096	3690	335999.0	P	01	LC	12783	53763	2011-05-05	E	thr
186363	186363	RLJ LODGING TRUST	RLJ	74965L101	1511337	6798	531120.0	P	01	LC	12756	53759	2011-05-11	E	rlj
186363	186363	RLJ LODGING TRUST	RLJ	74965L101	1511337	6798	531120.0	P	01	LC	12756	53759	2011-05-11	E	rlj-pa
186392	186392	UNITED PARKS & RESORTS INC	PRKS	81282V100	1564902	7996	713110.0	P	01	LC	13860	54366	2013-04-30	E	seas
186437	186437	GEVO INC	GEVO	374396406	1392380	2860	325193.0	P	01	LC	12579	53678	2011-02-09	E	gevo
186501	186501	NGL ENERGY PARTNERS LP	NGL	62913M107	1504461	5900	457210.0	P	01	LC	12745	53753	2011-05-12	E	ngl
186501	186501	NGL ENERGY PARTNERS LP	NGL	62913M107	1504461	5900	457210.0	P	01	LC	12745	53753	2011-05-12	E	ngl-pc
186501	186501	NGL ENERGY PARTNERS LP	NGL	62913M107	1504461	5900	457210.0	P	01	LC	12745	53753	2011-05-12	E	ngl-pb
186520	186520	PANDORA MEDIA INC	P	698354107	1230276	7370	519130.0	P	01	LC	12873	53811	2011-06-15	2019-01-31	
186591	186591	SLR SENIOR INVESTMENT CORP	SUNS.1	83416M105	1508171	6797	523910.0	P	01	LC	12584	53683	2011-02-25	2022-04-29	
186607	186607	NEWLINK GENETICS CORP	NLNK	651511107	0	2836	325414.0	P	01	LC	13111	53935	2011-11-11	2020-03-18	
186671	186671	AG MORTGAGE INVESTMENT TRUST	MITT	001228501	1514281	6798	525990.0	P	01	LC	12828	53803	2011-06-30	E	mitt
186671	186671	AG MORTGAGE INVESTMENT TRUST	MITT	001228501	1514281	6798	525990.0	P	01	LC	12828	53803	2011-06-30	E	mitt-pa
186671	186671	AG MORTGAGE INVESTMENT TRUST	MITT	001228501	1514281	6798	525990.0	P	01	LC	12828	53803	2011-06-30	E	mitt-pb
186671	186671	AG MORTGAGE INVESTMENT TRUST	MITT	001228501	1514281	6798	525990.0	P	01	LC	12828	53803	2011-06-30	E	mitt-pc
186675	186675	RLJ ENTERTAINMENT INC	RLJE	74965F203	1546381	7822	512120.0	P	01	LC	13655	54233	2012-10-04	2018-10-31	
186718	186718	LINK MOTION INC -ADR	LKM	53577L105	1509986	7370	5415.0	P	90	LC	12746	53754	2011-05-05	2018-12-31	
186773	186773	SUNCOKE ENERGY INC	SXC	86722A103	1514705	3312	324199.0	P	01	LC	12905	53836	2011-07-21	E	sxc
186779	186779	CEA INDUSTRIES INC	CEAD	86887P309	1482541	3585	333415.0	P	01	LC	22768	59170	2022-02-11	E	cead
186779	186779	CEA INDUSTRIES INC	CEAD	86887P309	1482541	3585	333415.0	P	01	LC	22768	59170	2022-02-11	E	ceadw
186783	186783	VEREIT INC	VER	92339V308	1507385	6798	531120.0	P	01	LC	13003	53881	2011-09-07	2021-11-30	
186785	186785	ARCOS DORADOS HOLDINGS INC	ARCO	G0457F107	1508478	5812	722511.0	P	01	LC	12684	53720	2011-04-29	E	arco
186834	186834	GRACE THERAPEUTICS INC	GRCE	00439U104	1444192	2833	325411.0	N	01	LC	13750	54306	2013-10-07	E	acst
186836	186836	GOLAR LNG PARTNERS LP	GMLP	Y2745C102	1415916	4412	483111.0	P	01	LC	12689	53723	2011-04-08	2021-04-30	gmlpf
186845	186845	AMERICAN MIDSTREAM PRT -OLD	AMID.1	02799D938	0	4922	486210.0	P	01	LC	12892	53827	2011-07-27	2017-02-28	
186858	186858	ARAMARK	ARMK	03852U106	1584509	5812	722320.0	P	01	LC	14329	54666	2013-12-12	E	armk
186874	186874	MTGE INVESTMENT CORP	MTGE	55378A105	1516973	6798	525990.0	P	01	LC	12965	53871	2011-08-04	2018-09-28	
186876	186876	VNET GROUP INC	VNET	90138A103	1508475	7370	518210.0	P	90	LC	12699	53732	2011-04-21	E	vnet
186893	186893	PENNANTPARK FLOATING RT CAP	PFLT	70806A106	1504619	6797	523910.0	P	01	LC	12693	53727	2011-04-08	E	pflt
186903	186903	SHARPSPRING INC	SHSP	820054104	1506439	7370	518210.0	P	01	LC	14441	54725	2014-01-31	2021-09-30	
186904	186904	CLEANSPARK INC	CLSK	18452B209	827876	7370	518210.0	P	01	LC	19187	56999	2020-01-24	E	clsk
186953	186953	INSPIREMD INC	NSPR	45779A846	1433607	3845	334510.0	P	01	LC	13844	54363	2013-04-11	E	nspr
186955	186955	ELLIE MAE INC	ELLI	28849P100	1122388	7372	511210.0	P	01	LC	12645	53707	2011-04-15	2019-04-30	
186960	186960	CHEFS' WAREHOUSE INC	CHEF	163086101	1517175	5140	4244.0	P	01	LC	12913	53842	2011-07-28	E	chef
186962	186962	SEQUANS COMMUNICATIONS SA	SQNS	817323306	1383395	3674	334413.0	P	90	LC	12680	53716	2011-04-15	E	sqns
186989	186989	MARATHON PETROLEUM CORP	MPC	56585A102	1510295	2911	324110.0	P	01	LC	12872	53810	2011-06-23	E	mpc
186993	186993	SURO CAPITAL CORP	SSSS	86887Q109	1509470	6797	523910.0	P	01	LC	12690	53724	2011-04-29	E	ssss
186993	186993	SURO CAPITAL CORP	SSSS	86887Q109	1509470	6797	523910.0	P	01	LC	12690	53724	2011-04-29	E	ssssl
186996	186996	MOATABLE INC	MTBLY	759892300	1509223	7370	518210.0	P	90	LC	12759	53760	2011-05-04	E	renn
187039	187039	ZILLOW GROUP INC	Z	98954M200	1617640	7370	519290.0	P	05	LC	15546	53853	2018-01-01	E	zg
187039	187039	ZILLOW GROUP INC	Z	98954M200	1617640	7370	519290.0	P	05	LC	15546	53853	2018-01-01	E	z
187039	187039	ZILLOW GROUP INC	Z	98954M200	1617640	7370	519290.0	J	05	LC	15546	53853	2015-08-17	2017-12-31	zg
187039	187039	ZILLOW GROUP INC	Z	98954M200	1617640	7370	519290.0	J	05	LC	15546	53853	2015-08-17	2017-12-31	z
187039	187039	ZILLOW GROUP INC	Z	98954M200	1617640	7370	519290.0	J	01	LC	12927	53853	2018-01-01	E	zg
187039	187039	ZILLOW GROUP INC	Z	98954M200	1617640	7370	519290.0	J	01	LC	12927	53853	2018-01-01	E	z
187039	187039	ZILLOW GROUP INC	Z	98954M200	1617640	7370	519290.0	P	01	LC	12927	53853	2011-07-20	2017-12-31	zg
187039	187039	ZILLOW GROUP INC	Z	98954M200	1617640	7370	519290.0	P	01	LC	12927	53853	2011-07-20	2017-12-31	z
187040	187040	PEAK RESORTS INC	SKIS	70469L100	1517401	7990	713920.0	P	01	LC	15080	55120	2014-11-21	2019-09-30	
187041	187041	FHC HOLDINGS CORP	FRANQ	351793203	1399935	5621	448120.0	P	01	LC	12915	53844	2011-07-22	2020-12-14	
187073	187073	CHINA ZENIX AUTO INTL  -ADR	ZXAIY	16951E104	1506756	3714	3363.0	P	90	LC	12720	53748	2011-05-12	2022-02-02	
187084	187084	PARTY CITY HOLDCO INC	PRTYQ	702149105	1592058	2670	322220.0	P	01	LC	15327	55244	2015-04-16	2023-10-13	prty
187105	187105	WAGEWORKS INC	WAGE	930427109	1158863	6411	524292.0	P	01	LC	13400	54079	2012-05-10	2019-08-30	
187118	187118	NEBIUS GROUP N V	NBIS	N97284108	1513845	7370	519290.0	C	01	LC	12799	53780	2011-05-24	E	yndx
187122	187122	LIVEONE INC	LVO	53814X102	1491419	7370	516210.0	P	01	LC	17323	56273	2018-02-22	E	lvo
187128	187128	WPX ENERGY INC	WPX	98212B103	1518832	1311	2111.0	P	01	LC	13141	53947	2012-01-03	2021-01-29	
187148	187148	ORCHID ISLAND CAPITAL INC	ORC	68571X301	1518621	6798	525990.0	P	01	LC	13775	54323	2013-02-14	E	orc
187164	187164	HOMESTREET INC	HMST	43785V102	1518715	6020	522110.0	P	01	LC	13278	54001	2012-02-10	E	hmst
187165	187165	PHOENIX NEW MEDIA LTD	FENG	71910C202	1509646	4899	517919.0	P	90	LC	12751	53757	2011-05-12	E	feng
187215	187215	GLOBAL EAGLE ENTERTAINMENT	GEENQ	37951D300	1512077	4899	517410.0	P	02	LC	12792	53773	2011-05-27	2021-03-31	
187236	187236	MIDLAND STATES BANCORP INC	MSBI	597742105	1466026	6020	522110.0	P	01	LC	16063	55567	2016-05-24	E	msbi
187236	187236	MIDLAND STATES BANCORP INC	MSBI	597742105	1466026	6020	522110.0	P	01	LC	16063	55567	2016-05-24	E	msbip
187252	187252	FCB FINANCIAL HOLDINGS INC	FCB	30255G103	1476651	6020	522110.0	P	01	LC	14851	54983	2014-08-01	2018-12-31	
187253	187253	REGIONAL MANAGEMENT CORP	RM	75902K106	1519401	6141	522291.0	P	01	LC	13302	54013	2012-03-28	E	rm
187357	187357	IZEA WORLDWIDE INC	IZEA	46604H204	1495231	7370	519290.0	P	01	LC	15943	55523	2016-02-26	E	izea
187363	187363	GROUPON INC	GRPN	399473206	1490281	5960	455219.0	P	01	LC	13108	53932	2011-11-04	E	grpn
187368	187368	VISTAGEN THERAPEUTICS INC	VTGN	92840H400	1411685	2836	325414.0	P	01	LC	16070	55574	2016-05-11	E	vtgn
187406	187406	AMC NETWORKS INC	AMCX	00164V103	1514991	4833	516120.0	P	01	LC	12880	53816	2011-06-16	E	amcx
187413	187413	XUNLEI LTD  -ADS	XNET	98419E108	1510593	7370	519290.0	P	90	LC	14710	54903	2014-06-24	E	xnet
187434	187434	CARBONITE INC	CARB.2	141337105	1340127	7370	519130.0	P	01	LC	12960	53868	2011-08-11	2019-12-31	
187450	187450	ENPHASE ENERGY INC	ENPH	29355A107	1463101	3674	334413.0	P	01	LC	13323	54026	2012-03-30	E	enph
187462	187462	UBIQUITI INC	UI	90353W103	1511737	3663	334220.0	P	01	LC	13046	53901	2011-10-14	E	ui
187483	187483	FIDUS INVESTMENT CORP	FDUS	316500107	1513363	6797	523910.0	P	01	LC	12885	53821	2011-06-21	E	fdus
187490	187490	IMPERVA INC	IMPV	45321L100	1364962	7372	511210.0	P	01	LC	13080	53919	2011-11-09	2019-01-31	
187491	187491	OAKTREE CAPITAL GROUP LLC	OAK	674001201	1403528	6282	523920.0	P	02	LC	13352	54046	2012-04-12	2019-09-30	oak-pa
187491	187491	OAKTREE CAPITAL GROUP LLC	OAK	674001201	1403528	6282	523920.0	P	02	LC	13352	54046	2012-04-12	2019-09-30	oak-pb
187550	187550	ASPEN AEROGELS INC	ASPN	04523Y105	1145986	3086	326140.0	P	01	LC	14715	54908	2014-06-13	E	aspn
187551	187551	TRINSEO PLC	TSE	G9059U107	1519061	2821	325211.0	P	01	LC	22174	58816	2021-10-11	E	tse
187551	187551	TRINSEO PLC	TSE	G9059U107	1519061	2821	325211.0	P	01	LC	14755	54927	2014-06-12	2021-10-10	tse
187575	187575	TILLY'S INC	TLYS	886885102	1524025	5600	4581.0	P	01	LC	13399	54077	2012-05-04	E	tlys
187576	187576	ZYNGA INC	ZNGA	98986T108	1439404	7372	511210.0	P	01	LC	13169	53965	2011-12-16	2022-05-31	
187631	187631	MERRIMACK PHARMACEUTICALS	MACK	590328209	1274792	2836	325414.0	P	01	LC	13325	54028	2012-03-29	2024-05-31	mack
187665	187665	YOUNGEVITY INTERNATIONAL INC	YGYI	987537206	1569329	2834	325412.0	P	01	LC	16808	55996	2017-06-21	2023-12-06	ygyi
187665	187665	YOUNGEVITY INTERNATIONAL INC	YGYI	987537206	1569329	2834	325412.0	P	01	LC	16808	55996	2017-06-21	2023-12-06	ygyip
187690	187690	HEALTHCARE TR OF AMERICA INC	HTA	42225P501	0	6798	531120.0	P	01	LC	13439	54106	2012-06-06	2022-07-20	
187692	187692	RENEWABLE ENERGY GROUP INC	REGI	75972A301	1463258	2990	324199.0	P	01	LC	13201	53977	2012-01-19	2022-06-30	regi
187696	187696	PROTO LABS INC	PRLB	743713109	1443669	3559	333249.0	P	01	LC	13249	53988	2012-02-24	E	prlb
187697	187697	EPAM SYSTEMS INC	EPAM	29414B104	1352010	7370	541519.0	P	01	LC	13210	53983	2012-02-08	E	epam
187698	187698	CIVITAS RESOURCES INC	CIVI	17888H103	1509589	1311	211120.0	P	01	LC	13116	53938	2011-12-15	E	civi
187709	187709	SPRAGUE RESOURCES LP	SRLP	849343108	1525287	5171	424710.0	P	01	LC	14228	54592	2013-10-25	2022-11-30	srlp
187714	187714	WESCO AIRCRAFT HOLDINGS INC	WAIR	950814103	1378718	5080	423860.0	P	01	LC	12908	53840	2011-07-28	2020-01-31	
187721	187721	ENTEGRA FINANCIAL CORP	ENFC	29363J108	1522327	6036	522120.0	P	01	LC	15006	55074	2014-10-01	2019-12-31	
187722	187722	INTERMOLECULAR INC	IMI	45882D109	1311241	3674	334413.0	P	01	LC	13109	53933	2011-11-18	2019-09-30	
187739	187739	VOCERA COMMUNICATIONS INC	VCRA	92857F107	1129260	3663	334220.0	P	01	LC	13316	54018	2012-03-28	2022-02-28	
187740	187740	MACOM TECHNLGY SOL HLDGS INC	MTSI	55405Y100	1493594	3674	334413.0	P	01	LC	13326	54029	2012-03-15	E	mtsi
187766	187766	ERA GROUP INC	ERA	26885G109	0	4522	481211.0	P	01	LC	13743	54299	2013-02-01	2020-06-11	
187775	187775	CHUY'S HOLDINGS INC	CHUY	171604101	1524931	5812	722511.0	P	01	LC	13520	54141	2012-07-24	2024-10-31	chuy
187810	187810	MID-CON ENERGY PARTNERS -LP	MCEP	59560V208	1527709	1311	211120.0	P	01	LC	13162	53961	2011-12-15	2021-01-29	
187812	187812	MATADOR RESOURCES CO	MTDR	576485205	1520006	1311	2111.0	P	01	LC	13244	53987	2012-02-02	E	mtdr
187833	187833	FIESTA RESTAURANT GROUP INC	FRGI	31660B101	1534992	5812	722511.0	P	01	LC	13375	54061	2012-05-08	2023-10-31	frgi
187959	187959	BRIGHTCOVE INC	BCOV	10921T101	1313275	7370	518210.0	P	01	LC	13260	53992	2012-02-17	E	bcov
187961	187961	VITAL ENGY INC	VTLE	516806205	1528129	1311	2111.0	P	01	LC	13124	53941	2011-12-15	E	lpi
188255	188255	FORTUNE BRANDS INNOVATNS INC	FBIN	34964C106	1519751	3430	332913.0	P	01	LC	12981	53876	2011-10-04	E	fbhs
188355	188355	LIQTECH INTERNATIONAL INC	LIQT	53632A300	1307579	3590	333310.0	P	01	LC	14339	54673	2013-12-03	E	liqt
188663	188663	SANCHEZ ENERGY CORP	SNECQ	79970Y105	1528837	1311	211120.0	P	01	LC	13139	53945	2011-12-14	2019-01-24	
188855	188855	CAFEPRESS INC	PRSS	12769A103	1117733	5961	454111.0	P	01	LC	13329	54032	2012-03-29	2018-11-30	
188856	188856	FRANCHISE GROUP INC	FRG	35180X105	1528930	5399	455219.0	P	01	LC	13537	54155	2019-11-15	2023-08-31	frg
188856	188856	FRANCHISE GROUP INC	FRG	35180X105	1528930	5399	455219.0	P	01	LC	13537	54155	2019-11-15	2023-08-31	frgap
188856	188856	FRANCHISE GROUP INC	FRG	35180X105	1528930	5399	455219.0	P	01	LC	13537	54155	2012-07-02	2014-07-14	frg
188856	188856	FRANCHISE GROUP INC	FRG	35180X105	1528930	5399	455219.0	P	01	LC	13537	54155	2012-07-02	2014-07-14	frgap
189459	189459	CARLYLE GROUP INC	CG	14316J108	1527166	6282	523920.0	P	01	LC	13405	54082	2012-05-03	E	cg
189459	189459	CARLYLE GROUP INC	CG	14316J108	1527166	6282	523920.0	P	01	LC	13405	54082	2012-05-03	E	cgabl
189491	189491	XYLEM INC	XYL	98419M100	1524472	3561	333914.0	P	01	LC	13035	53896	2011-11-01	E	xyl
189516	189516	ARES COMMERCIAL REAL ESTATE	ACRE	04013V108	1529377	6798	525990.0	P	01	LC	13332	54035	2012-04-26	E	acre
189517	189517	ENOVA INTERNATIONAL INC	ENVA	29357K103	1529864	6141	522291.0	P	01	LC	14960	55047	2014-11-13	E	enva
189567	189567	MANNING & NAPIER INC	MN	56382Q102	1524223	6282	523930.0	P	01	LC	13084	53922	2011-11-18	2022-10-31	mn
189579	189579	GROCERY OUTLET HLDNG CORP	GO	39874R101	1771515	5411	445110.0	P	02	LC	18735	56774	2019-06-20	E	go
189594	189594	VIVINT SMART HOME INC	VVNT	928542109	1713952	7380	561621.0	P	02	LC	17201	56115	2020-01-21	2023-03-31	vvnt
189757	189757	XCEL BRANDS INC	XELB	98400M200	1083220	6794	533110.0	P	01	LC	15543	55373	2015-07-31	E	xelb
190355	190355	AXOGEN INC	AXGN	05463X106	805928	3842	339113.0	P	01	LC	10966	8839	2013-08-09	E	axgn
190455	190455	GUIDEWIRE SOFTWARE INC	GWRE	40171V100	1528396	7372	513210.0	P	01	LC	13181	53970	2012-01-25	E	gwre
190572	190572	STAFFING 360 SOLUTIONS INC	STAF	852387604	1499717	7363	561320.0	P	01	LC	15662	55411	2015-09-29	E	staf
190590	190590	GENIE ENERGY LTD	GNE	372284208	1528356	4931	221.0	P	01	LC	13019	53892	2011-10-31	E	gne
190590	190590	GENIE ENERGY LTD	GNE	372284208	1528356	4931	221.0	P	01	LC	13019	53892	2011-10-31	E	gne-pa
190963	190963	NATIONAL BANK HLDGS CORP	NBHC	633707104	1475841	6020	522110.0	P	02	LC	13579	54180	2012-09-21	E	nbhc
191255	191255	MARRIOTT VACATIONS WORLDWIDE	VAC	57164Y107	1524358	7011	721110.0	P	01	LC	13085	53923	2011-11-22	E	vac
192255	192255	ACADIA HEALTHCARE CO INC	ACHC	00404A109	1520697	8060	622210.0	P	01	LC	13105	53929	2011-11-01	E	achc
194255	194255	VERASTEM INC	VSTM	92337C203	1526119	2836	325414.0	P	01	LC	13202	53978	2012-01-27	E	vstm
194256	194256	WHEELER REAL ESTATE INVT TR	WHLR	963025820	1527541	6798	531120.0	P	01	LC	13700	54273	2012-11-19	E	whlr
194256	194256	WHEELER REAL ESTATE INVT TR	WHLR	963025820	1527541	6798	531120.0	P	01	LC	13700	54273	2012-11-19	E	whlrd
194256	194256	WHEELER REAL ESTATE INVT TR	WHLR	963025820	1527541	6798	531120.0	P	01	LC	13700	54273	2012-11-19	E	whlrp
194655	194655	SAFE & GREEN HOLDINGS CORP	SGBX	78418A604	1023994	3440	332312.0	P	02	LC	16802	55993	2017-06-22	E	sgbx
194755	194755	AMPLIFY ENERGY CORP	AMPY	03212B103	1533924	1311	211120.0	P	05	LC	16442	54043	2019-08-07	E	ampy
194755	194755	AMPLIFY ENERGY CORP	AMPY	03212B103	1533924	1311	211120.0	C	01	LC	13163	53962	2017-05-01	2017-05-05	ampy
194755	194755	AMPLIFY ENERGY CORP	AMPY	03212B103	1533924	1311	211120.0	P	01	LC	13163	53962	2011-12-09	2017-04-30	ampy
194956	194956	WORLDPAY INC	WP	981558109	1533932	7374	518210.0	P	01	LC	13314	54016	2012-03-22	2019-07-31	
196055	196055	CLOVIS ONCOLOGY INC	CLVSQ	189464100	1466301	2836	325414.0	P	01	LC	13107	53931	2011-11-16	2023-07-31	clvs
196159	196159	PBF ENERGY INC	PBF	69318G106	1534504	2911	324110.0	P	01	LC	13730	54291	2012-12-13	E	pbf
196160	196160	BIOAMBER INC	BIOAQ	09072Q106	1534287	2860	3251.0	P	01	LC	13977	54385	2013-06-10	2018-02-07	
196268	196268	YELP INC	YELP	985817105	1345016	7370	519290.0	P	01	LC	13318	54020	2012-03-02	E	yelp
196355	196355	SYNACOR INC	SYNC	871561106	1408278	7370	519130.0	P	01	LC	13280	54004	2012-02-10	2021-04-30	
196856	196856	MELINTA THERAPEUTICS INC	MLNTQ	58549G209	1461993	2834	325412.0	P	01	LC	13263	53995	2017-11-06	2020-04-30	
197559	197559	ENDURANCE INTL GRP HLDGS INC	EIGI	29272B105	1237746	7370	519130.0	P	01	LC	14244	54604	2013-10-25	2021-02-26	
198058	198058	CAPRI HOLDINGS LTD	CPRI	G1890L107	1530721	2300	315.0	P	01	LC	13142	53948	2011-12-15	E	cpri
199356	199356	TRIPADVISOR INC	TRIP	896945201	1526520	7370	519290.0	P	01	LC	13168	53964	2011-12-21	E	trip
200480	200480	MANCHESTER UNITED PLC	MANU	G5784H106	1549107	7900	711211.0	P	02	LC	13547	54161	2012-08-10	E	manu
200512	200512	SUZANO SA	SUZ	86959K105	909327	2600	32212.0	C	90	LC	18297	56601	2018-12-10	E	suz
200664	200664	BBVA COLUMBIA SA	BGA	059594408	931428	6020	522110.0	C	90	LU	81053	30511	1994-11-15	2001-04-05	
200856	200856	COMPANIA DE MINAS BUENAVENTU	BVN	204448104	1013131	1040	212220.0	P	90	LU	83445	31630	1996-05-15	E	bvn
201140	201140	AMBEV SA	ABEV	02319V103	1565025	2082	312120.0	P	90	LU	85254	32018	2013-11-01	E	abev
201140	201140	AMBEV SA	ABEV	02319V103	1565025	2082	312120.0	N	90	LU	85254	32018	1998-04-30	2013-10-31	abev
201140	201140	AMBEV SA	ABEV	02319V103	1565025	2082	312120.0	C	90	LU	85254	32018	1998-04-01	1998-04-29	abev
201140	201140	AMBEV SA	ABEV	02319V103	1565025	2082	312120.0	P	90	LU	85254	32018	1997-06-04	1998-03-31	abev
201336	201336	CRESUD SOCIEDAD ANONIMA COM	CRESY	226406106	1034957	9997	999977.0	P	90	LU	84603	15393	1997-03-19	E	cresy
201336	201336	CRESUD SOCIEDAD ANONIMA COM	CRESY	226406106	1034957	9997	999977.0	P	90	LU	84603	15393	1997-03-19	E	cresw
201395	201395	TAIWAN SEMICONDUCTOR MFG CO	TSM	874039100	1046179	3674	334413.0	J	91	LC	88315	32125	2000-06-02	2000-09-06	tsm
201395	201395	TAIWAN SEMICONDUCTOR MFG CO	TSM	874039100	1046179	3674	334413.0	P	90	LC	85442	32125	1997-10-08	E	tsm
201706	201706	DRDGOLD LTD	DRD	26152H301	1023512	1040	212220.0	P	90	LC	84072	15007	1996-10-02	E	drd
201706	201706	DRDGOLD LTD	DRD	26152H301	1023512	1040	212220.0	P	90	LC	84072	15007	1996-10-02	E	drdgf
201792	201792	ELETROBRAS-CENTR ELETR BRAS	EBR	15234Q207	1439124	4911	2211.0	P	91	LC	92802	53091	2008-10-31	E	ebr
201792	201792	ELETROBRAS-CENTR ELETR BRAS	EBR	15234Q207	1439124	4911	2211.0	P	91	LC	92802	53091	2008-10-31	E	ebr-b
201794	201794	ENEL SPA	ENLAY	29265W207	1096200	4911	2211.0	P	90	LC	87438	36372	1999-11-30	2007-12-19	enlay
201794	201794	ENEL SPA	ENLAY	29265W207	1096200	4911	2211.0	P	90	LC	87438	36372	1999-11-30	2007-12-19	esocf
203480	203480	SK TELECOM CO LTD	SKM	78440P306	1015650	4812	517112.0	P	90	LC	83604	31668	1996-06-27	E	skm
203890	203890	TATA MOTORS LTD	TTM	876568502	926042	3711	336111.0	P	93	LC	90346	45540	2004-09-27	2023-01-31	ttm
203944	203944	OI SA	OIBRQ	670851708	1160846	4813	517111.0	J	91	LC	93093	42408	2009-11-24	2021-10-27	oibrq
203944	203944	OI SA	OIBRQ	670851708	1160846	4813	517111.0	J	91	LC	93093	42408	2009-11-24	2021-10-27	oibzq
204203	204203	CEMENTOS PACASMAYO SAA	CPAC	15126Q208	1221029	3241	327310.0	P	90	LC	13206	53981	2012-02-08	E	cpac
204867	204867	WIPRO LTD	WIT	97651M109	1123799	7373	541512.0	P	90	LC	88683	40160	2000-10-19	E	wit
205692	205692	RANDGOLD RESOURCES LTD	GOLD.3	752344309	1175580	1040	212221.0	P	92	LC	89454	43333	2002-07-11	2019-01-31	
205874	205874	COMPANHIA DE SANEAMENTO	SBS	20441A102	1170858	4941	221310.0	P	90	LC	89403	43155	2002-05-10	E	sbs
205876	205876	ALMACENES EXITO SA	EXTOY	02028M105	1957146	5399	455219.0	P	94	LC	24115	59629	2023-08-29	E	
205942	205942	BRF SA	BRFS	10552T107	1122491	2000	311.0	C	90	LC	88673	40152	1997-08-29	E	brfs
206059	206059	NASPERS LTD	NPSNY	631512209	1106051	7370	516210.0	P	90	LC	89619	43785	2002-12-23	2007-06-07	
206243	206243	EXPRO GROUP HOLDINGS N V	XPRO	N3144W105	1575828	1389	213112.0	P	01	LC	14089	54504	2021-10-04	E	xpro
206468	206468	ROSTELECOM PJSC	ROSYY	778529107	1054487	4813	517311.0	P	90	LC	85793	34662	1998-02-17	2009-12-31	
206703	206703	SGL CARBON SE	SGGGY	784188203	1015111	3620	335991.0	P	90	LU	83610	31677	1996-06-06	2007-06-22	
206956	206956	PCCW LTD	PCCWY	70454G207	842519	4813	517311.0	P	90	LC	88489	38392	2000-08-24	2007-05-17	
207257	207257	SILENCE THERAPEUTICS PLC	SLN	82686Q101	1479615	2836	325414.0	P	90	LC	19843	57357	2020-09-08	E	sln
207257	207257	SILENCE THERAPEUTICS PLC	SLN	82686Q101	1479615	2836	325414.0	P	90	LC	19843	57357	2020-09-08	E	slncf
208057	208057	COMPANHIA SIDERURGICA NACION	SID	20440W105	1049659	3312	331110.0	P	90	LC	85602	32143	1997-11-14	E	sid
208079	208079	SIMS LTD	SMSMY	829160100	928366	3341	331492.0	P	90	LC	92609	52981	2008-03-17	E	
208323	208323	VEDANTA LTD	VEDL	92242Y100	1370431	3330	331410.0	P	90	LC	14140	54543	2013-09-25	2021-12-31	
209341	209341	UNITED MICROELECTRONICS CORP	UMC	910873405	1033767	3674	334413.0	P	90	LC	88612	39148	2000-09-19	E	umc
209382	209382	VALE SA	VALE	91912E105	917851	1000	212210.0	P	91	LC	89330	37665	2002-03-22	E	vale
209410	209410	TATA COMMUNICATIONS LTD	TTCMY	876564105	1116134	4813	517110.0	C	92	LC	88494	38397	2000-08-15	2013-06-07	
210418	210418	ABB LTD	ABBNY	000375204	1091587	3613	335313.0	P	91	LC	88953	41444	2001-04-06	E	abb
210418	210418	ABB LTD	ABBNY	000375204	1091587	3613	335313.0	P	91	LC	88953	41444	2001-04-06	E	ablzf
211009	211009	INFOSYS LTD	INFY	456788108	1067491	7371	541511.0	P	90	LU	86776	16435	1999-03-11	E	infy
211732	211732	BANCO MACRO SA	BMA	05961W105	1347426	6020	522110.0	P	90	LC	91133	50467	2006-03-24	E	bma
211819	211819	NATIONAL GRID	NGG	636274409	1004315	4911	2211.0	P	90	LC	87280	36350	1999-10-07	E	ngg
211819	211819	NATIONAL GRID	NGG	636274409	1004315	4911	2211.0	P	90	LC	87280	36350	1999-10-07	E	nggtf
211819	211819	NATIONAL GRID	NGG	636274409	1004315	4911	2211.0	P	90	LC	87280	36350	1999-10-07	E	nmk-pc
211819	211819	NATIONAL GRID	NGG	636274409	1004315	4911	2211.0	P	90	LC	87280	36350	1999-10-07	E	nmk-pb
211819	211819	NATIONAL GRID	NGG	636274409	1004315	4911	2211.0	P	90	LC	87280	36350	1999-10-07	E	newen
212340	212340	SHIRE PLC	SHPG	82481R106	936402	2836	325414.0	P	90	LU	85888	16024	1998-03-27	2019-01-31	
212773	212773	IMPERIAL BRANDS PLC	IMBBY	45262P102	1072670	2111	312230.0	P	90	LC	86404	34910	1998-11-09	2008-09-11	
212782	212782	FRESENIUS MEDICAL CARE AG	FMS	358029106	1333141	8090	621492.0	P	90	LC	83987	31733	1996-10-01	E	fms
212782	212782	FRESENIUS MEDICAL CARE AG	FMS	358029106	1333141	8090	621492.0	P	90	LC	83987	31733	1996-10-01	E	fmcqf
212950	212950	PAMPA ENERGIA SA	PAM	697660207	1469395	4911	2211.0	P	90	LC	93067	53236	2009-10-09	E	pam
213288	213288	EMBRAER SA	ERJ	29082A107	1355444	3721	336411.0	P	90	LC	88392	37901	2000-07-21	E	erj
213412	213412	ASE TECHNOLOGY HLDNG CO	ASX	00215W100	1122411	3674	334413.0	P	90	LC	88659	39129	2000-10-02	E	asx
213412	213412	ASE TECHNOLOGY HLDNG CO	ASX	00215W100	1122411	3674	334413.0	J	95	LC	88586	39129	2000-09-26	2000-12-28	asx
214526	214526	MAGYAR TELEKOM	MYTAY	559776109	1047564	4812	517112.0	P	90	LC	85617	32155	1997-11-14	2010-11-11	mytay
215422	215422	MOWI ASA	MHGVY	624678108	1578526	2090	311710.0	P	90	LC	14394	54699	2014-01-28	2017-03-09	
216019	216019	AIXTRON SE	AIIXY	009606203	1089496	3559	333242.0	J	90	LC	90631	46439	2017-07-01	2017-07-31	
216019	216019	AIXTRON SE	AIIXY	009606203	1089496	3559	333242.0	C	90	LC	90631	46439	2005-03-15	2017-06-30	
218399	218399	ALSTOM SA	ALSMY	021244207	1062066	3743	336510.0	P	90	LC	86110	35284	1998-06-22	2004-08-18	alsmy
218399	218399	ALSTOM SA	ALSMY	021244207	1062066	3743	336510.0	P	90	LC	86110	35284	1998-06-22	2004-08-18	aomff
220211	220211	ICL GROUP LTD	ICL	M53213100	941221	2870	3253.0	P	01	LC	14919	55019	2014-09-24	E	icl
220487	220487	LATAM AIRLINES GROUP SA	LTM	51817R205	1047716	4512	481111.0	C	90	LC	85616	32154	1997-11-07	2020-06-09	ltmaq
220487	220487	LATAM AIRLINES GROUP SA	LTM	51817R205	1047716	4512	481111.0	C	90	LC	25310	32154	2024-07-25	E	ltmaq
220546	220546	EQUINOR ASA	EQNR	29446M102	1140625	2911	324110.0	P	90	LC	89016	41691	2001-06-18	E	eqnr
220546	220546	EQUINOR ASA	EQNR	29446M102	1140625	2911	324110.0	P	90	LC	89016	41691	2001-06-18	E	stohf
220579	220579	TELIA COMPANY AB	TLSNY	87960M205	1619489	4813	517111.0	J	90	LC	89621	43787	2004-08-01	2004-08-06	
220579	220579	TELIA COMPANY AB	TLSNY	87960M205	1619489	4813	517111.0	P	90	LC	89621	43787	2002-12-10	2004-07-31	
220940	220940	ORANGE SA	ORANY	684060106	1038143	4813	517111.0	P	90	LC	85425	32109	1997-10-21	E	oran
220940	220940	ORANGE SA	ORANY	684060106	1038143	4813	517111.0	P	90	LC	85425	32109	1997-10-21	E	fnctf
221261	221261	COCA-COLA HBC AG	CCHGY	191223205	1558633	2086	312111.0	N	90	LC	89539	43625	2013-04-29	2013-06-05	
221261	221261	COCA-COLA HBC AG	CCHGY	191223205	1558633	2086	312111.0	C	90	LC	89539	43625	2013-04-01	2013-04-28	
221261	221261	COCA-COLA HBC AG	CCHGY	191223205	1558633	2086	312111.0	P	90	LC	89539	43625	2002-10-10	2013-03-31	
221261	221261	COCA-COLA HBC AG	CCHGY	191223205	1558633	2086	312111.0	P	91	LC	13832	54358	2013-04-29	2014-07-24	
221545	221545	INDUSTRIAS BACHOCO SAB DE CV	IBAAY	456463108	1044896	2015	311615.0	C	90	LC	85337	32078	2006-09-26	2023-04-21	iba
221545	221545	INDUSTRIAS BACHOCO SAB DE CV	IBAAY	456463108	1044896	2015	311615.0	C	90	LC	85337	32078	2006-09-26	2023-04-21	idbhf
221612	221612	TELENOR ASA	TELNY	87944W105	1126113	4812	517112.0	P	90	LC	88842	41063	2000-12-04	2007-06-08	
221616	221616	DEUTSCHE TELEKOM	DTEGY	251566105	946770	4813	517111.0	P	90	LC	84165	31795	1996-11-18	2010-06-18	
221636	221636	ABENGOA SA	ABGBY	00289R201	1161785	8711	541330.0	P	90	LC	14236	54599	2013-10-17	2016-05-31	
221821	221821	NIDEC CORPORATION	NJDCY	654090109	1158967	3621	335312.0	P	90	LC	89156	42127	2001-09-27	E	
222111	222111	PETROLEO BRASILEIRO SA- PETR	PBR	71654V408	1119639	2911	324110.0	P	92	LC	88490	38393	2000-08-10	E	pbr
222111	222111	PETROLEO BRASILEIRO SA- PETR	PBR	71654V408	1119639	2911	324110.0	P	92	LC	88490	38393	2000-08-10	E	pbr-a
222286	222286	TELE2 AB	TLTZY	87952P307	1618865	4812	517112.0	J	91	LC	88737	15280	2000-10-04	2005-04-08	
222286	222286	TELE2 AB	TLTZY	87952P307	1618865	4812	517112.0	J	90	LC	84431	15280	2005-04-01	2005-04-08	
222286	222286	TELE2 AB	TLTZY	87952P307	1618865	4812	517112.0	P	90	LC	84431	15280	1997-01-22	2005-03-31	
222357	222357	CIA ENERGETICA DE MINAS	CIG	204409601	1157557	4911	2211.0	J	93	LC	92118	42124	2007-06-12	E	cig
222357	222357	CIA ENERGETICA DE MINAS	CIG	204409601	1157557	4911	2211.0	J	93	LC	92118	42124	2007-06-12	E	cig-c
222519	222519	GRUMA SAB DE CV	GMKKY	400131405	1661215	2040	311211.0	C	92	LC	86402	34908	2016-03-01	2016-03-11	
222519	222519	GRUMA SAB DE CV	GMKKY	400131405	1661215	2040	311211.0	P	92	LC	86402	34908	1998-11-06	2016-02-29	
222638	222638	TIM S.A.	TIMB	88706T108	1826168	4812	517112.0	P	90	LC	19922	57396	2020-10-16	E	timb
222638	222638	TIM S.A.	TIMB	88706T108	1826168	4812	517112.0	P	90	LC	12972	34922	2011-08-09	2020-10-12	timb
222648	222648	TELEFONICA BRASIL SA	VIV	87936R205	1066119	4813	517111.0	P	91	LC	20107	34931	2020-12-01	E	viv
222648	222648	TELEFONICA BRASIL SA	VIV	87936R205	1066119	4813	517111.0	J	91	LC	20107	34931	2020-11-30	2020-11-30	viv
223098	223098	DR REDDY'S LABORATORIES LTD	RDY	256135203	1135951	2834	325412.0	P	91	LC	88957	41450	2001-04-11	E	rdy
223148	223148	ICICI BANK LTD	IBN	45104G104	1103838	6020	522110.0	P	91	LC	87662	36956	2002-05-03	E	ibn
223148	223148	ICICI BANK LTD	IBN	45104G104	1103838	6020	522110.0	P	91	LC	87275	35273	1999-10-29	2002-05-02	ibn
223148	223148	ICICI BANK LTD	IBN	45104G104	1103838	6020	522110.0	N	90	LC	87210	35273	1999-10-29	2000-06-16	ibn
223148	223148	ICICI BANK LTD	IBN	45104G104	1103838	6020	522110.0	C	90	LC	87210	35273	1999-10-01	1999-10-28	ibn
223148	223148	ICICI BANK LTD	IBN	45104G104	1103838	6020	522110.0	P	90	LC	87210	35273	1999-09-22	1999-09-30	ibn
223732	223732	TREND MICRO INC	TMICY	89486M206	1089463	7372	513210.0	P	90	LU	87094	16638	1999-07-12	2007-05-30	
223911	223911	NTT DOCOMO INC	DCMYY	62942M201	1166141	4812	517312.0	P	91	LC	89335	42920	2002-03-01	2021-03-31	
231016	231016	MORPHOSYS AG	MOR	617760202	1340243	2836	325414.0	P	91	LC	17694	56342	2018-04-19	2024-08-05	mor
231016	231016	MORPHOSYS AG	MOR	617760202	1340243	2836	325414.0	P	91	LC	17694	56342	2018-04-19	2024-08-05	mpsyf
232135	232135	PHARMING GROUP NV	PHAR	71716E105	1828316	2836	325414.0	P	90	LC	20314	57648	2020-12-23	E	phar
232623	232623	EVOTEC SE	EVO	30050E105	1412558	2836	325414.0	P	90	LC	92683	53024	2021-11-04	E	evo
232623	232623	EVOTEC SE	EVO	30050E105	1412558	2836	325414.0	P	90	LC	92683	53024	2021-11-04	E	evotf
232623	232623	EVOTEC SE	EVO	30050E105	1412558	2836	325414.0	P	90	LC	92683	53024	2008-05-09	2009-11-29	evo
232623	232623	EVOTEC SE	EVO	30050E105	1412558	2836	325414.0	P	90	LC	92683	53024	2008-05-09	2009-11-29	evotf
233038	233038	DIALOG SEMICONDUCTOR PLC	DLGS	25250P108	1116581	3674	334413.0	P	90	LC	88334	37709	2000-06-29	2006-12-27	
233491	233491	MAGNACHIP SEMICONDUCTOR CORP	MX	55933J203	1325702	3674	334413.0	P	01	LC	12629	53698	2011-03-11	E	mx
237820	237820	AENZA SAA ADR	AENZ	00776D202	1572621	1600	237.0	P	91	LC	14019	54461	2018-07-06	2023-12-08	aenz
237820	237820	AENZA SAA ADR	AENZ	00776D202	1572621	1600	237.0	P	91	LC	14019	54461	2013-07-24	2018-05-17	aenz
238616	238616	VEOLIA ENVIRONNEMENT S A	VEOEY	92334N103	1961017	4941	221310.0	P	90	LC	89198	42290	2001-10-05	E	
239356	239356	PROMOTORA DE INFORMACIONES	PRISY	74343G402	1159513	4888	511130.0	J	91	LC	12383	53562	2014-07-01	2014-07-14	
239356	239356	PROMOTORA DE INFORMACIONES	PRISY	74343G402	1159513	4888	511130.0	P	91	LC	12383	53562	2012-03-01	2014-06-30	
239356	239356	PROMOTORA DE INFORMACIONES	PRISY	74343G402	1159513	4888	511130.0	J	91	LC	12383	53562	2010-12-03	2012-02-29	
239356	239356	PROMOTORA DE INFORMACIONES	PRISY	74343G402	1159513	4888	511130.0	P	90	LC	12382	53562	2014-07-01	2014-09-22	
239356	239356	PROMOTORA DE INFORMACIONES	PRISY	74343G402	1159513	4888	511130.0	J	90	LC	12382	53562	2012-03-01	2014-06-30	
239356	239356	PROMOTORA DE INFORMACIONES	PRISY	74343G402	1159513	4888	511130.0	P	90	LC	12382	53562	2010-12-03	2012-02-29	
241159	241159	CHUNGHWA TELECOM LTD	CHT	17133Q502	1132924	4813	517111.0	P	90	LC	89778	44180	2003-07-18	E	cht
241216	241216	SYNGENTA AG	SYT.3	87160A100	1123661	2870	3253.0	P	90	LC	88822	41009	2000-11-13	E	
241366	241366	BANCO DE CHILE	BCH	059520106	1161125	6020	522110.0	P	90	LC	89284	42638	2002-01-08	E	bch
241637	241637	ANHEUSER-BUSCH INBEV	BUD	03524A108	1668717	2082	312120.0	P	90	LC	93013	53204	2009-09-16	E	bud
241637	241637	ANHEUSER-BUSCH INBEV	BUD	03524A108	1668717	2082	312120.0	P	90	LC	93013	53204	2009-09-16	E	budff
242977	242977	AUO CORPORATION	AUOTY	002255404	1172494	3674	334413.0	P	90	LC	89398	43150	2002-05-23	2019-09-30	auoty
243145	243145	G CITY LTD	GZTGF	M4793C102	1379009	6512	531120.0	P	01	LC	13145	53949	2011-12-14	E	
243174	243174	FLUTTER ENTERTAINMENT PLC	FLUT	G3643J108	1635327	7990	713290.0	P	01	LC	24807	59787	2024-01-29	E	
243588	243588	BANCO SANTANDER MEXICO -ADR	BSMX	05969B103	1698287	6020	522110.0	P	90	LC	13576	54178	2012-09-26	2023-05-05	bsmx
244641	244641	ITURAN LOCATION & CONTROL	ITRN	M6158M104	1337117	4899	517810.0	P	01	LC	90902	47442	2005-09-28	E	itrn
245207	245207	GENMAB AS	GMAB	372303206	1434265	2836	325414.0	P	91	LC	18839	56829	2019-07-18	E	gmab
245207	245207	GENMAB AS	GMAB	372303206	1434265	2836	325414.0	P	91	LC	18839	56829	2019-07-18	E	gnmsf
245918	245918	INTL GAME TECHNOLOGY PLC	IGT	G4863A108	1619762	7990	713290.0	P	01	LC	15331	55245	2015-04-07	E	igt
246010	246010	GENETIC TECHNOLOGIES LIMITED	GENE	37185R406	1166272	2836	325414.0	P	90	LC	90899	47439	2005-09-02	E	gene
246010	246010	GENETIC TECHNOLOGIES LIMITED	GENE	37185R406	1166272	2836	325414.0	P	90	LC	90899	47439	2005-09-02	E	gntlf
247371	247371	LONESTAR RESOURCES US INC	LONE	54240F202	1661920	1311	211120.0	P	01	LC	16174	55618	2016-07-05	2020-10-09	
247881	247881	GW PHARMACEUTICALS LIMITED	GWPH	36197T103	1351288	2836	325414.0	P	90	LC	13926	54411	2013-05-02	2021-05-28	
248136	248136	MIZUHO FINANCIAL GROUP INC	MFG	60687Y109	1335730	6020	522110.0	P	90	LC	91582	51429	2006-11-08	E	mfg
248136	248136	MIZUHO FINANCIAL GROUP INC	MFG	60687Y109	1335730	6020	522110.0	P	90	LC	91582	51429	2006-11-08	E	mzhof
249158	249158	GOLAR LNG LTD	GLNG	G9456A100	1207179	4412	483111.0	P	01	LC	89618	43784	2002-12-12	E	glng
249507	249507	ALTERITY THERAPEUTICS LTD	ATHE	02155X205	1131343	2836	325414.0	P	90	LC	89505	43507	2002-09-05	E	athe
252614	252614	ON TRACK INNOVATIONS	OTIVF	M8791A109	1021604	3577	334118.0	P	01	LC	89571	43687	2002-11-12	2022-06-30	
252819	252819	WOORI FINANCIAL GROUP INC	WF	981064108	1264136	6020	522110.0	P	90	LC	89856	44403	2003-09-29	E	wf
252940	252940	MITSUBISHI UFJ FINANCIAL GRP	MUFG	606822104	67088	6020	522110.0	P	90	LC	75811	22107	2001-04-02	E	mufg
252940	252940	MITSUBISHI UFJ FINANCIAL GRP	MUFG	606822104	67088	6020	522110.0	P	90	LC	75811	22107	2001-04-02	E	mbfjf
253355	253355	AVITA MEDICAL INC	RCEL	05380C102	1762303	2836	325414.0	J	90	LC	19671	56920	2020-06-01	2020-06-29	rcel
253355	253355	AVITA MEDICAL INC	RCEL	05380C102	1762303	2836	325414.0	P	90	LC	19671	56920	2019-10-01	2020-05-31	rcel
253355	253355	AVITA MEDICAL INC	RCEL	05380C102	1762303	2836	325414.0	P	02	LC	19022	56920	2020-06-30	E	rcel
253527	253527	EYEPOINT PHARMACEUTICALS INC	EYPT	30233G209	1314102	2836	325414.0	P	01	LC	90542	46110	2008-06-26	E	eypt
253527	253527	EYEPOINT PHARMACEUTICALS INC	EYPT	30233G209	1314102	2836	325414.0	P	01	LC	19678	46110	2005-01-27	2008-06-25	eypt
254096	254096	PLUS THERAPEUTICS INC	PSTV	72941H509	1095981	2836	325414.0	P	01	LC	91021	49997	2005-12-19	E	pstv
254338	254338	CHINA TELECOM CORP LTD	CHA	169426103	1191255	4813	517111.0	P	90	LC	89581	43697	2002-11-14	2021-01-29	
258664	258664	BANCO ITAU CHILE	ITCLY	45033E105	1276671	6020	522110.0	P	91	LC	90432	45862	2004-11-01	2024-03-28	itcb
258869	258869	TRI POINTE HOMES INC	TPH	87265H109	1561680	1531	236117.0	P	01	LC	13748	54303	2014-07-31	E	tph
259073	259073	SYNTARA LIMITED	PXSL	71715J105	1301357	2834	325412.0	P	90	LC	90869	47215	2005-08-29	2009-07-22	
259503	259503	CHINA LIFE INSURANCE COMPANY	CILJF	Y1477R204	1268896	6311	524113.0	J	90	LC	89949	44703	2022-11-01	2022-11-11	ciljf
259503	259503	CHINA LIFE INSURANCE COMPANY	CILJF	Y1477R204	1268896	6311	524113.0	J	90	LC	89949	44703	2022-11-01	2022-11-11	lfc
259503	259503	CHINA LIFE INSURANCE COMPANY	CILJF	Y1477R204	1268896	6311	524113.0	J	90	LC	89949	44703	2022-11-01	2022-11-11	lfchy
259503	259503	CHINA LIFE INSURANCE COMPANY	CILJF	Y1477R204	1268896	6311	524113.0	P	90	LC	89949	44703	2003-12-17	2022-10-31	ciljf
259503	259503	CHINA LIFE INSURANCE COMPANY	CILJF	Y1477R204	1268896	6311	524113.0	P	90	LC	89949	44703	2003-12-17	2022-10-31	lfc
259503	259503	CHINA LIFE INSURANCE COMPANY	CILJF	Y1477R204	1268896	6311	524113.0	P	90	LC	89949	44703	2003-12-17	2022-10-31	lfchy
259518	259518	JANUS HENDERSON GROUP PLC	JHG	G4474Y214	1274173	6282	523940.0	P	01	LC	16693	55929	2017-05-30	E	jhg
260324	260324	MAXCOM TELECOMUNICACIONES SA	MXMTY	57773A607	1113306	4813	517311.0	P	90	LC	92341	52805	2007-10-31	2014-11-13	
260737	260737	OCEAN POWER TECHNOLOGIES INC	OPTT	674870506	1378140	3612	335311.0	P	01	LC	91964	52138	2007-04-25	E	optt
260751	260751	BANK OF NT BUTTERFIELD & SON	NTB	G0772R208	1653242	6020	522110.0	P	01	LC	16339	55712	2016-09-16	E	ntb
260774	260774	CBRE GROUP INC	CBRE	12504L109	1138118	6531	531312.0	P	01	LC	90199	45270	2004-06-10	E	cbre
260778	260778	WELLCARE HEALTH PLANS INC	WCG	94946T106	1279363	6324	524114.0	P	01	LC	90272	45394	2004-07-07	2020-01-31	
260838	260838	CIPHER PHARMACEUTICALS INC	CPHRF	17253X105	1358575	2834	325412.0	C	01	LC	15061	55107	2014-11-24	2016-12-08	
260893	260893	BLACKBAUD INC	BLKB	09227Q100	1280058	7370	519290.0	P	01	LC	90276	45417	2004-07-22	E	blkb
263277	263277	TRITON INTERNATIONAL LTD	BIPC1	G9099A004	1660734	7359	532411.0	P	01	LC	16143	55603	2016-07-13	2023-09-29	trtn
263277	263277	TRITON INTERNATIONAL LTD	BIPC1	G9099A004	1660734	7359	532411.0	P	01	LC	16143	55603	2016-07-13	2023-09-29	trtn-pa
263277	263277	TRITON INTERNATIONAL LTD	BIPC1	G9099A004	1660734	7359	532411.0	P	01	LC	16143	55603	2016-07-13	2023-09-29	trtn-pb
263277	263277	TRITON INTERNATIONAL LTD	BIPC1	G9099A004	1660734	7359	532411.0	P	01	LC	16143	55603	2016-07-13	2023-09-29	trtn-pc
263277	263277	TRITON INTERNATIONAL LTD	BIPC1	G9099A004	1660734	7359	532411.0	P	01	LC	16143	55603	2016-07-13	2023-09-29	trtn-pd
263277	263277	TRITON INTERNATIONAL LTD	BIPC1	G9099A004	1660734	7359	532411.0	P	01	LC	16143	55603	2016-07-13	2023-09-29	trtn-pe
264193	264193	SCHNEIDER NATIONAL INC	SNDR	80689H102	1692063	4210	484.0	P	01	LC	16648	55898	2017-04-06	E	sndr
264265	264265	ALNYLAM PHARMACEUTICALS INC	ALNY	02043Q107	1178670	2836	325414.0	P	01	LC	90178	45191	2004-05-28	E	alny
264385	264385	NUVASIVE INC	NUVA	670704105	1142596	3841	339112.0	P	01	LC	90188	45197	2004-05-13	2023-09-29	nuva
264387	264387	ANGIODYNAMICS INC	ANGO	03475V101	1275187	3841	339112.0	P	01	LC	90179	45192	2004-05-27	E	ango
264395	264395	GREENHILL & CO INC	GHL	395259104	1282977	6282	523940.0	P	01	LC	90164	45176	2004-05-06	2023-12-29	ghl
264397	264397	CARDTRONICS PLC	CATM	G1991C105	1671013	7389	522320.0	P	01	LC	92457	52875	2007-12-11	2021-06-30	
264414	264414	MOMENTA PHARMACEUTICALS INC	MNTA	60877T100	1235010	2836	325414.0	P	01	LC	90233	45305	2004-06-22	2020-10-30	
264416	264416	ULTRA CLEAN HOLDINGS INC	UCTT	90385V107	1275014	3674	334413.0	P	01	LC	90097	45004	2004-03-25	E	uctt
264509	264509	HOLLY ENERGY PARTNERS LP	HEP	435763107	1283140	4610	486910.0	P	01	LC	90253	45384	2004-07-08	2023-12-29	hep
264510	264510	BIMINI CAPITAL MANAGEMENT	BMNM	090319401	1275477	6798	525990.0	P	01	LC	90336	45531	2004-09-16	2007-11-02	bmnm
266214	266214	COHEN & STEERS INC	CNS	19247A100	1284812	6282	523940.0	P	01	LC	90303	45467	2004-08-13	E	cns
266257	266257	MIDCAP FINANCIAL INVSMT CORP	MFIC	03761U502	1278752	6797	523910.0	P	01	LC	90121	45078	2004-04-06	E	mfic
266315	266315	KITE REALTY GROUP TRUST	KRG	49803T300	1286043	6798	531120.0	P	01	LC	90307	45471	2004-08-11	E	krg
267054	267054	EMPRESA DISTRIBUIDORA Y COM	EDN	29244A102	1395213	4911	2211.0	P	90	LC	91929	52118	2007-04-26	E	edn
267059	267059	LOMA NEGRA C.I.A.S.A.	LOMA	54150E104	1711375	3241	327310.0	P	90	LC	17092	56140	2017-11-01	E	loma
268208	268208	LUXFER HOLDINGS PLC	LXFR	G5698W116	1096056	3350	331318.0	P	02	LC	17200	54204	2017-12-11	E	lxfr
268208	268208	LUXFER HOLDINGS PLC	LXFR	G5698W116	1096056	3350	331318.0	P	90	LC	13617	54204	2012-10-03	2017-11-30	lxfr
269005	269005	CPFL ENERGIA SA	CPL	126153105	1300482	4911	221122.0	P	90	LC	90338	45532	2004-09-29	2020-01-31	
270281	270281	MECHEL PAO	MTL	583840608	1302362	3312	331110.0	P	90	LC	90384	45694	2004-10-29	E	mtl
270509	270509	NATURA &CO HOLDING SA	NTCOY	63884N108	1776967	2844	325620.0	P	90	LC	19163	56987	2020-01-07	2024-08-09	ntco
270705	270705	HIMAX TECHNOLOGIES INC	HIMX	43289P106	1342338	3674	334413.0	P	90	LC	91163	50491	2006-03-31	E	himx
271217	271217	FERROVIAL SE	FER	N3168P101	1468522	1600	237.0	P	01	LC	25062	59879	2024-05-09	E	
271342	271342	CMB TECH NV	CMBT	B38564108	1604481	4412	483111.0	P	01	LC	15169	55164	2015-01-23	E	eurn
271357	271357	SUMMIT THERAPEUTICS INC	SMMT	86627T108	1599298	2836	325414.0	P	01	LC	19849	55216	2020-09-21	E	smmt
271357	271357	SUMMIT THERAPEUTICS INC	SMMT	86627T108	1599298	2836	325414.0	N	90	LC	15274	55216	2020-09-21	2020-09-30	smmt
271357	271357	SUMMIT THERAPEUTICS INC	SMMT	86627T108	1599298	2836	325414.0	C	90	LC	15274	55216	2020-09-01	2020-09-20	smmt
271357	271357	SUMMIT THERAPEUTICS INC	SMMT	86627T108	1599298	2836	325414.0	P	90	LC	15274	55216	2015-03-05	2020-08-31	smmt
271607	271607	MESOBLAST LTD	MESO	590717401	1345099	2836	325414.0	P	90	LC	15848	55485	2015-11-13	E	meso
271607	271607	MESOBLAST LTD	MESO	590717401	1345099	2836	325414.0	P	90	LC	15848	55485	2015-11-13	E	meobf
271841	271841	GAFISA SA	GFASY	362607608	1389207	1520	2361.0	P	93	LC	91859	51970	2007-03-16	2018-12-14	gfasy
271987	271987	NUWELLIS INC	NUWE	67113Y603	1506492	3845	334510.0	P	01	LC	13279	54003	2012-02-16	E	nuwe
272699	272699	ENSYNC INC	ESNC	29359T102	1140310	3690	335999.0	C	01	LC	92155	52416	2007-06-18	E	
272838	272838	SUNDANCE ENERGY AUSTRALIA	SNDEQ	86725N102	1326089	1311	2111.0	C	90	LC	19667	55699	2019-11-01	2019-11-25	
272838	272838	SUNDANCE ENERGY AUSTRALIA	SNDEQ	86725N102	1326089	1311	2111.0	P	90	LC	19667	55699	2016-09-02	2019-10-31	
272838	272838	SUNDANCE ENERGY AUSTRALIA	SNDEQ	86725N102	1326089	1311	2111.0	P	02	LC	16306	55699	2019-11-26	2021-04-30	
272872	272872	GALAPAGOS NV	GLPG	36315X101	1421876	2836	325414.0	P	90	LC	15373	55272	2015-05-14	E	glpg
272872	272872	GALAPAGOS NV	GLPG	36315X101	1421876	2836	325414.0	P	90	LC	15373	55272	2015-05-14	E	glpgf
272961	272961	MICRO FOCUS INTL PLC	MFGP	594837403	1359711	7372	511210.0	P	91	LC	16850	56026	2017-09-01	2023-02-28	mfgp
272961	272961	MICRO FOCUS INTL PLC	MFGP	594837403	1359711	7372	511210.0	P	91	LC	16850	56026	2017-09-01	2023-02-28	mcfuf
273726	273726	SEADRILL LTD	SDRL	G7997W102	1737706	1381	213111.0	C	03	LC	93338	53385	2022-10-14	E	sedrf
273726	273726	SEADRILL LTD	SDRL	G7997W102	1737706	1381	213111.0	P	02	LC	93338	53385	2018-07-03	2020-06-19	sedrf
273726	273726	SEADRILL LTD	SDRL	G7997W102	1737706	1381	213111.0	C	01	LC	93338	53385	2018-07-01	2018-07-02	sedrf
273726	273726	SEADRILL LTD	SDRL	G7997W102	1737706	1381	213111.0	P	01	LC	93338	53385	2010-04-15	2018-06-30	sedrf
274536	274536	COSAN SA	CSAN	22113B103	1430162	5172	424720.0	P	90	LC	20680	58022	2021-03-11	E	csan
277323	277323	ZIM INTEGRATED SHIPPING SERV	ZIM	M9T951109	1654126	4412	483111.0	P	01	LC	20410	57706	2021-01-28	E	zim
277487	277487	BRASILAGRO CIA BRAS DE PROP	LND	10554B104	1499849	100	111.0	P	90	LC	13680	54257	2012-11-08	E	lnd
277487	277487	BRASILAGRO CIA BRAS DE PROP	LND	10554B104	1499849	100	111.0	P	90	LC	13680	54257	2012-11-08	E	brcpf
278151	278151	GEOPARK LTD	GPRK	G38327105	1464591	1311	211120.0	P	01	LC	14493	54755	2014-02-07	E	gprk
278153	278153	HUTCHMED (CHINA) LTD	HCM	44842L103	1648257	2834	325412.0	P	90	LC	15969	55533	2016-03-17	E	hcm
278153	278153	HUTCHMED (CHINA) LTD	HCM	44842L103	1648257	2834	325412.0	P	90	LC	15969	55533	2016-03-17	E	hmdcf
278246	278246	EROS STX GLOBAL CORPORATION	EROS.1	G3799T934	0	7812	512110.0	C	01	LC	14299	54643	2013-11-13	2020-07-30	
278308	278308	MDXHEALTH SA	MDXH	B5950S113	1872529	2835	325413.0	P	01	LC	24590	58965	2023-11-27	E	mdxh
278308	278308	MDXHEALTH SA	MDXH	B5950S113	1872529	2835	325413.0	J	90	LC	22325	58965	2023-11-01	2023-11-24	mdxh
278308	278308	MDXHEALTH SA	MDXH	B5950S113	1872529	2835	325413.0	P	90	LC	22325	58965	2021-11-04	2023-10-31	mdxh
279431	279431	EMEREN GROUP LTD	SOL	75971T301	1417892	1623	237130.0	P	90	LC	92543	52934	2008-01-29	E	sol
281420	281420	INNATE PHARMA SA	IPHA	45781K204	1598599	2836	325414.0	P	90	LC	19014	56913	2019-10-18	E	ipha
281420	281420	INNATE PHARMA SA	IPHA	45781K204	1598599	2836	325414.0	P	90	LC	19014	56913	2019-10-18	E	iphyf
282104	282104	DOLE PLC	DOLE	G27907107	1857475	2030	31142.0	P	01	LC	21690	58535	2021-07-30	E	dole
282363	282363	BIOFRONTERA AG	BFAGY	09075G105	1729244	2834	325412.0	P	90	LC	17311	56264	2018-02-14	2022-09-30	
282553	282553	CDTI ADVANCED MATERIALS INC	CDTI	12514V204	949428	3714	336390.0	P	01	LC	82678	14266	2010-10-18	E	
282608	282608	CELLECTIS SA	CLLS	15117K103	1627281	2836	325414.0	P	90	LC	15269	55211	2015-03-25	E	clls
282715	282715	BIOLINE RX LTD	BLRX	09071M304	1498403	2836	325414.0	P	90	LC	12912	53841	2011-07-25	E	blrx
283006	283006	ITAMAR MEDICAL LTD	ITMR	465437101	1751017	3845	334510.0	P	90	LC	18407	56652	2019-02-27	2021-12-31	
283184	283184	SMURFIT WESTROCK PLC	SW	G8267P108	2005951	2631	322130.0	P	01	LC	25146	59891	2024-07-08	E	
284353	284353	GENFIT SA	GNFT	372279109	1757064	2836	325414.0	P	90	LC	18468	56686	2019-03-27	E	gnft
284453	284453	VERONA PHARMA PLC	VRNA	925050106	1657312	2834	325412.0	P	90	LC	16684	55923	2017-04-27	E	vrna
284699	284699	ADDEX THERAPEUTICS LTD	ADXN	00654J206	1574232	2834	325412.0	P	90	LC	19179	56995	2020-01-29	E	adxn
284745	284745	IDEX BIOMETRICS ASA	IDBAY	45173W105	1824036	3670	33441.0	P	90	LC	20814	58117	2021-03-01	2023-11-30	idba
285085	285085	UNIQURE NV	QURE	N90064101	1590560	2836	325414.0	P	01	LC	14466	54742	2014-02-05	E	qure
285313	285313	BANCO SANTANDER BRASIL  -ADR	BSBR	05967A107	1471055	6020	522110.0	P	90	LC	93054	53230	2009-10-07	E	bsbr
285333	285333	INTERCORP FINANCIAL SVCS INC	IFS	P5626F128	1615903	6020	522110.0	P	02	LC	18828	56820	2019-07-19	E	ifs
285556	285556	VALNEVA SE	VALN	92025Y103	1836564	2836	325414.0	P	90	LC	21341	58311	2021-05-06	E	valn
286017	286017	MAZOR ROBOTICS LTD	MZOR	57886P103	1566844	3845	334510.0	P	90	LC	13933	54416	2013-05-28	2018-12-31	
286396	286396	EVOGENE LTD	EVGN	M4119S187	1574565	2836	325414.0	P	01	LC	14300	54644	2013-11-21	E	evgn
286433	286433	VIVESTO AB	OASMY	67421W109	1607245	2836	325414.0	C	90	LC	15790	55464	2015-10-23	E	oasmy
287111	287111	KAMADA LTD	KMDA	M6240T109	1567529	2836	325414.0	P	01	LC	13930	54413	2013-05-31	E	kmda
287252	287252	MIX TELEMATICS LTD	MIXT	60688N102	1576914	7370	519290.0	P	90	LC	14075	54498	2013-08-09	2024-03-28	mixt
287562	287562	INTERCURE LTD	INCR	M549GJ111	1857030	2834	325412.0	P	01	LC	21935	58728	2021-09-01	E	incr
287882	287882	ECOPETROL SA	EC	279158109	1444406	2911	324110.0	P	90	LC	92793	53084	2008-09-18	E	ec
288586	288586	FLEX LNG LTD	FLNG	G35947202	1772253	4412	483111.0	C	01	LC	18767	56784	2019-06-17	E	flng
289735	289735	VISLINK TECHNOLOGIES INC	VISL	92836Y409	1565228	4899	517810.0	P	01	LC	14060	54488	2013-07-19	E	visl
290977	290977	BRAINSWAY LTD	BWAY	10501L106	1505065	3845	334510.0	P	90	LC	18547	56699	2019-04-17	E	bway
290977	290977	BRAINSWAY LTD	BWAY	10501L106	1505065	3845	334510.0	P	90	LC	18547	56699	2019-04-17	E	brsyf
291881	291881	CAN FITE BIOPHARMA LTD	CANF	13471N300	1536196	2836	325414.0	P	90	LC	14272	54626	2013-11-19	E	canf
293070	293070	BURFORD CAPITAL LIMITED	BUR	G17977110	1714174	6159	522299.0	P	01	LC	19927	57403	2020-10-19	E	bur
293754	293754	AEVI GENOMIC MEDICINE INC	GNMX	00835P105	1138776	2836	325414.0	P	01	LC	12667	53713	2011-04-08	2020-02-28	
293884	293884	INTERXION HOLDING NV	INXN	N47279109	1500866	7370	519130.0	P	01	LC	12541	53655	2011-01-28	2020-03-31	
293919	293919	STRONGBRIDGE BIOPHARMA PLC	SBBP	G85347105	1634432	2836	325414.0	P	01	LC	15794	55467	2015-10-16	2021-10-29	
294524	294524	LYONDELLBASELL INDUSTRIES NV	LYB	N53745100	1489393	2820	325211.0	N	02	LC	12346	53531	2010-10-14	2010-12-06	lyb
294524	294524	LYONDELLBASELL INDUSTRIES NV	LYB	N53745100	1489393	2820	325211.0	C	01	LC	12345	53531	2010-10-14	E	lyb
295786	295786	CNH INDUSTRIAL NV	CNH	N20944109	1567094	3523	333111.0	P	01	LC	14144	54547	2013-10-01	E	cnhi
295786	295786	CNH INDUSTRIAL NV	CNH	N20944109	1567094	3523	333111.0	C	01	LC	14144	54547	2013-09-30	2013-09-30	cnhi
295917	295917	ZEALAND PHARMA AS	ZEAL	98920Y304	1674988	2836	325414.0	P	91	LC	16914	56052	2017-08-09	2022-09-30	zeal
296318	296318	OCEAN RIG UDW INC	ORIG	G66964118	1447382	1381	213111.0	P	01	LC	13013	53885	2011-10-06	2018-12-31	
296677	296677	ATI PHYSICAL THERAPY INC	ATIP	00216W208	1815849	8000	621340.0	P	01	LC	19892	57205	2021-06-17	E	atip
296677	296677	ATI PHYSICAL THERAPY INC	ATIP	00216W208	1815849	8000	621340.0	P	01	LC	19892	57205	2021-06-17	E	atip-wt
296697	296697	CONTROLADORA VUELA COMPANIA	VLRS	21240E105	1520504	4512	481111.0	P	90	LC	14132	54537	2013-09-18	E	vlrs
296885	296885	REDHILL BIOPHARMA LTD	RDHL	757468301	1553846	2836	325414.0	P	90	LC	13707	54281	2012-12-27	E	rdhl
297209	297209	PACIFIC DRILLING SA	PACDQ	L7257P205	1517342	1381	213111.0	P	01	LC	18301	53928	2018-12-18	2020-12-31	
297209	297209	PACIFIC DRILLING SA	PACDQ	L7257P205	1517342	1381	213111.0	P	01	LC	13104	53928	2011-11-11	2017-09-12	
298036	298036	STARTEK INC	SRT	85569C107	1031029	7389	561499.0	P	01	LC	85077	32014	2018-07-24	2024-01-31	srt
300107	300107	NANO DIMENSION LTD	NNDM	63008G203	1643303	3577	334118.0	P	90	LC	15971	55536	2016-03-07	E	nndm
312009	312009	FRONTLINE PLC	FRO	M46528101	913290	4412	483111.0	P	01	LC	89139	42008	2015-12-31	E	fro
312066	312066	ARKO CORP	ARKO	041242108	1823794	5500	457110.0	P	01	LC	18844	56793	2020-12-23	E	arko
312066	312066	ARKO CORP	ARKO	041242108	1823794	5500	457110.0	P	01	LC	18844	56793	2020-12-23	E	arkow
312079	312079	DBV TECHNOLOGIES S A	DBVT	23306J309	1613780	2836	325414.0	P	90	LC	15002	55071	2014-10-22	E	dbvt
313311	313311	CORPORACION INMOBILIARIA VES	VTMX	92540K109	1969373	6510	5311.0	P	90	LC	23989	59582	2023-06-30	E	
314917	314917	LINX SA	LINX	53619W101	1770883	7370	519130.0	P	90	LC	18756	56782	2019-06-26	2021-07-30	
315318	315318	ELEMENT SOLUTIONS INC	ESI	28618M106	1590714	2890	325998.0	P	01	LC	14406	54703	2014-01-23	E	esi
315629	315629	CHIPMOS TECHNOLOGIES INC	IMOS	16965P202	1123134	3679	334418.0	P	90	LC	16348	55719	2016-11-01	E	imos
315639	315639	CELYAD ONCOLOGY SA	CYADY	151205200	1637890	2836	325414.0	P	90	LC	15419	55305	2015-06-19	2023-10-31	cyad
315887	315887	ENETI INC	NETI	Y2294C107	1587264	7359	532411.0	P	01	LC	14344	54677	2013-12-12	2023-12-29	neti
316056	316056	ALLEGION PLC	ALLE	G0176J109	1579241	3420	332510.0	P	01	LC	14297	54641	2013-12-02	E	alle
316726	316726	BW LPG LTD	BWLP	Y10230103	1649313	4400	483.0	C	01	LC	25011	59845	2024-04-29	E	
316747	316747	GAN LTD	GAN	G3728V109	1799332	7370	518210.0	P	01	LC	19398	57087	2020-05-05	E	gan
317260	317260	HERMITAGE OFFSHORE SER - OLD	NAO.3	G6599Y938	0	4412	483111.0	P	01	LC	14756	54928	2014-06-12	2019-04-17	
317264	317264	DORIAN LPG LTD	LPG	Y2106R110	1596993	4412	483111.0	P	01	LC	14642	54852	2014-05-08	E	lpg
317427	317427	NOMAD FOODS LTD	NOMD	G6564A105	1651717	2030	311411.0	C	01	LC	15920	55515	2016-01-12	E	nomd
317637	317637	NEXXEN INTERNATIONAL LTD	NEXN	M8T80P204	1849396	7310	5418.0	P	90	LC	21587	58493	2021-06-18	E	trmr
318005	318005	ARGEN-X SE	ARGX	04016X101	1697862	2836	325414.0	P	90	LC	16699	55933	2017-05-18	E	argx
318525	318525	MOLECULAR PARTNERS AG	MOLN	60853G106	1745114	2836	325414.0	P	90	LC	21572	58480	2021-06-16	E	moln
318728	318728	ATHENE HOLDING LTD	ATH	G0684D107	1527469	6311	524113.0	P	01	LC	16496	55804	2016-12-09	2021-12-31	ath-pa
318728	318728	ATHENE HOLDING LTD	ATH	G0684D107	1527469	6311	524113.0	P	01	LC	16496	55804	2016-12-09	2021-12-31	ath-pb
318728	318728	ATHENE HOLDING LTD	ATH	G0684D107	1527469	6311	524113.0	P	01	LC	16496	55804	2016-12-09	2021-12-31	ath-pc
318728	318728	ATHENE HOLDING LTD	ATH	G0684D107	1527469	6311	524113.0	P	01	LC	16496	55804	2016-12-09	2021-12-31	ath-pd
318815	318815	BIODEXA PHARMACEUTICALS PLC	BDRX	59564R807	1643918	2836	325414.0	P	90	LC	15904	55506	2015-12-07	E	mtp
319917	319917	PURETECH HEALTH PLC	PRTC	746237106	1782999	2836	325414.0	P	90	LC	20164	57576	2020-11-16	E	prtc
321429	321429	MAXCYTE INC	MXCT	57777K106	1287098	8731	541714.0	C	01	LC	21745	58583	2021-07-30	E	mxct
321467	321467	WISEKEY INTERNATIONAL HOLD	WKEY	97727L408	1738699	3674	334413.0	P	90	LC	19147	56981	2019-12-04	E	wkey
321467	321467	WISEKEY INTERNATIONAL HOLD	WKEY	97727L408	1738699	3674	334413.0	P	90	LC	19147	56981	2019-12-04	E	wskef
321764	321764	MEREO BIOPHARMA GROUP PLC	MREO	589492107	1719714	2836	325414.0	P	90	LC	18483	56689	2019-04-24	E	mreo
322576	322576	JUST EAT TAKEAWAY.COM N.V.	JTKWY	48214T305	1792627	5961	445298.0	P	90	LC	21548	58459	2021-06-15	E	tkayf
322576	322576	JUST EAT TAKEAWAY.COM N.V.	JTKWY	48214T305	1792627	5961	445298.0	P	90	LC	21548	58459	2021-06-15	E	jtkwy
322985	322985	DIVERSIFIED ENERGY CO PLC	DEC	G2891G204	1922446	1311	211130.0	P	01	LC	24632	59739	2023-12-18	E	
323308	323308	BORR DRILLING LTD	BORR	G1466R173	1715497	1381	213111.0	P	01	LC	18827	56817	2019-07-31	E	borr
323476	323476	INVENTIVA SA	IVA	46124U107	1756594	2836	325414.0	P	90	LC	19563	57177	2020-07-10	E	iva
323476	323476	INVENTIVA SA	IVA	46124U107	1756594	2836	325414.0	P	90	LC	19563	57177	2020-07-10	E	ivevf
325211	325211	VISTA ENERGY SAB DE CV	VIST	92837L109	1762506	1311	211120.0	P	90	LC	18824	56816	2019-07-26	E	vist
325211	325211	VISTA ENERGY SAB DE CV	VIST	92837L109	1762506	1311	211120.0	P	90	LC	18824	56816	2019-07-26	E	vsogf
325576	325576	API GROUP CORPORATION	APG	00187Y100	1796209	1700	238.0	P	01	LC	19317	57057	2020-04-29	E	apg
325867	325867	STRATEGIC PARTNERS A/S	ORPHY	687305102	1764791	2836	325414.0	P	90	LC	19839	57353	2020-09-29	2022-03-30	
325899	325899	TELIX PHARMACEUTICALS LTD	TLX	87961M105	2007191	2836	325414.0	P	90	LC	25817	60072	2024-11-13	E	
325942	325942	RADIUS GLOBAL INFRASTRUCTURE	RADI	750481103	1810739	4813	517111.0	P	01	LC	19989	57461	2021-01-01	2023-09-29	radi
325942	325942	RADIUS GLOBAL INFRASTRUCTURE	RADI	750481103	1810739	4813	517111.0	C	01	LC	19989	57461	2020-10-05	2020-12-31	radi
326688	326688	NVENT ELECTRIC PLC	NVT	G6700G107	1720635	3440	3323.0	P	01	LC	17676	56329	2018-05-02	E	nvt
327451	327451	GRINDROD SHIPPING	GRIN	Y28895103	1725293	4412	483111.0	P	01	LC	17884	56407	2018-06-18	2024-08-30	grin
327564	327564	CALLIDITAS THERAPE	CALT	13124Q106	1795579	2834	325412.0	P	90	LC	19467	57115	2020-06-05	2024-09-30	calt
327675	327675	OKEANIS ECO TANKER	ECO	Y64177101	1964954	4412	483111.0	C	01	LC	24633	59740	2023-12-11	E	
327832	327832	ARGO BLOCKCHAIN PLC	ARBK	040126104	1841675	7372	513210.0	P	90	LC	21912	58706	2021-09-23	E	arbk
327832	327832	ARGO BLOCKCHAIN PLC	ARBK	040126104	1841675	7372	513210.0	P	90	LC	21912	58706	2021-09-23	E	arbkf
327832	327832	ARGO BLOCKCHAIN PLC	ARBK	040126104	1841675	7372	513210.0	P	90	LC	21912	58706	2021-09-23	E	arbkl
328032	328032	NAVIOS MARITIME CONTAINERS	NMCI	Y62151108	1707210	4412	483111.0	P	01	LC	18313	56612	2018-12-10	2021-03-31	
328795	328795	ARCOSA INC	ACA	039653100	1739445	3440	332312.0	P	01	LC	18144	56541	2018-11-01	E	aca
329141	329141	RENALYTIX PLC	RNLXY	75973T101	1811115	7372	513210.0	P	90	LC	19570	57187	2020-07-17	E	rnlx
329141	329141	RENALYTIX PLC	RNLXY	75973T101	1811115	7372	513210.0	P	90	LC	19570	57187	2020-07-17	E	rtnxf
329579	329579	BITFARMS LTD	BITF	09173B107	1812477	7374	518210.0	P	01	LC	21519	58432	2021-06-21	E	bitf
330888	330888	HAFNIA LTD	HAFN	Y2990R101	1815779	4412	483111.0	C	01	LC	25012	59846	2024-04-09	E	
331856	331856	IMMUNIC INC	IMUX	4525EP101	1280776	2836	325414.0	P	01	LC	14615	54835	2019-04-15	E	imux
332179	332179	LIFE360 INC	LIF	532206109	1581760	7372	513210.0	P	01	LC	25228	59911	2024-06-06	E	lifx
333070	333070	SEZZLE INC	SEZL	78435P105	1662991	7389	522320.0	P	01	LC	24100	59625	2023-08-17	E	seznl
334298	334298	PROPERTYGURU GROUP LIMITED	PGRU	G7258M108	1873331	7370	519290.0	P	01	LC	22973	59245	2022-03-18	2024-12-31	pgru
339950	339950	NYXOAH S A	NYXH	B6S7WD106	1857190	3841	339112.0	P	01	LC	21748	58585	2021-07-02	E	nyxh
339965	339965	SNOWFLAKE INC	SNOW	833445109	1640147	7370	518210.0	P	01	LC	19654	57255	2020-09-16	E	snow
343180	343180	T1 ENERGY INC	TE	35834F104	1992243	3690	335910.0	P	01	LC	21692	58541	2021-07-08	E	
345556	345556	F-STAR THERAPEUTICS INC	FSTX	30315R107	1566373	2836	325414.0	P	01	LC	16069	55573	2020-11-23	2023-03-31	fstx
345606	345606	CADELER A/S	CDLR	12738K109	1978867	1600	237990.0	P	90	LC	24604	59735	2023-12-20	E	
345699	345699	OSISKO DEVELOPMENT CORP	ODV	68828E809	1431852	1040	212221.0	P	01	LC	23088	59283	2022-05-27	E	odv
345920	345920	HYDROFARM HLDNG GP INC	HYFM	44888K407	1695295	3524	333112.0	P	01	LC	20194	57591	2020-12-10	E	hyfm
345980	345980	CONTEXTLOGIC INC	LOGC	21077C305	1822250	5961	455110.0	P	01	LC	20333	57666	2020-12-16	E	wish
346027	346027	CYBIN INC	CYBN	23256X407	1833141	2834	325412.0	J	01	LC	21799	58625	2021-08-05	E	cybn
347085	347085	KAROOOOO LTD	KARO	Y4600W108	1828102	7370	518210.0	P	01	LC	21069	58208	2021-04-01	E	karo
348615	348615	NAYAX LTD	NYAX	M7S750159	1901279	7370	518210.0	P	01	LC	23424	59402	2022-09-21	E	nyax
